
bomb:     file format elf64-x86-64


Disassembly of section .init:

0000000000400c98 <_init>:
  400c98:	48 83 ec 08          	sub    $0x8,%rsp
  400c9c:	48 8b 05 55 43 20 00 	mov    0x204355(%rip),%rax        # 604ff8 <_DYNAMIC+0x1d0>
  400ca3:	48 85 c0             	test   %rax,%rax
  400ca6:	74 05                	je     400cad <_init+0x15>
  400ca8:	e8 53 02 00 00       	callq  400f00 <socket@plt+0x10>
  400cad:	48 83 c4 08          	add    $0x8,%rsp
  400cb1:	c3                   	retq   

Disassembly of section .plt:

0000000000400cc0 <getenv@plt-0x10>:
  400cc0:	ff 35 42 43 20 00    	pushq  0x204342(%rip)        # 605008 <_GLOBAL_OFFSET_TABLE_+0x8>
  400cc6:	ff 25 44 43 20 00    	jmpq   *0x204344(%rip)        # 605010 <_GLOBAL_OFFSET_TABLE_+0x10>
  400ccc:	0f 1f 40 00          	nopl   0x0(%rax)

0000000000400cd0 <getenv@plt>:
  400cd0:	ff 25 42 43 20 00    	jmpq   *0x204342(%rip)        # 605018 <_GLOBAL_OFFSET_TABLE_+0x18>
  400cd6:	68 00 00 00 00       	pushq  $0x0
  400cdb:	e9 e0 ff ff ff       	jmpq   400cc0 <_init+0x28>

0000000000400ce0 <free@plt>:
  400ce0:	ff 25 3a 43 20 00    	jmpq   *0x20433a(%rip)        # 605020 <_GLOBAL_OFFSET_TABLE_+0x20>
  400ce6:	68 01 00 00 00       	pushq  $0x1
  400ceb:	e9 d0 ff ff ff       	jmpq   400cc0 <_init+0x28>

0000000000400cf0 <__errno_location@plt>:
  400cf0:	ff 25 32 43 20 00    	jmpq   *0x204332(%rip)        # 605028 <_GLOBAL_OFFSET_TABLE_+0x28>
  400cf6:	68 02 00 00 00       	pushq  $0x2
  400cfb:	e9 c0 ff ff ff       	jmpq   400cc0 <_init+0x28>

0000000000400d00 <strcpy@plt>:
  400d00:	ff 25 2a 43 20 00    	jmpq   *0x20432a(%rip)        # 605030 <_GLOBAL_OFFSET_TABLE_+0x30>
  400d06:	68 03 00 00 00       	pushq  $0x3
  400d0b:	e9 b0 ff ff ff       	jmpq   400cc0 <_init+0x28>

0000000000400d10 <puts@plt>:
  400d10:	ff 25 22 43 20 00    	jmpq   *0x204322(%rip)        # 605038 <_GLOBAL_OFFSET_TABLE_+0x38>
  400d16:	68 04 00 00 00       	pushq  $0x4
  400d1b:	e9 a0 ff ff ff       	jmpq   400cc0 <_init+0x28>

0000000000400d20 <write@plt>:
  400d20:	ff 25 1a 43 20 00    	jmpq   *0x20431a(%rip)        # 605040 <_GLOBAL_OFFSET_TABLE_+0x40>
  400d26:	68 05 00 00 00       	pushq  $0x5
  400d2b:	e9 90 ff ff ff       	jmpq   400cc0 <_init+0x28>

0000000000400d30 <strlen@plt>:
  400d30:	ff 25 12 43 20 00    	jmpq   *0x204312(%rip)        # 605048 <_GLOBAL_OFFSET_TABLE_+0x48>
  400d36:	68 06 00 00 00       	pushq  $0x6
  400d3b:	e9 80 ff ff ff       	jmpq   400cc0 <_init+0x28>

0000000000400d40 <__stack_chk_fail@plt>:
  400d40:	ff 25 0a 43 20 00    	jmpq   *0x20430a(%rip)        # 605050 <_GLOBAL_OFFSET_TABLE_+0x50>
  400d46:	68 07 00 00 00       	pushq  $0x7
  400d4b:	e9 70 ff ff ff       	jmpq   400cc0 <_init+0x28>

0000000000400d50 <strchr@plt>:
  400d50:	ff 25 02 43 20 00    	jmpq   *0x204302(%rip)        # 605058 <_GLOBAL_OFFSET_TABLE_+0x58>
  400d56:	68 08 00 00 00       	pushq  $0x8
  400d5b:	e9 60 ff ff ff       	jmpq   400cc0 <_init+0x28>

0000000000400d60 <alarm@plt>:
  400d60:	ff 25 fa 42 20 00    	jmpq   *0x2042fa(%rip)        # 605060 <_GLOBAL_OFFSET_TABLE_+0x60>
  400d66:	68 09 00 00 00       	pushq  $0x9
  400d6b:	e9 50 ff ff ff       	jmpq   400cc0 <_init+0x28>

0000000000400d70 <close@plt>:
  400d70:	ff 25 f2 42 20 00    	jmpq   *0x2042f2(%rip)        # 605068 <_GLOBAL_OFFSET_TABLE_+0x68>
  400d76:	68 0a 00 00 00       	pushq  $0xa
  400d7b:	e9 40 ff ff ff       	jmpq   400cc0 <_init+0x28>

0000000000400d80 <read@plt>:
  400d80:	ff 25 ea 42 20 00    	jmpq   *0x2042ea(%rip)        # 605070 <_GLOBAL_OFFSET_TABLE_+0x70>
  400d86:	68 0b 00 00 00       	pushq  $0xb
  400d8b:	e9 30 ff ff ff       	jmpq   400cc0 <_init+0x28>

0000000000400d90 <__libc_start_main@plt>:
  400d90:	ff 25 e2 42 20 00    	jmpq   *0x2042e2(%rip)        # 605078 <_GLOBAL_OFFSET_TABLE_+0x78>
  400d96:	68 0c 00 00 00       	pushq  $0xc
  400d9b:	e9 20 ff ff ff       	jmpq   400cc0 <_init+0x28>

0000000000400da0 <srand@plt>:
  400da0:	ff 25 da 42 20 00    	jmpq   *0x2042da(%rip)        # 605080 <_GLOBAL_OFFSET_TABLE_+0x80>
  400da6:	68 0d 00 00 00       	pushq  $0xd
  400dab:	e9 10 ff ff ff       	jmpq   400cc0 <_init+0x28>

0000000000400db0 <memcmp@plt>:
  400db0:	ff 25 d2 42 20 00    	jmpq   *0x2042d2(%rip)        # 605088 <_GLOBAL_OFFSET_TABLE_+0x88>
  400db6:	68 0e 00 00 00       	pushq  $0xe
  400dbb:	e9 00 ff ff ff       	jmpq   400cc0 <_init+0x28>

0000000000400dc0 <fgets@plt>:
  400dc0:	ff 25 ca 42 20 00    	jmpq   *0x2042ca(%rip)        # 605090 <_GLOBAL_OFFSET_TABLE_+0x90>
  400dc6:	68 0f 00 00 00       	pushq  $0xf
  400dcb:	e9 f0 fe ff ff       	jmpq   400cc0 <_init+0x28>

0000000000400dd0 <signal@plt>:
  400dd0:	ff 25 c2 42 20 00    	jmpq   *0x2042c2(%rip)        # 605098 <_GLOBAL_OFFSET_TABLE_+0x98>
  400dd6:	68 10 00 00 00       	pushq  $0x10
  400ddb:	e9 e0 fe ff ff       	jmpq   400cc0 <_init+0x28>

0000000000400de0 <gethostbyname@plt>:
  400de0:	ff 25 ba 42 20 00    	jmpq   *0x2042ba(%rip)        # 6050a0 <_GLOBAL_OFFSET_TABLE_+0xa0>
  400de6:	68 11 00 00 00       	pushq  $0x11
  400deb:	e9 d0 fe ff ff       	jmpq   400cc0 <_init+0x28>

0000000000400df0 <__memmove_chk@plt>:
  400df0:	ff 25 b2 42 20 00    	jmpq   *0x2042b2(%rip)        # 6050a8 <_GLOBAL_OFFSET_TABLE_+0xa8>
  400df6:	68 12 00 00 00       	pushq  $0x12
  400dfb:	e9 c0 fe ff ff       	jmpq   400cc0 <_init+0x28>

0000000000400e00 <memcpy@plt>:
  400e00:	ff 25 aa 42 20 00    	jmpq   *0x2042aa(%rip)        # 6050b0 <_GLOBAL_OFFSET_TABLE_+0xb0>
  400e06:	68 13 00 00 00       	pushq  $0x13
  400e0b:	e9 b0 fe ff ff       	jmpq   400cc0 <_init+0x28>

0000000000400e10 <malloc@plt>:
  400e10:	ff 25 a2 42 20 00    	jmpq   *0x2042a2(%rip)        # 6050b8 <_GLOBAL_OFFSET_TABLE_+0xb8>
  400e16:	68 14 00 00 00       	pushq  $0x14
  400e1b:	e9 a0 fe ff ff       	jmpq   400cc0 <_init+0x28>

0000000000400e20 <fflush@plt>:
  400e20:	ff 25 9a 42 20 00    	jmpq   *0x20429a(%rip)        # 6050c0 <_GLOBAL_OFFSET_TABLE_+0xc0>
  400e26:	68 15 00 00 00       	pushq  $0x15
  400e2b:	e9 90 fe ff ff       	jmpq   400cc0 <_init+0x28>

0000000000400e30 <__isoc99_sscanf@plt>:
  400e30:	ff 25 92 42 20 00    	jmpq   *0x204292(%rip)        # 6050c8 <_GLOBAL_OFFSET_TABLE_+0xc8>
  400e36:	68 16 00 00 00       	pushq  $0x16
  400e3b:	e9 80 fe ff ff       	jmpq   400cc0 <_init+0x28>

0000000000400e40 <__strcpy_chk@plt>:
  400e40:	ff 25 8a 42 20 00    	jmpq   *0x20428a(%rip)        # 6050d0 <_GLOBAL_OFFSET_TABLE_+0xd0>
  400e46:	68 17 00 00 00       	pushq  $0x17
  400e4b:	e9 70 fe ff ff       	jmpq   400cc0 <_init+0x28>

0000000000400e50 <__printf_chk@plt>:
  400e50:	ff 25 82 42 20 00    	jmpq   *0x204282(%rip)        # 6050d8 <_GLOBAL_OFFSET_TABLE_+0xd8>
  400e56:	68 18 00 00 00       	pushq  $0x18
  400e5b:	e9 60 fe ff ff       	jmpq   400cc0 <_init+0x28>

0000000000400e60 <fopen@plt>:
  400e60:	ff 25 7a 42 20 00    	jmpq   *0x20427a(%rip)        # 6050e0 <_GLOBAL_OFFSET_TABLE_+0xe0>
  400e66:	68 19 00 00 00       	pushq  $0x19
  400e6b:	e9 50 fe ff ff       	jmpq   400cc0 <_init+0x28>

0000000000400e70 <strtoul@plt>:
  400e70:	ff 25 72 42 20 00    	jmpq   *0x204272(%rip)        # 6050e8 <_GLOBAL_OFFSET_TABLE_+0xe8>
  400e76:	68 1a 00 00 00       	pushq  $0x1a
  400e7b:	e9 40 fe ff ff       	jmpq   400cc0 <_init+0x28>

0000000000400e80 <exit@plt>:
  400e80:	ff 25 6a 42 20 00    	jmpq   *0x20426a(%rip)        # 6050f0 <_GLOBAL_OFFSET_TABLE_+0xf0>
  400e86:	68 1b 00 00 00       	pushq  $0x1b
  400e8b:	e9 30 fe ff ff       	jmpq   400cc0 <_init+0x28>

0000000000400e90 <connect@plt>:
  400e90:	ff 25 62 42 20 00    	jmpq   *0x204262(%rip)        # 6050f8 <_GLOBAL_OFFSET_TABLE_+0xf8>
  400e96:	68 1c 00 00 00       	pushq  $0x1c
  400e9b:	e9 20 fe ff ff       	jmpq   400cc0 <_init+0x28>

0000000000400ea0 <__fprintf_chk@plt>:
  400ea0:	ff 25 5a 42 20 00    	jmpq   *0x20425a(%rip)        # 605100 <_GLOBAL_OFFSET_TABLE_+0x100>
  400ea6:	68 1d 00 00 00       	pushq  $0x1d
  400eab:	e9 10 fe ff ff       	jmpq   400cc0 <_init+0x28>

0000000000400eb0 <sleep@plt>:
  400eb0:	ff 25 52 42 20 00    	jmpq   *0x204252(%rip)        # 605108 <_GLOBAL_OFFSET_TABLE_+0x108>
  400eb6:	68 1e 00 00 00       	pushq  $0x1e
  400ebb:	e9 00 fe ff ff       	jmpq   400cc0 <_init+0x28>

0000000000400ec0 <rand@plt>:
  400ec0:	ff 25 4a 42 20 00    	jmpq   *0x20424a(%rip)        # 605110 <_GLOBAL_OFFSET_TABLE_+0x110>
  400ec6:	68 1f 00 00 00       	pushq  $0x1f
  400ecb:	e9 f0 fd ff ff       	jmpq   400cc0 <_init+0x28>

0000000000400ed0 <__ctype_b_loc@plt>:
  400ed0:	ff 25 42 42 20 00    	jmpq   *0x204242(%rip)        # 605118 <_GLOBAL_OFFSET_TABLE_+0x118>
  400ed6:	68 20 00 00 00       	pushq  $0x20
  400edb:	e9 e0 fd ff ff       	jmpq   400cc0 <_init+0x28>

0000000000400ee0 <__sprintf_chk@plt>:
  400ee0:	ff 25 3a 42 20 00    	jmpq   *0x20423a(%rip)        # 605120 <_GLOBAL_OFFSET_TABLE_+0x120>
  400ee6:	68 21 00 00 00       	pushq  $0x21
  400eeb:	e9 d0 fd ff ff       	jmpq   400cc0 <_init+0x28>

0000000000400ef0 <socket@plt>:
  400ef0:	ff 25 32 42 20 00    	jmpq   *0x204232(%rip)        # 605128 <_GLOBAL_OFFSET_TABLE_+0x128>
  400ef6:	68 22 00 00 00       	pushq  $0x22
  400efb:	e9 c0 fd ff ff       	jmpq   400cc0 <_init+0x28>

Disassembly of section .plt.got:

0000000000400f00 <.plt.got>:
  400f00:	ff 25 f2 40 20 00    	jmpq   *0x2040f2(%rip)        # 604ff8 <_DYNAMIC+0x1d0>
  400f06:	66 90                	xchg   %ax,%ax

Disassembly of section .text:

0000000000400f10 <sigint_handler.part.2>:
  400f10:	50                   	push   %rax
  400f11:	bf e8 3c 40 00       	mov    $0x403ce8,%edi
  400f16:	e8 f5 fd ff ff       	callq  400d10 <puts@plt>
  400f1b:	bf 03 00 00 00       	mov    $0x3,%edi
  400f20:	e8 8b ff ff ff       	callq  400eb0 <sleep@plt>
  400f25:	bf bd 31 40 00       	mov    $0x4031bd,%edi
  400f2a:	e8 e1 fd ff ff       	callq  400d10 <puts@plt>
  400f2f:	bf 01 00 00 00       	mov    $0x1,%edi
  400f34:	e8 77 ff ff ff       	callq  400eb0 <sleep@plt>
  400f39:	48 8b 3d e0 43 20 00 	mov    0x2043e0(%rip),%rdi        # 605320 <stdout@@GLIBC_2.2.5>
  400f40:	e8 db fe ff ff       	callq  400e20 <fflush@plt>
  400f45:	bf bd 31 40 00       	mov    $0x4031bd,%edi
  400f4a:	e8 c1 fd ff ff       	callq  400d10 <puts@plt>
  400f4f:	bf 01 00 00 00       	mov    $0x1,%edi
  400f54:	e8 57 ff ff ff       	callq  400eb0 <sleep@plt>
  400f59:	48 8b 3d c0 43 20 00 	mov    0x2043c0(%rip),%rdi        # 605320 <stdout@@GLIBC_2.2.5>
  400f60:	e8 bb fe ff ff       	callq  400e20 <fflush@plt>
  400f65:	bf 15 3c 40 00       	mov    $0x403c15,%edi
  400f6a:	e8 a1 fd ff ff       	callq  400d10 <puts@plt>
  400f6f:	bf 10 00 00 00       	mov    $0x10,%edi
  400f74:	e8 07 ff ff ff       	callq  400e80 <exit@plt>
  400f79:	0f 1f 80 00 00 00 00 	nopl   0x0(%rax)

0000000000400f80 <_start>:
  400f80:	31 ed                	xor    %ebp,%ebp
  400f82:	49 89 d1             	mov    %rdx,%r9
  400f85:	5e                   	pop    %rsi
  400f86:	48 89 e2             	mov    %rsp,%rdx
  400f89:	48 83 e4 f0          	and    $0xfffffffffffffff0,%rsp
  400f8d:	50                   	push   %rax
  400f8e:	54                   	push   %rsp
  400f8f:	49 c7 c0 10 31 40 00 	mov    $0x403110,%r8
  400f96:	48 c7 c1 a0 30 40 00 	mov    $0x4030a0,%rcx
  400f9d:	48 c7 c7 76 10 40 00 	mov    $0x401076,%rdi
  400fa4:	e8 e7 fd ff ff       	callq  400d90 <__libc_start_main@plt>
  400fa9:	f4                   	hlt    
  400faa:	66 0f 1f 44 00 00    	nopw   0x0(%rax,%rax,1)

0000000000400fb0 <deregister_tm_clones>:
  400fb0:	b8 0f 53 60 00       	mov    $0x60530f,%eax
  400fb5:	55                   	push   %rbp
  400fb6:	48 2d 08 53 60 00    	sub    $0x605308,%rax
  400fbc:	48 83 f8 0e          	cmp    $0xe,%rax
  400fc0:	48 89 e5             	mov    %rsp,%rbp
  400fc3:	76 1b                	jbe    400fe0 <deregister_tm_clones+0x30>
  400fc5:	b8 00 00 00 00       	mov    $0x0,%eax
  400fca:	48 85 c0             	test   %rax,%rax
  400fcd:	74 11                	je     400fe0 <deregister_tm_clones+0x30>
  400fcf:	5d                   	pop    %rbp
  400fd0:	bf 08 53 60 00       	mov    $0x605308,%edi
  400fd5:	ff e0                	jmpq   *%rax
  400fd7:	66 0f 1f 84 00 00 00 	nopw   0x0(%rax,%rax,1)
  400fde:	00 00 
  400fe0:	5d                   	pop    %rbp
  400fe1:	c3                   	retq   
  400fe2:	0f 1f 40 00          	nopl   0x0(%rax)
  400fe6:	66 2e 0f 1f 84 00 00 	nopw   %cs:0x0(%rax,%rax,1)
  400fed:	00 00 00 

0000000000400ff0 <register_tm_clones>:
  400ff0:	be 08 53 60 00       	mov    $0x605308,%esi
  400ff5:	55                   	push   %rbp
  400ff6:	48 81 ee 08 53 60 00 	sub    $0x605308,%rsi
  400ffd:	48 c1 fe 03          	sar    $0x3,%rsi
  401001:	48 89 e5             	mov    %rsp,%rbp
  401004:	48 89 f0             	mov    %rsi,%rax
  401007:	48 c1 e8 3f          	shr    $0x3f,%rax
  40100b:	48 01 c6             	add    %rax,%rsi
  40100e:	48 d1 fe             	sar    %rsi
  401011:	74 15                	je     401028 <register_tm_clones+0x38>
  401013:	b8 00 00 00 00       	mov    $0x0,%eax
  401018:	48 85 c0             	test   %rax,%rax
  40101b:	74 0b                	je     401028 <register_tm_clones+0x38>
  40101d:	5d                   	pop    %rbp
  40101e:	bf 08 53 60 00       	mov    $0x605308,%edi
  401023:	ff e0                	jmpq   *%rax
  401025:	0f 1f 00             	nopl   (%rax)
  401028:	5d                   	pop    %rbp
  401029:	c3                   	retq   
  40102a:	66 0f 1f 44 00 00    	nopw   0x0(%rax,%rax,1)

0000000000401030 <__do_global_dtors_aux>:
  401030:	80 3d 11 43 20 00 00 	cmpb   $0x0,0x204311(%rip)        # 605348 <completed.7585>
  401037:	75 11                	jne    40104a <__do_global_dtors_aux+0x1a>
  401039:	55                   	push   %rbp
  40103a:	48 89 e5             	mov    %rsp,%rbp
  40103d:	e8 6e ff ff ff       	callq  400fb0 <deregister_tm_clones>
  401042:	5d                   	pop    %rbp
  401043:	c6 05 fe 42 20 00 01 	movb   $0x1,0x2042fe(%rip)        # 605348 <completed.7585>
  40104a:	f3 c3                	repz retq 
  40104c:	0f 1f 40 00          	nopl   0x0(%rax)

0000000000401050 <frame_dummy>:
  401050:	bf 20 4e 60 00       	mov    $0x604e20,%edi
  401055:	48 83 3f 00          	cmpq   $0x0,(%rdi)
  401059:	75 05                	jne    401060 <frame_dummy+0x10>
  40105b:	eb 93                	jmp    400ff0 <register_tm_clones>
  40105d:	0f 1f 00             	nopl   (%rax)
  401060:	b8 00 00 00 00       	mov    $0x0,%eax
  401065:	48 85 c0             	test   %rax,%rax
  401068:	74 f1                	je     40105b <frame_dummy+0xb>
  40106a:	55                   	push   %rbp
  40106b:	48 89 e5             	mov    %rsp,%rbp
  40106e:	ff d0                	callq  *%rax
  401070:	5d                   	pop    %rbp
  401071:	e9 7a ff ff ff       	jmpq   400ff0 <register_tm_clones>

0000000000401076 <main>:
  401076:	53                   	push   %rbx
  401077:	83 ff 01             	cmp    $0x1,%edi
  40107a:	75 10                	jne    40108c <main+0x16>
  40107c:	48 8b 05 ad 42 20 00 	mov    0x2042ad(%rip),%rax        # 605330 <stdin@@GLIBC_2.2.5>
  401083:	48 89 05 06 4a 20 00 	mov    %rax,0x204a06(%rip)        # 605a90 <infile>
  40108a:	eb 63                	jmp    4010ef <main+0x79>
  40108c:	48 89 f3             	mov    %rsi,%rbx
  40108f:	83 ff 02             	cmp    $0x2,%edi
  401092:	75 3a                	jne    4010ce <main+0x58>
  401094:	48 8b 7e 08          	mov    0x8(%rsi),%rdi
  401098:	be bc 32 40 00       	mov    $0x4032bc,%esi
  40109d:	e8 be fd ff ff       	callq  400e60 <fopen@plt>
  4010a2:	48 89 05 e7 49 20 00 	mov    %rax,0x2049e7(%rip)        # 605a90 <infile>
  4010a9:	48 85 c0             	test   %rax,%rax
  4010ac:	75 41                	jne    4010ef <main+0x79>
  4010ae:	48 8b 4b 08          	mov    0x8(%rbx),%rcx
  4010b2:	48 8b 13             	mov    (%rbx),%rdx
  4010b5:	be 24 31 40 00       	mov    $0x403124,%esi
  4010ba:	bf 01 00 00 00       	mov    $0x1,%edi
  4010bf:	e8 8c fd ff ff       	callq  400e50 <__printf_chk@plt>
  4010c4:	bf 08 00 00 00       	mov    $0x8,%edi
  4010c9:	e8 b2 fd ff ff       	callq  400e80 <exit@plt>
  4010ce:	48 8b 16             	mov    (%rsi),%rdx
  4010d1:	be 41 31 40 00       	mov    $0x403141,%esi
  4010d6:	bf 01 00 00 00       	mov    $0x1,%edi
  4010db:	b8 00 00 00 00       	mov    $0x0,%eax
  4010e0:	e8 6b fd ff ff       	callq  400e50 <__printf_chk@plt>
  4010e5:	bf 08 00 00 00       	mov    $0x8,%edi
  4010ea:	e8 91 fd ff ff       	callq  400e80 <exit@plt>
  4010ef:	e8 1c 0b 00 00       	callq  401c10 <invalid_phase+0x30>
  4010f4:	bf c8 31 40 00       	mov    $0x4031c8,%edi
  4010f9:	e8 12 fc ff ff       	callq  400d10 <puts@plt>
  4010fe:	bf 00 32 40 00       	mov    $0x403200,%edi
  401103:	e8 08 fc ff ff       	callq  400d10 <puts@plt>
  401108:	e8 c3 0f 00 00       	callq  4020d0 <read_line>
  40110d:	48 89 c7             	mov    %rax,%rdi
  401110:	e8 3d 01 00 00       	callq  401252 <phase1>
  401115:	e8 36 12 00 00       	callq  402350 <phase_defused>
  40111a:	bf 30 32 40 00       	mov    $0x403230,%edi
  40111f:	e8 ec fb ff ff       	callq  400d10 <puts@plt>
  401124:	e8 a7 0f 00 00       	callq  4020d0 <read_line>
  401129:	48 89 c7             	mov    %rax,%rdi
  40112c:	e8 8e 01 00 00       	callq  4012bf <phase2>
  401131:	e8 1a 12 00 00       	callq  402350 <phase_defused>
  401136:	bf 5b 31 40 00       	mov    $0x40315b,%edi
  40113b:	e8 d0 fb ff ff       	callq  400d10 <puts@plt>
  401140:	e8 8b 0f 00 00       	callq  4020d0 <read_line>
  401145:	48 89 c7             	mov    %rax,%rdi
  401148:	e8 5b 02 00 00       	callq  4013a8 <phase3>
  40114d:	e8 fe 11 00 00       	callq  402350 <phase_defused>
  401152:	bf 79 31 40 00       	mov    $0x403179,%edi
  401157:	e8 b4 fb ff ff       	callq  400d10 <puts@plt>
  40115c:	e8 6f 0f 00 00       	callq  4020d0 <read_line>
  401161:	48 89 c7             	mov    %rax,%rdi
  401164:	e8 9d 04 00 00       	callq  401606 <phase4>
  401169:	e8 e2 11 00 00       	callq  402350 <phase_defused>
  40116e:	bf 88 31 40 00       	mov    $0x403188,%edi
  401173:	e8 98 fb ff ff       	callq  400d10 <puts@plt>
  401178:	e8 53 0f 00 00       	callq  4020d0 <read_line>
  40117d:	48 89 c7             	mov    %rax,%rdi
  401180:	e8 db 05 00 00       	callq  401760 <phase5>
  401185:	e8 c6 11 00 00       	callq  402350 <phase_defused>
  40118a:	bf a3 31 40 00       	mov    $0x4031a3,%edi
  40118f:	e8 7c fb ff ff       	callq  400d10 <puts@plt>
  401194:	e8 37 0f 00 00       	callq  4020d0 <read_line>
  401199:	48 89 c7             	mov    %rax,%rdi
  40119c:	e8 c6 06 00 00       	callq  401867 <phase6>
  4011a1:	e8 aa 11 00 00       	callq  402350 <phase_defused>
  4011a6:	b8 00 00 00 00       	mov    $0x0,%eax
  4011ab:	5b                   	pop    %rbx
  4011ac:	c3                   	retq   

00000000004011ad <string_length>:
  4011ad:	b8 00 00 00 00       	mov    $0x0,%eax
  4011b2:	eb 07                	jmp    4011bb <string_length+0xe>
  4011b4:	48 83 c7 01          	add    $0x1,%rdi
  4011b8:	83 c0 01             	add    $0x1,%eax
  4011bb:	80 3f 00             	cmpb   $0x0,(%rdi)
  4011be:	75 f4                	jne    4011b4 <string_length+0x7>
  4011c0:	f3 c3                	repz retq 

00000000004011c2 <strings_not_equal>:
  4011c2:	41 54                	push   %r12
  4011c4:	55                   	push   %rbp
  4011c5:	53                   	push   %rbx
  4011c6:	48 89 fb             	mov    %rdi,%rbx
  4011c9:	48 89 f5             	mov    %rsi,%rbp
  4011cc:	e8 dc ff ff ff       	callq  4011ad <string_length>
  4011d1:	41 89 c4             	mov    %eax,%r12d
  4011d4:	48 89 ef             	mov    %rbp,%rdi
  4011d7:	e8 d1 ff ff ff       	callq  4011ad <string_length>
  4011dc:	41 39 c4             	cmp    %eax,%r12d
  4011df:	75 1d                	jne    4011fe <strings_not_equal+0x3c>
  4011e1:	eb 0d                	jmp    4011f0 <strings_not_equal+0x2e>
  4011e3:	3a 45 00             	cmp    0x0(%rbp),%al
  4011e6:	75 1d                	jne    401205 <strings_not_equal+0x43>
  4011e8:	48 83 c3 01          	add    $0x1,%rbx
  4011ec:	48 83 c5 01          	add    $0x1,%rbp
  4011f0:	0f b6 03             	movzbl (%rbx),%eax
  4011f3:	84 c0                	test   %al,%al
  4011f5:	75 ec                	jne    4011e3 <strings_not_equal+0x21>
  4011f7:	b8 00 00 00 00       	mov    $0x0,%eax
  4011fc:	eb 0c                	jmp    40120a <strings_not_equal+0x48>
  4011fe:	b8 01 00 00 00       	mov    $0x1,%eax
  401203:	eb 05                	jmp    40120a <strings_not_equal+0x48>
  401205:	b8 01 00 00 00       	mov    $0x1,%eax
  40120a:	5b                   	pop    %rbx
  40120b:	5d                   	pop    %rbp
  40120c:	41 5c                	pop    %r12
  40120e:	c3                   	retq   
  40120f:	48 83 ec 08          	sub    $0x8,%rsp
  401213:	e8 a8 fc ff ff       	callq  400ec0 <rand@plt>
  401218:	ba e1 83 0f 3e       	mov    $0x3e0f83e1,%edx
  40121d:	89 c1                	mov    %eax,%ecx
  40121f:	bf 00 5a 60 00       	mov    $0x605a00,%edi
  401224:	f7 ea                	imul   %edx
  401226:	89 c8                	mov    %ecx,%eax
  401228:	c1 f8 1f             	sar    $0x1f,%eax
  40122b:	c1 fa 03             	sar    $0x3,%edx
  40122e:	29 c2                	sub    %eax,%edx
  401230:	89 d0                	mov    %edx,%eax
  401232:	c1 e0 05             	shl    $0x5,%eax
  401235:	01 c2                	add    %eax,%edx
  401237:	29 d1                	sub    %edx,%ecx
  401239:	ba 80 00 00 00       	mov    $0x80,%edx
  40123e:	48 63 c9             	movslq %ecx,%rcx
  401241:	48 8b 34 cd c0 51 60 	mov    0x6051c0(,%rcx,8),%rsi
  401248:	00 
  401249:	48 83 c4 08          	add    $0x8,%rsp
  40124d:	e9 ee fb ff ff       	jmpq   400e40 <__strcpy_chk@plt>

0000000000401252 <phase1>:
  401252:	48 83 ec 08          	sub    $0x8,%rsp
  401256:	be 00 5a 60 00       	mov    $0x605a00,%esi
  40125b:	e8 62 ff ff ff       	callq  4011c2 <strings_not_equal>
  401260:	85 c0                	test   %eax,%eax
  401262:	74 05                	je     401269 <phase1+0x17>
  401264:	e8 d7 0c 00 00       	callq  401f40 <explode_bomb>
  401269:	48 83 c4 08          	add    $0x8,%rsp
  40126d:	c3                   	retq   
  40126e:	48 83 ec 08          	sub    $0x8,%rsp
  401272:	e8 49 fc ff ff       	callq  400ec0 <rand@plt>
  401277:	89 c2                	mov    %eax,%edx
  401279:	c1 ea 1f             	shr    $0x1f,%edx
  40127c:	01 d0                	add    %edx,%eax
  40127e:	83 e0 01             	and    $0x1,%eax
  401281:	29 d0                	sub    %edx,%eax
  401283:	83 c0 02             	add    $0x2,%eax
  401286:	89 05 58 47 20 00    	mov    %eax,0x204758(%rip)        # 6059e4 <completed.7585+0x69c>
  40128c:	e8 2f fc ff ff       	callq  400ec0 <rand@plt>
  401291:	ba 93 24 49 92       	mov    $0x92492493,%edx
  401296:	89 c1                	mov    %eax,%ecx
  401298:	f7 ea                	imul   %edx
  40129a:	89 c8                	mov    %ecx,%eax
  40129c:	c1 f8 1f             	sar    $0x1f,%eax
  40129f:	01 ca                	add    %ecx,%edx
  4012a1:	c1 fa 02             	sar    $0x2,%edx
  4012a4:	29 c2                	sub    %eax,%edx
  4012a6:	8d 04 d5 00 00 00 00 	lea    0x0(,%rdx,8),%eax
  4012ad:	29 d0                	sub    %edx,%eax
  4012af:	29 c1                	sub    %eax,%ecx
  4012b1:	83 c1 01             	add    $0x1,%ecx
  4012b4:	89 0d 26 47 20 00    	mov    %ecx,0x204726(%rip)        # 6059e0 <completed.7585+0x698>
  4012ba:	48 83 c4 08          	add    $0x8,%rsp
  4012be:	c3                   	retq   

00000000004012bf <phase2>:
  4012bf:	53                   	push   %rbx
  4012c0:	48 83 ec 20          	sub    $0x20,%rsp
  4012c4:	64 48 8b 04 25 28 00 	mov    %fs:0x28,%rax
  4012cb:	00 00 
  4012cd:	48 89 44 24 18       	mov    %rax,0x18(%rsp)
  4012d2:	31 c0                	xor    %eax,%eax
  4012d4:	48 89 e6             	mov    %rsp,%rsi
  4012d7:	e8 a4 0c 00 00       	callq  401f80 <read_six_numbers>
  4012dc:	8b 05 fe 46 20 00    	mov    0x2046fe(%rip),%eax        # 6059e0 <completed.7585+0x698>
  4012e2:	39 04 24             	cmp    %eax,(%rsp)
  4012e5:	74 05                	je     4012ec <phase2+0x2d>
  4012e7:	e8 54 0c 00 00       	callq  401f40 <explode_bomb>
  4012ec:	bb 01 00 00 00       	mov    $0x1,%ebx
  4012f1:	eb 1f                	jmp    401312 <phase2+0x53>
  4012f3:	48 63 d3             	movslq %ebx,%rdx
  4012f6:	8d 43 ff             	lea    -0x1(%rbx),%eax
  4012f9:	48 98                	cltq   
  4012fb:	8b 04 84             	mov    (%rsp,%rax,4),%eax
  4012fe:	0f af 05 df 46 20 00 	imul   0x2046df(%rip),%eax        # 6059e4 <completed.7585+0x69c>
  401305:	39 04 94             	cmp    %eax,(%rsp,%rdx,4)
  401308:	74 05                	je     40130f <phase2+0x50>
  40130a:	e8 31 0c 00 00       	callq  401f40 <explode_bomb>
  40130f:	83 c3 01             	add    $0x1,%ebx
  401312:	83 fb 05             	cmp    $0x5,%ebx
  401315:	7e dc                	jle    4012f3 <phase2+0x34>
  401317:	48 8b 44 24 18       	mov    0x18(%rsp),%rax
  40131c:	64 48 33 04 25 28 00 	xor    %fs:0x28,%rax
  401323:	00 00 
  401325:	74 05                	je     40132c <phase2+0x6d>
  401327:	e8 14 fa ff ff       	callq  400d40 <__stack_chk_fail@plt>
  40132c:	48 83 c4 20          	add    $0x20,%rsp
  401330:	5b                   	pop    %rbx
  401331:	c3                   	retq   
  401332:	41 54                	push   %r12
  401334:	41 bc a0 59 60 00    	mov    $0x6059a0,%r12d
  40133a:	55                   	push   %rbp
  40133b:	bd d3 4d 62 10       	mov    $0x10624dd3,%ebp
  401340:	53                   	push   %rbx
  401341:	bb c0 59 60 00       	mov    $0x6059c0,%ebx
  401346:	e8 75 fb ff ff       	callq  400ec0 <rand@plt>
  40134b:	89 c1                	mov    %eax,%ecx
  40134d:	49 83 c4 04          	add    $0x4,%r12
  401351:	f7 ed                	imul   %ebp
  401353:	89 c8                	mov    %ecx,%eax
  401355:	c1 f8 1f             	sar    $0x1f,%eax
  401358:	c1 fa 06             	sar    $0x6,%edx
  40135b:	29 c2                	sub    %eax,%edx
  40135d:	69 d2 e8 03 00 00    	imul   $0x3e8,%edx,%edx
  401363:	29 d1                	sub    %edx,%ecx
  401365:	41 89 4c 24 fc       	mov    %ecx,-0x4(%r12)
  40136a:	49 81 fc c0 59 60 00 	cmp    $0x6059c0,%r12
  401371:	75 d3                	jne    401346 <phase2+0x87>
  401373:	bd 4f ec c4 4e       	mov    $0x4ec4ec4f,%ebp
  401378:	e8 43 fb ff ff       	callq  400ec0 <rand@plt>
  40137d:	89 c1                	mov    %eax,%ecx
  40137f:	48 83 c3 04          	add    $0x4,%rbx
  401383:	f7 ed                	imul   %ebp
  401385:	89 c8                	mov    %ecx,%eax
  401387:	c1 f8 1f             	sar    $0x1f,%eax
  40138a:	c1 fa 03             	sar    $0x3,%edx
  40138d:	29 c2                	sub    %eax,%edx
  40138f:	6b d2 1a             	imul   $0x1a,%edx,%edx
  401392:	29 d1                	sub    %edx,%ecx
  401394:	83 c1 41             	add    $0x41,%ecx
  401397:	89 4b fc             	mov    %ecx,-0x4(%rbx)
  40139a:	48 81 fb e0 59 60 00 	cmp    $0x6059e0,%rbx
  4013a1:	75 d5                	jne    401378 <phase2+0xb9>
  4013a3:	5b                   	pop    %rbx
  4013a4:	5d                   	pop    %rbp
  4013a5:	41 5c                	pop    %r12
  4013a7:	c3                   	retq   

00000000004013a8 <phase3>:
  4013a8:	53                   	push   %rbx
  4013a9:	48 83 ec 20          	sub    $0x20,%rsp
  4013ad:	64 48 8b 04 25 28 00 	mov    %fs:0x28,%rax
  4013b4:	00 00 
  4013b6:	48 89 44 24 18       	mov    %rax,0x18(%rsp)
  4013bb:	31 c0                	xor    %eax,%eax
  4013bd:	4c 8d 44 24 14       	lea    0x14(%rsp),%r8
  4013c2:	48 8d 4c 24 0f       	lea    0xf(%rsp),%rcx
  4013c7:	48 8d 54 24 10       	lea    0x10(%rsp),%rdx
  4013cc:	be 5a 32 40 00       	mov    $0x40325a,%esi
  4013d1:	e8 5a fa ff ff       	callq  400e30 <__isoc99_sscanf@plt>
  4013d6:	83 f8 02             	cmp    $0x2,%eax
  4013d9:	7f 05                	jg     4013e0 <phase3+0x38>
  4013db:	e8 60 0b 00 00       	callq  401f40 <explode_bomb>
  4013e0:	83 7c 24 10 07       	cmpl   $0x7,0x10(%rsp)
  4013e5:	0f 87 f0 00 00 00    	ja     4014db <phase3+0x133>
  4013eb:	8b 44 24 10          	mov    0x10(%rsp),%eax
  4013ef:	ff 24 c5 40 33 40 00 	jmpq   *0x403340(,%rax,8)
  4013f6:	0f b6 1d cb 45 20 00 	movzbl 0x2045cb(%rip),%ebx        # 6059c8 <completed.7585+0x680>
  4013fd:	8b 44 24 14          	mov    0x14(%rsp),%eax
  401401:	39 05 a1 45 20 00    	cmp    %eax,0x2045a1(%rip)        # 6059a8 <completed.7585+0x660>
  401407:	0f 84 d8 00 00 00    	je     4014e5 <phase3+0x13d>
  40140d:	e8 2e 0b 00 00       	callq  401f40 <explode_bomb>
  401412:	e9 ce 00 00 00       	jmpq   4014e5 <phase3+0x13d>
  401417:	0f b6 1d a2 45 20 00 	movzbl 0x2045a2(%rip),%ebx        # 6059c0 <completed.7585+0x678>
  40141e:	8b 44 24 14          	mov    0x14(%rsp),%eax
  401422:	39 05 78 45 20 00    	cmp    %eax,0x204578(%rip)        # 6059a0 <completed.7585+0x658>
  401428:	0f 84 b7 00 00 00    	je     4014e5 <phase3+0x13d>
  40142e:	e8 0d 0b 00 00       	callq  401f40 <explode_bomb>
  401433:	e9 ad 00 00 00       	jmpq   4014e5 <phase3+0x13d>
  401438:	0f b6 1d 8d 45 20 00 	movzbl 0x20458d(%rip),%ebx        # 6059cc <completed.7585+0x684>
  40143f:	8b 44 24 14          	mov    0x14(%rsp),%eax
  401443:	39 05 63 45 20 00    	cmp    %eax,0x204563(%rip)        # 6059ac <completed.7585+0x664>
  401449:	0f 84 96 00 00 00    	je     4014e5 <phase3+0x13d>
  40144f:	e8 ec 0a 00 00       	callq  401f40 <explode_bomb>
  401454:	e9 8c 00 00 00       	jmpq   4014e5 <phase3+0x13d>
  401459:	0f b6 1d 7c 45 20 00 	movzbl 0x20457c(%rip),%ebx        # 6059dc <completed.7585+0x694>
  401460:	8b 44 24 14          	mov    0x14(%rsp),%eax
  401464:	39 05 52 45 20 00    	cmp    %eax,0x204552(%rip)        # 6059bc <completed.7585+0x674>
  40146a:	74 79                	je     4014e5 <phase3+0x13d>
  40146c:	e8 cf 0a 00 00       	callq  401f40 <explode_bomb>
  401471:	eb 72                	jmp    4014e5 <phase3+0x13d>
  401473:	0f b6 1d 5a 45 20 00 	movzbl 0x20455a(%rip),%ebx        # 6059d4 <completed.7585+0x68c>
  40147a:	8b 44 24 14          	mov    0x14(%rsp),%eax
  40147e:	39 05 30 45 20 00    	cmp    %eax,0x204530(%rip)        # 6059b4 <completed.7585+0x66c>
  401484:	74 5f                	je     4014e5 <phase3+0x13d>
  401486:	e8 b5 0a 00 00       	callq  401f40 <explode_bomb>
  40148b:	eb 58                	jmp    4014e5 <phase3+0x13d>
  40148d:	0f b6 1d 30 45 20 00 	movzbl 0x204530(%rip),%ebx        # 6059c4 <completed.7585+0x67c>
  401494:	8b 44 24 14          	mov    0x14(%rsp),%eax
  401498:	39 05 06 45 20 00    	cmp    %eax,0x204506(%rip)        # 6059a4 <completed.7585+0x65c>
  40149e:	74 45                	je     4014e5 <phase3+0x13d>
  4014a0:	e8 9b 0a 00 00       	callq  401f40 <explode_bomb>
  4014a5:	eb 3e                	jmp    4014e5 <phase3+0x13d>
  4014a7:	0f b6 1d 22 45 20 00 	movzbl 0x204522(%rip),%ebx        # 6059d0 <completed.7585+0x688>
  4014ae:	8b 44 24 14          	mov    0x14(%rsp),%eax
  4014b2:	39 05 f8 44 20 00    	cmp    %eax,0x2044f8(%rip)        # 6059b0 <completed.7585+0x668>
  4014b8:	74 2b                	je     4014e5 <phase3+0x13d>
  4014ba:	e8 81 0a 00 00       	callq  401f40 <explode_bomb>
  4014bf:	eb 24                	jmp    4014e5 <phase3+0x13d>
  4014c1:	0f b6 1d 10 45 20 00 	movzbl 0x204510(%rip),%ebx        # 6059d8 <completed.7585+0x690>
  4014c8:	8b 44 24 14          	mov    0x14(%rsp),%eax
  4014cc:	39 05 e6 44 20 00    	cmp    %eax,0x2044e6(%rip)        # 6059b8 <completed.7585+0x670>
  4014d2:	74 11                	je     4014e5 <phase3+0x13d>
  4014d4:	e8 67 0a 00 00       	callq  401f40 <explode_bomb>
  4014d9:	eb 0a                	jmp    4014e5 <phase3+0x13d>
  4014db:	e8 60 0a 00 00       	callq  401f40 <explode_bomb>
  4014e0:	bb 66 00 00 00       	mov    $0x66,%ebx
  4014e5:	3a 5c 24 0f          	cmp    0xf(%rsp),%bl
  4014e9:	74 05                	je     4014f0 <phase3+0x148>
  4014eb:	e8 50 0a 00 00       	callq  401f40 <explode_bomb>
  4014f0:	48 8b 44 24 18       	mov    0x18(%rsp),%rax
  4014f5:	64 48 33 04 25 28 00 	xor    %fs:0x28,%rax
  4014fc:	00 00 
  4014fe:	74 05                	je     401505 <phase3+0x15d>
  401500:	e8 3b f8 ff ff       	callq  400d40 <__stack_chk_fail@plt>
  401505:	48 83 c4 20          	add    $0x20,%rsp
  401509:	5b                   	pop    %rbx
  40150a:	c3                   	retq   
  40150b:	41 55                	push   %r13
  40150d:	41 54                	push   %r12
  40150f:	41 bd 01 00 00 00    	mov    $0x1,%r13d
  401515:	55                   	push   %rbp
  401516:	53                   	push   %rbx
  401517:	41 bc a0 53 60 00    	mov    $0x6053a0,%r12d
  40151d:	31 ed                	xor    %ebp,%ebp
  40151f:	bb 21 05 34 83       	mov    $0x83340521,%ebx
  401524:	48 83 ec 08          	sub    $0x8,%rsp
  401528:	eb 23                	jmp    40154d <phase3+0x1a5>
  40152a:	89 e8                	mov    %ebp,%eax
  40152c:	d1 f8                	sar    %eax
  40152e:	41 83 fd 3f          	cmp    $0x3f,%r13d
  401532:	48 98                	cltq   
  401534:	48 8d 04 40          	lea    (%rax,%rax,2),%rax
  401538:	4c 89 24 c5 a8 53 60 	mov    %r12,0x6053a8(,%rax,8)
  40153f:	00 
  401540:	74 52                	je     401594 <phase3+0x1ec>
  401542:	83 c5 01             	add    $0x1,%ebp
  401545:	49 83 c4 18          	add    $0x18,%r12
  401549:	41 83 c5 01          	add    $0x1,%r13d
  40154d:	e8 6e f9 ff ff       	callq  400ec0 <rand@plt>
  401552:	89 c1                	mov    %eax,%ecx
  401554:	f7 eb                	imul   %ebx
  401556:	89 c8                	mov    %ecx,%eax
  401558:	c1 f8 1f             	sar    $0x1f,%eax
  40155b:	01 ca                	add    %ecx,%edx
  40155d:	c1 fa 09             	sar    $0x9,%edx
  401560:	29 c2                	sub    %eax,%edx
  401562:	69 d2 e7 03 00 00    	imul   $0x3e7,%edx,%edx
  401568:	29 d1                	sub    %edx,%ecx
  40156a:	83 c1 01             	add    $0x1,%ecx
  40156d:	40 f6 c5 01          	test   $0x1,%bpl
  401571:	41 89 0c 24          	mov    %ecx,(%r12)
  401575:	75 b3                	jne    40152a <phase3+0x182>
  401577:	85 ed                	test   %ebp,%ebp
  401579:	74 c7                	je     401542 <phase3+0x19a>
  40157b:	8d 45 ff             	lea    -0x1(%rbp),%eax
  40157e:	d1 f8                	sar    %eax
  401580:	41 83 fd 3f          	cmp    $0x3f,%r13d
  401584:	48 98                	cltq   
  401586:	48 8d 04 40          	lea    (%rax,%rax,2),%rax
  40158a:	4c 89 24 c5 b0 53 60 	mov    %r12,0x6053b0(,%rax,8)
  401591:	00 
  401592:	75 ae                	jne    401542 <phase3+0x19a>
  401594:	48 83 c4 08          	add    $0x8,%rsp
  401598:	5b                   	pop    %rbx
  401599:	5d                   	pop    %rbp
  40159a:	41 5c                	pop    %r12
  40159c:	41 5d                	pop    %r13
  40159e:	c3                   	retq   

000000000040159f <fun4>:
  40159f:	55                   	push   %rbp
  4015a0:	53                   	push   %rbx
  4015a1:	48 83 ec 08          	sub    $0x8,%rsp
  4015a5:	39 37                	cmp    %esi,(%rdi)
  4015a7:	75 0e                	jne    4015b7 <fun4+0x18>
  4015a9:	48 83 7f 08 00       	cmpq   $0x0,0x8(%rdi)
  4015ae:	75 07                	jne    4015b7 <fun4+0x18>
  4015b0:	48 83 7f 10 00       	cmpq   $0x0,0x10(%rdi)
  4015b5:	74 35                	je     4015ec <fun4+0x4d>
  4015b7:	89 f5                	mov    %esi,%ebp
  4015b9:	48 89 fb             	mov    %rdi,%rbx
  4015bc:	48 8b 7f 08          	mov    0x8(%rdi),%rdi
  4015c0:	48 85 ff             	test   %rdi,%rdi
  4015c3:	74 0d                	je     4015d2 <fun4+0x33>
  4015c5:	e8 d5 ff ff ff       	callq  40159f <fun4>
  4015ca:	85 c0                	test   %eax,%eax
  4015cc:	78 04                	js     4015d2 <fun4+0x33>
  4015ce:	01 c0                	add    %eax,%eax
  4015d0:	eb 2d                	jmp    4015ff <fun4+0x60>
  4015d2:	48 8b 7b 10          	mov    0x10(%rbx),%rdi
  4015d6:	48 85 ff             	test   %rdi,%rdi
  4015d9:	74 18                	je     4015f3 <fun4+0x54>
  4015db:	89 ee                	mov    %ebp,%esi
  4015dd:	e8 bd ff ff ff       	callq  40159f <fun4>
  4015e2:	85 c0                	test   %eax,%eax
  4015e4:	78 14                	js     4015fa <fun4+0x5b>
  4015e6:	8d 44 00 01          	lea    0x1(%rax,%rax,1),%eax
  4015ea:	eb 13                	jmp    4015ff <fun4+0x60>
  4015ec:	b8 00 00 00 00       	mov    $0x0,%eax
  4015f1:	eb 0c                	jmp    4015ff <fun4+0x60>
  4015f3:	b8 ff ff ff ff       	mov    $0xffffffff,%eax
  4015f8:	eb 05                	jmp    4015ff <fun4+0x60>
  4015fa:	b8 ff ff ff ff       	mov    $0xffffffff,%eax
  4015ff:	48 83 c4 08          	add    $0x8,%rsp
  401603:	5b                   	pop    %rbx
  401604:	5d                   	pop    %rbp
  401605:	c3                   	retq   

0000000000401606 <phase4>:
  401606:	48 83 ec 18          	sub    $0x18,%rsp
  40160a:	64 48 8b 04 25 28 00 	mov    %fs:0x28,%rax
  401611:	00 00 
  401613:	48 89 44 24 08       	mov    %rax,0x8(%rsp)
  401618:	31 c0                	xor    %eax,%eax
  40161a:	48 8d 4c 24 04       	lea    0x4(%rsp),%rcx
  40161f:	48 89 e2             	mov    %rsp,%rdx
  401622:	be 9c 3c 40 00       	mov    $0x403c9c,%esi
  401627:	e8 04 f8 ff ff       	callq  400e30 <__isoc99_sscanf@plt>
  40162c:	83 f8 01             	cmp    $0x1,%eax
  40162f:	7f 05                	jg     401636 <phase4+0x30>
  401631:	e8 0a 09 00 00       	callq  401f40 <explode_bomb>
  401636:	8b 34 24             	mov    (%rsp),%esi
  401639:	bf a0 53 60 00       	mov    $0x6053a0,%edi
  40163e:	e8 5c ff ff ff       	callq  40159f <fun4>
  401643:	3b 44 24 04          	cmp    0x4(%rsp),%eax
  401647:	74 05                	je     40164e <phase4+0x48>
  401649:	e8 f2 08 00 00       	callq  401f40 <explode_bomb>
  40164e:	48 8b 44 24 08       	mov    0x8(%rsp),%rax
  401653:	64 48 33 04 25 28 00 	xor    %fs:0x28,%rax
  40165a:	00 00 
  40165c:	74 05                	je     401663 <phase4+0x5d>
  40165e:	e8 dd f6 ff ff       	callq  400d40 <__stack_chk_fail@plt>
  401663:	48 83 c4 18          	add    $0x18,%rsp
  401667:	c3                   	retq   
  401668:	66 0f 6f 05 90 25 00 	movdqa 0x2590(%rip),%xmm0        # 403c00 <shortwords+0x880>
  40166f:	00 
  401670:	41 54                	push   %r12
  401672:	55                   	push   %rbp
  401673:	41 bc 4f ec c4 4e    	mov    $0x4ec4ec4f,%r12d
  401679:	0f 29 05 f0 3c 20 00 	movaps %xmm0,0x203cf0(%rip)        # 605370 <completed.7585+0x28>
  401680:	53                   	push   %rbx
  401681:	c6 05 f8 3c 20 00 71 	movb   $0x71,0x203cf8(%rip)        # 605380 <completed.7585+0x38>
  401688:	bd 64 00 00 00       	mov    $0x64,%ebp
  40168d:	c6 05 ed 3c 20 00 72 	movb   $0x72,0x203ced(%rip)        # 605381 <completed.7585+0x39>
  401694:	c6 05 e7 3c 20 00 73 	movb   $0x73,0x203ce7(%rip)        # 605382 <completed.7585+0x3a>
  40169b:	c6 05 e1 3c 20 00 74 	movb   $0x74,0x203ce1(%rip)        # 605383 <completed.7585+0x3b>
  4016a2:	c6 05 db 3c 20 00 75 	movb   $0x75,0x203cdb(%rip)        # 605384 <completed.7585+0x3c>
  4016a9:	c6 05 d5 3c 20 00 76 	movb   $0x76,0x203cd5(%rip)        # 605385 <completed.7585+0x3d>
  4016b0:	c6 05 cf 3c 20 00 77 	movb   $0x77,0x203ccf(%rip)        # 605386 <completed.7585+0x3e>
  4016b7:	c6 05 c9 3c 20 00 78 	movb   $0x78,0x203cc9(%rip)        # 605387 <completed.7585+0x3f>
  4016be:	c6 05 c3 3c 20 00 79 	movb   $0x79,0x203cc3(%rip)        # 605388 <completed.7585+0x40>
  4016c5:	c6 05 bd 3c 20 00 7a 	movb   $0x7a,0x203cbd(%rip)        # 605389 <completed.7585+0x41>
  4016cc:	e8 ef f7 ff ff       	callq  400ec0 <rand@plt>
  4016d1:	89 c1                	mov    %eax,%ecx
  4016d3:	41 f7 ec             	imul   %r12d
  4016d6:	89 c8                	mov    %ecx,%eax
  4016d8:	c1 f8 1f             	sar    $0x1f,%eax
  4016db:	c1 fa 03             	sar    $0x3,%edx
  4016de:	89 d3                	mov    %edx,%ebx
  4016e0:	29 c3                	sub    %eax,%ebx
  4016e2:	6b db 1a             	imul   $0x1a,%ebx,%ebx
  4016e5:	29 d9                	sub    %ebx,%ecx
  4016e7:	48 63 d9             	movslq %ecx,%rbx
  4016ea:	e8 d1 f7 ff ff       	callq  400ec0 <rand@plt>
  4016ef:	89 c1                	mov    %eax,%ecx
  4016f1:	41 f7 ec             	imul   %r12d
  4016f4:	89 c8                	mov    %ecx,%eax
  4016f6:	c1 f8 1f             	sar    $0x1f,%eax
  4016f9:	c1 fa 03             	sar    $0x3,%edx
  4016fc:	29 c2                	sub    %eax,%edx
  4016fe:	6b d2 1a             	imul   $0x1a,%edx,%edx
  401701:	29 d1                	sub    %edx,%ecx
  401703:	83 ed 01             	sub    $0x1,%ebp
  401706:	48 63 d1             	movslq %ecx,%rdx
  401709:	0f b6 8b 70 53 60 00 	movzbl 0x605370(%rbx),%ecx
  401710:	0f b6 82 70 53 60 00 	movzbl 0x605370(%rdx),%eax
  401717:	88 8a 70 53 60 00    	mov    %cl,0x605370(%rdx)
  40171d:	88 83 70 53 60 00    	mov    %al,0x605370(%rbx)
  401723:	75 a7                	jne    4016cc <phase4+0xc6>
  401725:	e8 96 f7 ff ff       	callq  400ec0 <rand@plt>
  40172a:	ba 4f ec c4 4e       	mov    $0x4ec4ec4f,%edx
  40172f:	89 c1                	mov    %eax,%ecx
  401731:	bf 68 53 60 00       	mov    $0x605368,%edi
  401736:	f7 ea                	imul   %edx
  401738:	89 c8                	mov    %ecx,%eax
  40173a:	c1 f8 1f             	sar    $0x1f,%eax
  40173d:	5b                   	pop    %rbx
  40173e:	c1 fa 03             	sar    $0x3,%edx
  401741:	29 c2                	sub    %eax,%edx
  401743:	6b c2 1a             	imul   $0x1a,%edx,%eax
  401746:	ba 08 00 00 00       	mov    $0x8,%edx
  40174b:	5d                   	pop    %rbp
  40174c:	41 5c                	pop    %r12
  40174e:	29 c1                	sub    %eax,%ecx
  401750:	48 63 c1             	movslq %ecx,%rax
  401753:	48 8b 34 c5 80 33 40 	mov    0x403380(,%rax,8),%rsi
  40175a:	00 
  40175b:	e9 e0 f6 ff ff       	jmpq   400e40 <__strcpy_chk@plt>

0000000000401760 <phase5>:
  401760:	41 54                	push   %r12
  401762:	55                   	push   %rbp
  401763:	53                   	push   %rbx
  401764:	48 83 ec 10          	sub    $0x10,%rsp
  401768:	49 89 fc             	mov    %rdi,%r12
  40176b:	64 48 8b 04 25 28 00 	mov    %fs:0x28,%rax
  401772:	00 00 
  401774:	48 89 44 24 08       	mov    %rax,0x8(%rsp)
  401779:	31 c0                	xor    %eax,%eax
  40177b:	c6 44 24 06 00       	movb   $0x0,0x6(%rsp)
  401780:	e8 28 fa ff ff       	callq  4011ad <string_length>
  401785:	83 f8 06             	cmp    $0x6,%eax
  401788:	74 05                	je     40178f <phase5+0x2f>
  40178a:	e8 b1 07 00 00       	callq  401f40 <explode_bomb>
  40178f:	bb 00 00 00 00       	mov    $0x0,%ebx
  401794:	eb 2f                	jmp    4017c5 <phase5+0x65>
  401796:	48 63 eb             	movslq %ebx,%rbp
  401799:	4c 01 e5             	add    %r12,%rbp
  40179c:	0f b6 45 00          	movzbl 0x0(%rbp),%eax
  4017a0:	83 e8 61             	sub    $0x61,%eax
  4017a3:	3c 19                	cmp    $0x19,%al
  4017a5:	76 05                	jbe    4017ac <phase5+0x4c>
  4017a7:	e8 94 07 00 00       	callq  401f40 <explode_bomb>
  4017ac:	0f be 45 00          	movsbl 0x0(%rbp),%eax
  4017b0:	83 e8 61             	sub    $0x61,%eax
  4017b3:	48 98                	cltq   
  4017b5:	0f b6 90 70 53 60 00 	movzbl 0x605370(%rax),%edx
  4017bc:	48 63 c3             	movslq %ebx,%rax
  4017bf:	88 14 04             	mov    %dl,(%rsp,%rax,1)
  4017c2:	83 c3 01             	add    $0x1,%ebx
  4017c5:	83 fb 05             	cmp    $0x5,%ebx
  4017c8:	7e cc                	jle    401796 <phase5+0x36>
  4017ca:	be 68 53 60 00       	mov    $0x605368,%esi
  4017cf:	48 89 e7             	mov    %rsp,%rdi
  4017d2:	e8 eb f9 ff ff       	callq  4011c2 <strings_not_equal>
  4017d7:	85 c0                	test   %eax,%eax
  4017d9:	74 05                	je     4017e0 <phase5+0x80>
  4017db:	e8 60 07 00 00       	callq  401f40 <explode_bomb>
  4017e0:	48 8b 44 24 08       	mov    0x8(%rsp),%rax
  4017e5:	64 48 33 04 25 28 00 	xor    %fs:0x28,%rax
  4017ec:	00 00 
  4017ee:	74 05                	je     4017f5 <phase5+0x95>
  4017f0:	e8 4b f5 ff ff       	callq  400d40 <__stack_chk_fail@plt>
  4017f5:	48 83 c4 10          	add    $0x10,%rsp
  4017f9:	5b                   	pop    %rbx
  4017fa:	5d                   	pop    %rbp
  4017fb:	41 5c                	pop    %r12
  4017fd:	c3                   	retq   
  4017fe:	48 83 ec 08          	sub    $0x8,%rsp
  401802:	e8 b9 f6 ff ff       	callq  400ec0 <rand@plt>
  401807:	25 ff ff 00 00       	and    $0xffff,%eax
  40180c:	89 05 4e 39 20 00    	mov    %eax,0x20394e(%rip)        # 605160 <__dso_handle+0x18>
  401812:	e8 a9 f6 ff ff       	callq  400ec0 <rand@plt>
  401817:	25 ff ff 00 00       	and    $0xffff,%eax
  40181c:	89 05 4e 39 20 00    	mov    %eax,0x20394e(%rip)        # 605170 <__dso_handle+0x28>
  401822:	e8 99 f6 ff ff       	callq  400ec0 <rand@plt>
  401827:	25 ff ff 00 00       	and    $0xffff,%eax
  40182c:	89 05 4e 39 20 00    	mov    %eax,0x20394e(%rip)        # 605180 <__dso_handle+0x38>
  401832:	e8 89 f6 ff ff       	callq  400ec0 <rand@plt>
  401837:	25 ff ff 00 00       	and    $0xffff,%eax
  40183c:	89 05 4e 39 20 00    	mov    %eax,0x20394e(%rip)        # 605190 <__dso_handle+0x48>
  401842:	e8 79 f6 ff ff       	callq  400ec0 <rand@plt>
  401847:	25 ff ff 00 00       	and    $0xffff,%eax
  40184c:	89 05 4e 39 20 00    	mov    %eax,0x20394e(%rip)        # 6051a0 <__dso_handle+0x58>
  401852:	e8 69 f6 ff ff       	callq  400ec0 <rand@plt>
  401857:	25 ff ff 00 00       	and    $0xffff,%eax
  40185c:	89 05 4e 39 20 00    	mov    %eax,0x20394e(%rip)        # 6051b0 <__dso_handle+0x68>
  401862:	48 83 c4 08          	add    $0x8,%rsp
  401866:	c3                   	retq   

0000000000401867 <phase6>:
  401867:	41 54                	push   %r12
  401869:	55                   	push   %rbp
  40186a:	53                   	push   %rbx
  40186b:	48 83 ec 60          	sub    $0x60,%rsp
  40186f:	64 48 8b 04 25 28 00 	mov    %fs:0x28,%rax
  401876:	00 00 
  401878:	48 89 44 24 58       	mov    %rax,0x58(%rsp)
  40187d:	31 c0                	xor    %eax,%eax
  40187f:	48 89 e6             	mov    %rsp,%rsi
  401882:	e8 f9 06 00 00       	callq  401f80 <read_six_numbers>
  401887:	bd 00 00 00 00       	mov    $0x0,%ebp
  40188c:	eb 3a                	jmp    4018c8 <phase6+0x61>
  40188e:	48 63 c5             	movslq %ebp,%rax
  401891:	8b 04 84             	mov    (%rsp,%rax,4),%eax
  401894:	83 e8 01             	sub    $0x1,%eax
  401897:	83 f8 05             	cmp    $0x5,%eax
  40189a:	76 05                	jbe    4018a1 <phase6+0x3a>
  40189c:	e8 9f 06 00 00       	callq  401f40 <explode_bomb>
  4018a1:	44 8d 65 01          	lea    0x1(%rbp),%r12d
  4018a5:	44 89 e3             	mov    %r12d,%ebx
  4018a8:	eb 16                	jmp    4018c0 <phase6+0x59>
  4018aa:	48 63 c5             	movslq %ebp,%rax
  4018ad:	48 63 d3             	movslq %ebx,%rdx
  4018b0:	8b 3c 94             	mov    (%rsp,%rdx,4),%edi
  4018b3:	39 3c 84             	cmp    %edi,(%rsp,%rax,4)
  4018b6:	75 05                	jne    4018bd <phase6+0x56>
  4018b8:	e8 83 06 00 00       	callq  401f40 <explode_bomb>
  4018bd:	83 c3 01             	add    $0x1,%ebx
  4018c0:	83 fb 05             	cmp    $0x5,%ebx
  4018c3:	7e e5                	jle    4018aa <phase6+0x43>
  4018c5:	44 89 e5             	mov    %r12d,%ebp
  4018c8:	83 fd 05             	cmp    $0x5,%ebp
  4018cb:	7e c1                	jle    40188e <phase6+0x27>
  4018cd:	be 00 00 00 00       	mov    $0x0,%esi
  4018d2:	eb 23                	jmp    4018f7 <phase6+0x90>
  4018d4:	48 8b 52 08          	mov    0x8(%rdx),%rdx
  4018d8:	83 c0 01             	add    $0x1,%eax
  4018db:	eb 0a                	jmp    4018e7 <phase6+0x80>
  4018dd:	b8 01 00 00 00       	mov    $0x1,%eax
  4018e2:	ba 60 51 60 00       	mov    $0x605160,%edx
  4018e7:	48 63 ce             	movslq %esi,%rcx
  4018ea:	3b 04 8c             	cmp    (%rsp,%rcx,4),%eax
  4018ed:	7c e5                	jl     4018d4 <phase6+0x6d>
  4018ef:	48 89 54 cc 20       	mov    %rdx,0x20(%rsp,%rcx,8)
  4018f4:	83 c6 01             	add    $0x1,%esi
  4018f7:	83 fe 05             	cmp    $0x5,%esi
  4018fa:	7e e1                	jle    4018dd <phase6+0x76>
  4018fc:	48 8b 5c 24 20       	mov    0x20(%rsp),%rbx
  401901:	48 89 d9             	mov    %rbx,%rcx
  401904:	b8 01 00 00 00       	mov    $0x1,%eax
  401909:	eb 12                	jmp    40191d <phase6+0xb6>
  40190b:	48 63 d0             	movslq %eax,%rdx
  40190e:	48 8b 54 d4 20       	mov    0x20(%rsp,%rdx,8),%rdx
  401913:	48 89 51 08          	mov    %rdx,0x8(%rcx)
  401917:	83 c0 01             	add    $0x1,%eax
  40191a:	48 89 d1             	mov    %rdx,%rcx
  40191d:	83 f8 05             	cmp    $0x5,%eax
  401920:	7e e9                	jle    40190b <phase6+0xa4>
  401922:	48 c7 41 08 00 00 00 	movq   $0x0,0x8(%rcx)
  401929:	00 
  40192a:	bd 00 00 00 00       	mov    $0x0,%ebp
  40192f:	eb 16                	jmp    401947 <phase6+0xe0>
  401931:	48 8b 43 08          	mov    0x8(%rbx),%rax
  401935:	8b 00                	mov    (%rax),%eax
  401937:	39 03                	cmp    %eax,(%rbx)
  401939:	7d 05                	jge    401940 <phase6+0xd9>
  40193b:	e8 00 06 00 00       	callq  401f40 <explode_bomb>
  401940:	48 8b 5b 08          	mov    0x8(%rbx),%rbx
  401944:	83 c5 01             	add    $0x1,%ebp
  401947:	83 fd 04             	cmp    $0x4,%ebp
  40194a:	7e e5                	jle    401931 <phase6+0xca>
  40194c:	48 8b 44 24 58       	mov    0x58(%rsp),%rax
  401951:	64 48 33 04 25 28 00 	xor    %fs:0x28,%rax
  401958:	00 00 
  40195a:	74 05                	je     401961 <phase6+0xfa>
  40195c:	e8 df f3 ff ff       	callq  400d40 <__stack_chk_fail@plt>
  401961:	48 83 c4 60          	add    $0x60,%rsp
  401965:	5b                   	pop    %rbx
  401966:	5d                   	pop    %rbp
  401967:	41 5c                	pop    %r12
  401969:	c3                   	retq   
  40196a:	48 83 ec 08          	sub    $0x8,%rsp
  40196e:	e8 4d f5 ff ff       	callq  400ec0 <rand@plt>
  401973:	ba 5b f0 8d 21       	mov    $0x218df05b,%edx
  401978:	89 c1                	mov    %eax,%ecx
  40197a:	f7 ea                	imul   %edx
  40197c:	89 c8                	mov    %ecx,%eax
  40197e:	c1 f8 1f             	sar    $0x1f,%eax
  401981:	c1 fa 12             	sar    $0x12,%edx
  401984:	29 c2                	sub    %eax,%edx
  401986:	69 d2 7f 84 1e 00    	imul   $0x1e847f,%edx,%edx
  40198c:	29 d1                	sub    %edx,%ecx
  40198e:	81 e9 3f 42 0f 00    	sub    $0xf423f,%ecx
  401994:	89 0d c6 39 20 00    	mov    %ecx,0x2039c6(%rip)        # 605360 <completed.7585+0x18>
  40199a:	48 83 c4 08          	add    $0x8,%rsp
  40199e:	c3                   	retq   

000000000040199f <secret_phase>:
  40199f:	53                   	push   %rbx
  4019a0:	48 83 ec 20          	sub    $0x20,%rsp
  4019a4:	64 48 8b 04 25 28 00 	mov    %fs:0x28,%rax
  4019ab:	00 00 
  4019ad:	48 89 44 24 18       	mov    %rax,0x18(%rsp)
  4019b2:	31 c0                	xor    %eax,%eax
  4019b4:	e8 17 07 00 00       	callq  4020d0 <read_line>
  4019b9:	ba 00 00 00 00       	mov    $0x0,%edx
  4019be:	be 00 00 00 00       	mov    $0x0,%esi
  4019c3:	48 89 c7             	mov    %rax,%rdi
  4019c6:	e8 a5 f4 ff ff       	callq  400e70 <strtoul@plt>
  4019cb:	89 44 24 10          	mov    %eax,0x10(%rsp)
  4019cf:	89 c7                	mov    %eax,%edi
  4019d1:	81 e7 00 00 80 7f    	and    $0x7f800000,%edi
  4019d7:	c1 ef 17             	shr    $0x17,%edi
  4019da:	89 c6                	mov    %eax,%esi
  4019dc:	81 e6 ff ff 7f 00    	and    $0x7fffff,%esi
  4019e2:	c1 f8 1f             	sar    $0x1f,%eax
  4019e5:	83 ff 7e             	cmp    $0x7e,%edi
  4019e8:	76 07                	jbe    4019f1 <secret_phase+0x52>
  4019ea:	ba ff ff ff ff       	mov    $0xffffffff,%edx
  4019ef:	eb 05                	jmp    4019f6 <secret_phase+0x57>
  4019f1:	ba 00 00 00 00       	mov    $0x0,%edx
  4019f6:	81 ce 00 00 80 00    	or     $0x800000,%esi
  4019fc:	b9 96 00 00 00       	mov    $0x96,%ecx
  401a01:	29 f9                	sub    %edi,%ecx
  401a03:	d3 ee                	shr    %cl,%esi
  401a05:	21 f2                	and    %esi,%edx
  401a07:	89 d3                	mov    %edx,%ebx
  401a09:	f7 db                	neg    %ebx
  401a0b:	31 d3                	xor    %edx,%ebx
  401a0d:	21 d8                	and    %ebx,%eax
  401a0f:	31 d0                	xor    %edx,%eax
  401a11:	89 c3                	mov    %eax,%ebx
  401a13:	3b 05 47 39 20 00    	cmp    0x203947(%rip),%eax        # 605360 <completed.7585+0x18>
  401a19:	74 05                	je     401a20 <secret_phase+0x81>
  401a1b:	e8 20 05 00 00       	callq  401f40 <explode_bomb>
  401a20:	89 5c 24 0c          	mov    %ebx,0xc(%rsp)
  401a24:	db 44 24 0c          	fildl  0xc(%rsp)
  401a28:	d9 5c 24 14          	fstps  0x14(%rsp)
  401a2c:	ba 04 00 00 00       	mov    $0x4,%edx
  401a31:	48 8d 74 24 10       	lea    0x10(%rsp),%rsi
  401a36:	48 8d 7c 24 14       	lea    0x14(%rsp),%rdi
  401a3b:	e8 70 f3 ff ff       	callq  400db0 <memcmp@plt>
  401a40:	85 c0                	test   %eax,%eax
  401a42:	74 05                	je     401a49 <secret_phase+0xaa>
  401a44:	e8 f7 04 00 00       	callq  401f40 <explode_bomb>
  401a49:	48 8b 44 24 18       	mov    0x18(%rsp),%rax
  401a4e:	64 48 33 04 25 28 00 	xor    %fs:0x28,%rax
  401a55:	00 00 
  401a57:	74 05                	je     401a5e <secret_phase+0xbf>
  401a59:	e8 e2 f2 ff ff       	callq  400d40 <__stack_chk_fail@plt>
  401a5e:	48 83 c4 20          	add    $0x20,%rsp
  401a62:	5b                   	pop    %rbx
  401a63:	c3                   	retq   
  401a64:	66 2e 0f 1f 84 00 00 	nopw   %cs:0x0(%rax,%rax,1)
  401a6b:	00 00 00 
  401a6e:	66 90                	xchg   %ax,%ax

0000000000401a70 <test_secret_phrase>:
  401a70:	89 f8                	mov    %edi,%eax
  401a72:	83 e0 fb             	and    $0xfffffffb,%eax
  401a75:	83 f8 01             	cmp    $0x1,%eax
  401a78:	0f 84 4a 01 00 00    	je     401bc8 <test_secret_phrase+0x158>
  401a7e:	41 55                	push   %r13
  401a80:	41 54                	push   %r12
  401a82:	55                   	push   %rbp
  401a83:	53                   	push   %rbx
  401a84:	8d 5f ff             	lea    -0x1(%rdi),%ebx
  401a87:	48 83 ec 08          	sub    $0x8,%rsp
  401a8b:	83 fb 06             	cmp    $0x6,%ebx
  401a8e:	74 71                	je     401b01 <test_secret_phrase+0x91>
  401a90:	83 ef 03             	sub    $0x3,%edi
  401a93:	83 ff 01             	cmp    $0x1,%edi
  401a96:	0f 86 e4 00 00 00    	jbe    401b80 <test_secret_phrase+0x110>
  401a9c:	48 63 db             	movslq %ebx,%rbx
  401a9f:	48 8d 04 9b          	lea    (%rbx,%rbx,4),%rax
  401aa3:	48 8d 04 80          	lea    (%rax,%rax,4),%rax
  401aa7:	48 8d 2c 85 a0 5a 60 	lea    0x605aa0(,%rax,4),%rbp
  401aae:	00 
  401aaf:	48 89 ef             	mov    %rbp,%rdi
  401ab2:	e8 79 f2 ff ff       	callq  400d30 <strlen@plt>
  401ab7:	48 8d 78 04          	lea    0x4(%rax),%rdi
  401abb:	48 89 c3             	mov    %rax,%rbx
  401abe:	e8 4d f3 ff ff       	callq  400e10 <malloc@plt>
  401ac3:	48 8d 53 01          	lea    0x1(%rbx),%rdx
  401ac7:	48 89 ee             	mov    %rbp,%rsi
  401aca:	48 89 c7             	mov    %rax,%rdi
  401acd:	bd 06 00 00 00       	mov    $0x6,%ebp
  401ad2:	49 89 c4             	mov    %rax,%r12
  401ad5:	e8 26 f3 ff ff       	callq  400e00 <memcpy@plt>
  401ada:	4c 89 e3             	mov    %r12,%rbx
  401add:	eb 10                	jmp    401aef <test_secret_phrase+0x7f>
  401adf:	90                   	nop
  401ae0:	83 ed 01             	sub    $0x1,%ebp
  401ae3:	48 8d 58 01          	lea    0x1(%rax),%rbx
  401ae7:	8d 45 01             	lea    0x1(%rbp),%eax
  401aea:	83 f8 01             	cmp    $0x1,%eax
  401aed:	7e 21                	jle    401b10 <test_secret_phrase+0xa0>
  401aef:	be 20 00 00 00       	mov    $0x20,%esi
  401af4:	48 89 df             	mov    %rbx,%rdi
  401af7:	e8 54 f2 ff ff       	callq  400d50 <strchr@plt>
  401afc:	48 85 c0             	test   %rax,%rax
  401aff:	75 df                	jne    401ae0 <test_secret_phrase+0x70>
  401b01:	31 c0                	xor    %eax,%eax
  401b03:	48 83 c4 08          	add    $0x8,%rsp
  401b07:	5b                   	pop    %rbx
  401b08:	5d                   	pop    %rbp
  401b09:	41 5c                	pop    %r12
  401b0b:	41 5d                	pop    %r13
  401b0d:	c3                   	retq   
  401b0e:	66 90                	xchg   %ax,%ax
  401b10:	be 20 00 00 00       	mov    $0x20,%esi
  401b15:	48 89 df             	mov    %rbx,%rdi
  401b18:	e8 33 f2 ff ff       	callq  400d50 <strchr@plt>
  401b1d:	48 85 c0             	test   %rax,%rax
  401b20:	74 03                	je     401b25 <test_secret_phrase+0xb5>
  401b22:	c6 00 00             	movb   $0x0,(%rax)
  401b25:	48 89 df             	mov    %rbx,%rdi
  401b28:	e8 03 f2 ff ff       	callq  400d30 <strlen@plt>
  401b2d:	48 8d 78 04          	lea    0x4(%rax),%rdi
  401b31:	48 89 c5             	mov    %rax,%rbp
  401b34:	e8 d7 f2 ff ff       	callq  400e10 <malloc@plt>
  401b39:	48 8d 55 01          	lea    0x1(%rbp),%rdx
  401b3d:	48 89 de             	mov    %rbx,%rsi
  401b40:	48 89 c7             	mov    %rax,%rdi
  401b43:	49 89 c5             	mov    %rax,%r13
  401b46:	e8 b5 f2 ff ff       	callq  400e00 <memcpy@plt>
  401b4b:	4c 89 e7             	mov    %r12,%rdi
  401b4e:	e8 8d f1 ff ff       	callq  400ce0 <free@plt>
  401b53:	4c 89 ef             	mov    %r13,%rdi
  401b56:	be 10 3c 40 00       	mov    $0x403c10,%esi
  401b5b:	e8 62 f6 ff ff       	callq  4011c2 <strings_not_equal>
  401b60:	85 c0                	test   %eax,%eax
  401b62:	4c 89 ef             	mov    %r13,%rdi
  401b65:	75 64                	jne    401bcb <test_secret_phrase+0x15b>
  401b67:	e8 74 f1 ff ff       	callq  400ce0 <free@plt>
  401b6c:	48 83 c4 08          	add    $0x8,%rsp
  401b70:	b8 01 00 00 00       	mov    $0x1,%eax
  401b75:	5b                   	pop    %rbx
  401b76:	5d                   	pop    %rbp
  401b77:	41 5c                	pop    %r12
  401b79:	41 5d                	pop    %r13
  401b7b:	c3                   	retq   
  401b7c:	0f 1f 40 00          	nopl   0x0(%rax)
  401b80:	48 63 c3             	movslq %ebx,%rax
  401b83:	48 8d 04 80          	lea    (%rax,%rax,4),%rax
  401b87:	48 8d 04 80          	lea    (%rax,%rax,4),%rax
  401b8b:	4c 8d 2c 85 a0 5a 60 	lea    0x605aa0(,%rax,4),%r13
  401b92:	00 
  401b93:	4c 89 ef             	mov    %r13,%rdi
  401b96:	e8 95 f1 ff ff       	callq  400d30 <strlen@plt>
  401b9b:	48 8d 78 04          	lea    0x4(%rax),%rdi
  401b9f:	48 89 c5             	mov    %rax,%rbp
  401ba2:	e8 69 f2 ff ff       	callq  400e10 <malloc@plt>
  401ba7:	48 8d 55 01          	lea    0x1(%rbp),%rdx
  401bab:	4c 89 ee             	mov    %r13,%rsi
  401bae:	48 89 c7             	mov    %rax,%rdi
  401bb1:	bd 05 00 00 00       	mov    $0x5,%ebp
  401bb6:	49 89 c4             	mov    %rax,%r12
  401bb9:	29 dd                	sub    %ebx,%ebp
  401bbb:	e8 40 f2 ff ff       	callq  400e00 <memcpy@plt>
  401bc0:	e9 15 ff ff ff       	jmpq   401ada <test_secret_phrase+0x6a>
  401bc5:	0f 1f 00             	nopl   (%rax)
  401bc8:	31 c0                	xor    %eax,%eax
  401bca:	c3                   	retq   
  401bcb:	e8 10 f1 ff ff       	callq  400ce0 <free@plt>
  401bd0:	b8 ff ff ff ff       	mov    $0xffffffff,%eax
  401bd5:	e9 29 ff ff ff       	jmpq   401b03 <test_secret_phrase+0x93>
  401bda:	66 0f 1f 44 00 00    	nopw   0x0(%rax,%rax,1)

0000000000401be0 <invalid_phase>:
  401be0:	48 89 fa             	mov    %rdi,%rdx
  401be3:	48 83 ec 08          	sub    $0x8,%rsp
  401be7:	bf 01 00 00 00       	mov    $0x1,%edi
  401bec:	be 28 3c 40 00       	mov    $0x403c28,%esi
  401bf1:	31 c0                	xor    %eax,%eax
  401bf3:	e8 58 f2 ff ff       	callq  400e50 <__printf_chk@plt>
  401bf8:	bf 08 00 00 00       	mov    $0x8,%edi
  401bfd:	e8 7e f2 ff ff       	callq  400e80 <exit@plt>
  401c02:	0f 1f 40 00          	nopl   0x0(%rax)
  401c06:	66 2e 0f 1f 84 00 00 	nopw   %cs:0x0(%rax,%rax,1)
  401c0d:	00 00 00 
  401c10:	55                   	push   %rbp
  401c11:	53                   	push   %rbx
  401c12:	be 60 20 40 00       	mov    $0x402060,%esi
  401c17:	bf 02 00 00 00       	mov    $0x2,%edi
  401c1c:	48 81 ec 18 20 00 00 	sub    $0x2018,%rsp
  401c23:	64 48 8b 04 25 28 00 	mov    %fs:0x28,%rax
  401c2a:	00 00 
  401c2c:	48 89 84 24 08 20 00 	mov    %rax,0x2008(%rsp)
  401c33:	00 
  401c34:	31 c0                	xor    %eax,%eax
  401c36:	e8 95 f1 ff ff       	callq  400dd0 <signal@plt>
  401c3b:	be 60 20 40 00       	mov    $0x402060,%esi
  401c40:	bf 09 00 00 00       	mov    $0x9,%edi
  401c45:	e8 86 f1 ff ff       	callq  400dd0 <signal@plt>
  401c4a:	be d0 1f 40 00       	mov    $0x401fd0,%esi
  401c4f:	bf 0a 00 00 00       	mov    $0xa,%edi
  401c54:	e8 77 f1 ff ff       	callq  400dd0 <signal@plt>
  401c59:	be c0 1f 40 00       	mov    $0x401fc0,%esi
  401c5e:	bf 0b 00 00 00       	mov    $0xb,%edi
  401c63:	e8 68 f1 ff ff       	callq  400dd0 <signal@plt>
  401c68:	be c0 1f 40 00       	mov    $0x401fc0,%esi
  401c6d:	bf 04 00 00 00       	mov    $0x4,%edi
  401c72:	e8 59 f1 ff ff       	callq  400dd0 <signal@plt>
  401c77:	48 89 e7             	mov    %rsp,%rdi
  401c7a:	e8 91 11 00 00       	callq  402e10 <init_driver>
  401c7f:	85 c0                	test   %eax,%eax
  401c81:	0f 88 d1 00 00 00    	js     401d58 <invalid_phase+0x178>
  401c87:	bf f8 52 60 00       	mov    $0x6052f8,%edi
  401c8c:	e8 9f f0 ff ff       	callq  400d30 <strlen@plt>
  401c91:	bf e0 52 60 00       	mov    $0x6052e0,%edi
  401c96:	48 89 c5             	mov    %rax,%rbp
  401c99:	89 c3                	mov    %eax,%ebx
  401c9b:	e8 90 f0 ff ff       	callq  400d30 <strlen@plt>
  401ca0:	85 ed                	test   %ebp,%ebp
  401ca2:	41 89 c0             	mov    %eax,%r8d
  401ca5:	0f 8e a1 00 00 00    	jle    401d4c <invalid_phase+0x16c>
  401cab:	31 d2                	xor    %edx,%edx
  401cad:	be 05 15 00 00       	mov    $0x1505,%esi
  401cb2:	66 0f 1f 44 00 00    	nopw   0x0(%rax,%rax,1)
  401cb8:	0f be 8a f8 52 60 00 	movsbl 0x6052f8(%rdx),%ecx
  401cbf:	89 f7                	mov    %esi,%edi
  401cc1:	48 83 c2 01          	add    $0x1,%rdx
  401cc5:	c1 e7 05             	shl    $0x5,%edi
  401cc8:	01 f9                	add    %edi,%ecx
  401cca:	01 ce                	add    %ecx,%esi
  401ccc:	39 d3                	cmp    %edx,%ebx
  401cce:	7f e8                	jg     401cb8 <invalid_phase+0xd8>
  401cd0:	8d 3c f6             	lea    (%rsi,%rsi,8),%edi
  401cd3:	85 c0                	test   %eax,%eax
  401cd5:	7e 22                	jle    401cf9 <invalid_phase+0x119>
  401cd7:	31 c0                	xor    %eax,%eax
  401cd9:	0f 1f 80 00 00 00 00 	nopl   0x0(%rax)
  401ce0:	0f be 90 e0 52 60 00 	movsbl 0x6052e0(%rax),%edx
  401ce7:	89 f9                	mov    %edi,%ecx
  401ce9:	48 83 c0 01          	add    $0x1,%rax
  401ced:	c1 e1 05             	shl    $0x5,%ecx
  401cf0:	01 ca                	add    %ecx,%edx
  401cf2:	01 d7                	add    %edx,%edi
  401cf4:	41 39 c0             	cmp    %eax,%r8d
  401cf7:	7f e7                	jg     401ce0 <invalid_phase+0x100>
  401cf9:	e8 a2 f0 ff ff       	callq  400da0 <srand@plt>
  401cfe:	31 c0                	xor    %eax,%eax
  401d00:	e8 0a f5 ff ff       	callq  40120f <strings_not_equal+0x4d>
  401d05:	31 c0                	xor    %eax,%eax
  401d07:	e8 62 f5 ff ff       	callq  40126e <phase1+0x1c>
  401d0c:	31 c0                	xor    %eax,%eax
  401d0e:	e8 1f f6 ff ff       	callq  401332 <phase2+0x73>
  401d13:	31 c0                	xor    %eax,%eax
  401d15:	e8 f1 f7 ff ff       	callq  40150b <phase3+0x163>
  401d1a:	31 c0                	xor    %eax,%eax
  401d1c:	e8 47 f9 ff ff       	callq  401668 <phase4+0x62>
  401d21:	31 c0                	xor    %eax,%eax
  401d23:	e8 d6 fa ff ff       	callq  4017fe <phase5+0x9e>
  401d28:	31 c0                	xor    %eax,%eax
  401d2a:	e8 3b fc ff ff       	callq  40196a <phase6+0x103>
  401d2f:	48 8b 84 24 08 20 00 	mov    0x2008(%rsp),%rax
  401d36:	00 
  401d37:	64 48 33 04 25 28 00 	xor    %fs:0x28,%rax
  401d3e:	00 00 
  401d40:	75 11                	jne    401d53 <invalid_phase+0x173>
  401d42:	48 81 c4 18 20 00 00 	add    $0x2018,%rsp
  401d49:	5b                   	pop    %rbx
  401d4a:	5d                   	pop    %rbp
  401d4b:	c3                   	retq   
  401d4c:	bf 2d bd 00 00       	mov    $0xbd2d,%edi
  401d51:	eb 80                	jmp    401cd3 <invalid_phase+0xf3>
  401d53:	e8 e8 ef ff ff       	callq  400d40 <__stack_chk_fail@plt>
  401d58:	bf 01 00 00 00       	mov    $0x1,%edi
  401d5d:	48 89 e2             	mov    %rsp,%rdx
  401d60:	be 39 3c 40 00       	mov    $0x403c39,%esi
  401d65:	31 c0                	xor    %eax,%eax
  401d67:	e8 e4 f0 ff ff       	callq  400e50 <__printf_chk@plt>
  401d6c:	bf 08 00 00 00       	mov    $0x8,%edi
  401d71:	e8 0a f1 ff ff       	callq  400e80 <exit@plt>
  401d76:	66 2e 0f 1f 84 00 00 	nopw   %cs:0x0(%rax,%rax,1)
  401d7d:	00 00 00 
  401d80:	55                   	push   %rbp
  401d81:	53                   	push   %rbx
  401d82:	bf f8 52 60 00       	mov    $0x6052f8,%edi
  401d87:	48 83 ec 08          	sub    $0x8,%rsp
  401d8b:	e8 a0 ef ff ff       	callq  400d30 <strlen@plt>
  401d90:	bf e0 52 60 00       	mov    $0x6052e0,%edi
  401d95:	48 89 c5             	mov    %rax,%rbp
  401d98:	89 c3                	mov    %eax,%ebx
  401d9a:	e8 91 ef ff ff       	callq  400d30 <strlen@plt>
  401d9f:	85 ed                	test   %ebp,%ebp
  401da1:	41 89 c0             	mov    %eax,%r8d
  401da4:	0f 8e 8b 00 00 00    	jle    401e35 <invalid_phase+0x255>
  401daa:	31 d2                	xor    %edx,%edx
  401dac:	be 05 15 00 00       	mov    $0x1505,%esi
  401db1:	0f 1f 80 00 00 00 00 	nopl   0x0(%rax)
  401db8:	0f be 8a f8 52 60 00 	movsbl 0x6052f8(%rdx),%ecx
  401dbf:	89 f7                	mov    %esi,%edi
  401dc1:	48 83 c2 01          	add    $0x1,%rdx
  401dc5:	c1 e7 05             	shl    $0x5,%edi
  401dc8:	01 f9                	add    %edi,%ecx
  401dca:	01 ce                	add    %ecx,%esi
  401dcc:	39 d3                	cmp    %edx,%ebx
  401dce:	7f e8                	jg     401db8 <invalid_phase+0x1d8>
  401dd0:	8d 3c f6             	lea    (%rsi,%rsi,8),%edi
  401dd3:	85 c0                	test   %eax,%eax
  401dd5:	7e 22                	jle    401df9 <invalid_phase+0x219>
  401dd7:	31 c0                	xor    %eax,%eax
  401dd9:	0f 1f 80 00 00 00 00 	nopl   0x0(%rax)
  401de0:	0f be 90 e0 52 60 00 	movsbl 0x6052e0(%rax),%edx
  401de7:	89 f9                	mov    %edi,%ecx
  401de9:	48 83 c0 01          	add    $0x1,%rax
  401ded:	c1 e1 05             	shl    $0x5,%ecx
  401df0:	01 ca                	add    %ecx,%edx
  401df2:	01 d7                	add    %edx,%edi
  401df4:	41 39 c0             	cmp    %eax,%r8d
  401df7:	7f e7                	jg     401de0 <invalid_phase+0x200>
  401df9:	e8 a2 ef ff ff       	callq  400da0 <srand@plt>
  401dfe:	31 c0                	xor    %eax,%eax
  401e00:	e8 0a f4 ff ff       	callq  40120f <strings_not_equal+0x4d>
  401e05:	31 c0                	xor    %eax,%eax
  401e07:	e8 62 f4 ff ff       	callq  40126e <phase1+0x1c>
  401e0c:	31 c0                	xor    %eax,%eax
  401e0e:	e8 1f f5 ff ff       	callq  401332 <phase2+0x73>
  401e13:	31 c0                	xor    %eax,%eax
  401e15:	e8 f1 f6 ff ff       	callq  40150b <phase3+0x163>
  401e1a:	31 c0                	xor    %eax,%eax
  401e1c:	e8 47 f8 ff ff       	callq  401668 <phase4+0x62>
  401e21:	31 c0                	xor    %eax,%eax
  401e23:	e8 d6 f9 ff ff       	callq  4017fe <phase5+0x9e>
  401e28:	48 83 c4 08          	add    $0x8,%rsp
  401e2c:	31 c0                	xor    %eax,%eax
  401e2e:	5b                   	pop    %rbx
  401e2f:	5d                   	pop    %rbp
  401e30:	e9 35 fb ff ff       	jmpq   40196a <phase6+0x103>
  401e35:	bf 2d bd 00 00       	mov    $0xbd2d,%edi
  401e3a:	eb 97                	jmp    401dd3 <invalid_phase+0x1f3>
  401e3c:	0f 1f 40 00          	nopl   0x0(%rax)
  401e40:	41 54                	push   %r12
  401e42:	55                   	push   %rbp
  401e43:	53                   	push   %rbx
  401e44:	89 fb                	mov    %edi,%ebx
  401e46:	48 81 ec 10 40 00 00 	sub    $0x4010,%rsp
  401e4d:	8b 2d 2d 3c 20 00    	mov    0x203c2d(%rip),%ebp        # 605a80 <num_input_strings>
  401e53:	64 48 8b 04 25 28 00 	mov    %fs:0x28,%rax
  401e5a:	00 00 
  401e5c:	48 89 84 24 08 40 00 	mov    %rax,0x4008(%rsp)
  401e63:	00 
  401e64:	31 c0                	xor    %eax,%eax
  401e66:	8d 45 ff             	lea    -0x1(%rbp),%eax
  401e69:	48 98                	cltq   
  401e6b:	48 8d 04 80          	lea    (%rax,%rax,4),%rax
  401e6f:	48 8d 04 80          	lea    (%rax,%rax,4),%rax
  401e73:	4c 8d 24 85 a0 5a 60 	lea    0x605aa0(,%rax,4),%r12
  401e7a:	00 
  401e7b:	4c 89 e7             	mov    %r12,%rdi
  401e7e:	e8 ad ee ff ff       	callq  400d30 <strlen@plt>
  401e83:	48 83 c0 64          	add    $0x64,%rax
  401e87:	48 3d 00 20 00 00    	cmp    $0x2000,%rax
  401e8d:	77 79                	ja     401f08 <invalid_phase+0x328>
  401e8f:	41 54                	push   %r12
  401e91:	55                   	push   %rbp
  401e92:	85 db                	test   %ebx,%ebx
  401e94:	44 8b 05 69 34 20 00 	mov    0x203469(%rip),%r8d        # 605304 <bomb_id>
  401e9b:	b8 53 3c 40 00       	mov    $0x403c53,%eax
  401ea0:	41 b9 5b 3c 40 00    	mov    $0x403c5b,%r9d
  401ea6:	48 8d 7c 24 10       	lea    0x10(%rsp),%rdi
  401eab:	4c 0f 45 c8          	cmovne %rax,%r9
  401eaf:	b9 64 3c 40 00       	mov    $0x403c64,%ecx
  401eb4:	ba 00 20 00 00       	mov    $0x2000,%edx
  401eb9:	be 01 00 00 00       	mov    $0x1,%esi
  401ebe:	31 c0                	xor    %eax,%eax
  401ec0:	e8 1b f0 ff ff       	callq  400ee0 <__sprintf_chk@plt>
  401ec5:	4c 8d 84 24 10 20 00 	lea    0x2010(%rsp),%r8
  401ecc:	00 
  401ecd:	48 8d 54 24 10       	lea    0x10(%rsp),%rdx
  401ed2:	31 c9                	xor    %ecx,%ecx
  401ed4:	be e0 52 60 00       	mov    $0x6052e0,%esi
  401ed9:	bf f8 52 60 00       	mov    $0x6052f8,%edi
  401ede:	e8 2d 11 00 00       	callq  403010 <init_driver+0x200>
  401ee3:	85 c0                	test   %eax,%eax
  401ee5:	5a                   	pop    %rdx
  401ee6:	59                   	pop    %rcx
  401ee7:	78 3f                	js     401f28 <invalid_phase+0x348>
  401ee9:	48 8b 84 24 08 40 00 	mov    0x4008(%rsp),%rax
  401ef0:	00 
  401ef1:	64 48 33 04 25 28 00 	xor    %fs:0x28,%rax
  401ef8:	00 00 
  401efa:	75 27                	jne    401f23 <invalid_phase+0x343>
  401efc:	48 81 c4 10 40 00 00 	add    $0x4010,%rsp
  401f03:	5b                   	pop    %rbx
  401f04:	5d                   	pop    %rbp
  401f05:	41 5c                	pop    %r12
  401f07:	c3                   	retq   
  401f08:	bf 01 00 00 00       	mov    $0x1,%edi
  401f0d:	be 28 3d 40 00       	mov    $0x403d28,%esi
  401f12:	31 c0                	xor    %eax,%eax
  401f14:	e8 37 ef ff ff       	callq  400e50 <__printf_chk@plt>
  401f19:	bf 08 00 00 00       	mov    $0x8,%edi
  401f1e:	e8 5d ef ff ff       	callq  400e80 <exit@plt>
  401f23:	e8 18 ee ff ff       	callq  400d40 <__stack_chk_fail@plt>
  401f28:	48 8d bc 24 00 20 00 	lea    0x2000(%rsp),%rdi
  401f2f:	00 
  401f30:	e8 db ed ff ff       	callq  400d10 <puts@plt>
  401f35:	31 ff                	xor    %edi,%edi
  401f37:	e8 44 ef ff ff       	callq  400e80 <exit@plt>
  401f3c:	0f 1f 40 00          	nopl   0x0(%rax)

0000000000401f40 <explode_bomb>:
  401f40:	48 83 ec 08          	sub    $0x8,%rsp
  401f44:	bf 70 3c 40 00       	mov    $0x403c70,%edi
  401f49:	e8 c2 ed ff ff       	callq  400d10 <puts@plt>
  401f4e:	bf 79 3c 40 00       	mov    $0x403c79,%edi
  401f53:	e8 b8 ed ff ff       	callq  400d10 <puts@plt>
  401f58:	31 ff                	xor    %edi,%edi
  401f5a:	e8 e1 fe ff ff       	callq  401e40 <invalid_phase+0x260>
  401f5f:	bf 50 3d 40 00       	mov    $0x403d50,%edi
  401f64:	e8 a7 ed ff ff       	callq  400d10 <puts@plt>
  401f69:	bf 08 00 00 00       	mov    $0x8,%edi
  401f6e:	e8 0d ef ff ff       	callq  400e80 <exit@plt>
  401f73:	0f 1f 00             	nopl   (%rax)
  401f76:	66 2e 0f 1f 84 00 00 	nopw   %cs:0x0(%rax,%rax,1)
  401f7d:	00 00 00 

0000000000401f80 <read_six_numbers>:
  401f80:	48 8d 46 14          	lea    0x14(%rsi),%rax
  401f84:	48 83 ec 08          	sub    $0x8,%rsp
  401f88:	48 8d 4e 04          	lea    0x4(%rsi),%rcx
  401f8c:	4c 8d 4e 0c          	lea    0xc(%rsi),%r9
  401f90:	4c 8d 46 08          	lea    0x8(%rsi),%r8
  401f94:	48 89 f2             	mov    %rsi,%rdx
  401f97:	50                   	push   %rax
  401f98:	48 8d 46 10          	lea    0x10(%rsi),%rax
  401f9c:	be 90 3c 40 00       	mov    $0x403c90,%esi
  401fa1:	50                   	push   %rax
  401fa2:	31 c0                	xor    %eax,%eax
  401fa4:	e8 87 ee ff ff       	callq  400e30 <__isoc99_sscanf@plt>
  401fa9:	83 f8 05             	cmp    $0x5,%eax
  401fac:	5a                   	pop    %rdx
  401fad:	59                   	pop    %rcx
  401fae:	7e 05                	jle    401fb5 <read_six_numbers+0x35>
  401fb0:	48 83 c4 08          	add    $0x8,%rsp
  401fb4:	c3                   	retq   
  401fb5:	e8 86 ff ff ff       	callq  401f40 <explode_bomb>
  401fba:	66 0f 1f 44 00 00    	nopw   0x0(%rax,%rax,1)
  401fc0:	48 83 ec 08          	sub    $0x8,%rsp
  401fc4:	e8 77 ff ff ff       	callq  401f40 <explode_bomb>
  401fc9:	0f 1f 80 00 00 00 00 	nopl   0x0(%rax)

0000000000401fd0 <sigusr1_handler>:
  401fd0:	8b 05 b2 3a 20 00    	mov    0x203ab2(%rip),%eax        # 605a88 <count.5639>
  401fd6:	83 c0 01             	add    $0x1,%eax
  401fd9:	83 f8 01             	cmp    $0x1,%eax
  401fdc:	89 05 a6 3a 20 00    	mov    %eax,0x203aa6(%rip)        # 605a88 <count.5639>
  401fe2:	74 1c                	je     402000 <sigusr1_handler+0x30>
  401fe4:	83 f8 02             	cmp    $0x2,%eax
  401fe7:	74 27                	je     402010 <sigusr1_handler+0x40>
  401fe9:	83 f8 03             	cmp    $0x3,%eax
  401fec:	74 32                	je     402020 <sigusr1_handler+0x50>
  401fee:	83 f8 04             	cmp    $0x4,%eax
  401ff1:	74 3d                	je     402030 <sigusr1_handler+0x60>
  401ff3:	7f 45                	jg     40203a <sigusr1_handler+0x6a>
  401ff5:	f3 c3                	repz retq 
  401ff7:	66 0f 1f 84 00 00 00 	nopw   0x0(%rax,%rax,1)
  401ffe:	00 00 
  402000:	bf 78 3d 40 00       	mov    $0x403d78,%edi
  402005:	e9 06 ed ff ff       	jmpq   400d10 <puts@plt>
  40200a:	66 0f 1f 44 00 00    	nopw   0x0(%rax,%rax,1)
  402010:	bf c8 3d 40 00       	mov    $0x403dc8,%edi
  402015:	e9 f6 ec ff ff       	jmpq   400d10 <puts@plt>
  40201a:	66 0f 1f 44 00 00    	nopw   0x0(%rax,%rax,1)
  402020:	bf 18 3e 40 00       	mov    $0x403e18,%edi
  402025:	e9 e6 ec ff ff       	jmpq   400d10 <puts@plt>
  40202a:	66 0f 1f 44 00 00    	nopw   0x0(%rax,%rax,1)
  402030:	bf 60 3e 40 00       	mov    $0x403e60,%edi
  402035:	e9 d6 ec ff ff       	jmpq   400d10 <puts@plt>
  40203a:	50                   	push   %rax
  40203b:	bf a8 3e 40 00       	mov    $0x403ea8,%edi
  402040:	e8 cb ec ff ff       	callq  400d10 <puts@plt>
  402045:	bf f8 3e 40 00       	mov    $0x403ef8,%edi
  40204a:	e8 c1 ec ff ff       	callq  400d10 <puts@plt>
  40204f:	bf 48 3f 40 00       	mov    $0x403f48,%edi
  402054:	e8 b7 ec ff ff       	callq  400d10 <puts@plt>
  402059:	e8 e2 fe ff ff       	callq  401f40 <explode_bomb>
  40205e:	66 90                	xchg   %ax,%ax
  402060:	48 83 ec 08          	sub    $0x8,%rsp
  402064:	83 3d 15 3a 20 00 05 	cmpl   $0x5,0x203a15(%rip)        # 605a80 <num_input_strings>
  40206b:	7e 4b                	jle    4020b8 <sigusr1_handler+0xe8>
  40206d:	8b 05 11 3a 20 00    	mov    0x203a11(%rip),%eax        # 605a84 <count.5628>
  402073:	83 c0 01             	add    $0x1,%eax
  402076:	83 f8 01             	cmp    $0x1,%eax
  402079:	89 05 05 3a 20 00    	mov    %eax,0x203a05(%rip)        # 605a84 <count.5628>
  40207f:	74 0f                	je     402090 <sigusr1_handler+0xc0>
  402081:	83 f8 02             	cmp    $0x2,%eax
  402084:	74 1a                	je     4020a0 <sigusr1_handler+0xd0>
  402086:	7f 35                	jg     4020bd <sigusr1_handler+0xed>
  402088:	48 83 c4 08          	add    $0x8,%rsp
  40208c:	c3                   	retq   
  40208d:	0f 1f 00             	nopl   (%rax)
  402090:	bf 98 3f 40 00       	mov    $0x403f98,%edi
  402095:	48 83 c4 08          	add    $0x8,%rsp
  402099:	e9 72 ec ff ff       	jmpq   400d10 <puts@plt>
  40209e:	66 90                	xchg   %ax,%ax
  4020a0:	bf c0 3f 40 00       	mov    $0x403fc0,%edi
  4020a5:	e8 66 ec ff ff       	callq  400d10 <puts@plt>
  4020aa:	bf 00 40 40 00       	mov    $0x404000,%edi
  4020af:	48 83 c4 08          	add    $0x8,%rsp
  4020b3:	e9 58 ec ff ff       	jmpq   400d10 <puts@plt>
  4020b8:	e8 53 ee ff ff       	callq  400f10 <sigint_handler.part.2>
  4020bd:	bf 30 40 40 00       	mov    $0x404030,%edi
  4020c2:	e8 49 ec ff ff       	callq  400d10 <puts@plt>
  4020c7:	e8 74 fe ff ff       	callq  401f40 <explode_bomb>
  4020cc:	0f 1f 40 00          	nopl   0x0(%rax)

00000000004020d0 <read_line>:
  4020d0:	55                   	push   %rbp
  4020d1:	53                   	push   %rbx
  4020d2:	48 83 ec 08          	sub    $0x8,%rsp
  4020d6:	48 63 05 a3 39 20 00 	movslq 0x2039a3(%rip),%rax        # 605a80 <num_input_strings>
  4020dd:	48 8b 15 ac 39 20 00 	mov    0x2039ac(%rip),%rdx        # 605a90 <infile>
  4020e4:	83 f8 07             	cmp    $0x7,%eax
  4020e7:	0f 84 73 01 00 00    	je     402260 <read_line+0x190>
  4020ed:	0f 1f 00             	nopl   (%rax)
  4020f0:	48 8d 04 80          	lea    (%rax,%rax,4),%rax
  4020f4:	be 64 00 00 00       	mov    $0x64,%esi
  4020f9:	48 8d 04 80          	lea    (%rax,%rax,4),%rax
  4020fd:	48 8d 3c 85 a0 5a 60 	lea    0x605aa0(,%rax,4),%rdi
  402104:	00 
  402105:	e8 b6 ec ff ff       	callq  400dc0 <fgets@plt>
  40210a:	48 85 c0             	test   %rax,%rax
  40210d:	48 89 c5             	mov    %rax,%rbp
  402110:	75 19                	jne    40212b <read_line+0x5b>
  402112:	eb 7c                	jmp    402190 <read_line+0xc0>
  402114:	0f 1f 40 00          	nopl   0x0(%rax)
  402118:	e8 b3 ed ff ff       	callq  400ed0 <__ctype_b_loc@plt>
  40211d:	48 8b 00             	mov    (%rax),%rax
  402120:	48 83 c5 01          	add    $0x1,%rbp
  402124:	f6 44 58 01 20       	testb  $0x20,0x1(%rax,%rbx,2)
  402129:	74 1d                	je     402148 <read_line+0x78>
  40212b:	48 0f be 5d 00       	movsbq 0x0(%rbp),%rbx
  402130:	84 db                	test   %bl,%bl
  402132:	75 e4                	jne    402118 <read_line+0x48>
  402134:	48 63 05 45 39 20 00 	movslq 0x203945(%rip),%rax        # 605a80 <num_input_strings>
  40213b:	48 8b 15 4e 39 20 00 	mov    0x20394e(%rip),%rdx        # 605a90 <infile>
  402142:	eb ac                	jmp    4020f0 <read_line+0x20>
  402144:	0f 1f 40 00          	nopl   0x0(%rax)
  402148:	48 63 05 31 39 20 00 	movslq 0x203931(%rip),%rax        # 605a80 <num_input_strings>
  40214f:	48 89 c3             	mov    %rax,%rbx
  402152:	48 8d 04 80          	lea    (%rax,%rax,4),%rax
  402156:	48 8d 04 80          	lea    (%rax,%rax,4),%rax
  40215a:	48 8d 2c 85 a0 5a 60 	lea    0x605aa0(,%rax,4),%rbp
  402161:	00 
  402162:	48 89 ef             	mov    %rbp,%rdi
  402165:	e8 c6 eb ff ff       	callq  400d30 <strlen@plt>
  40216a:	83 f8 62             	cmp    $0x62,%eax
  40216d:	0f 8f 79 01 00 00    	jg     4022ec <read_line+0x21c>
  402173:	83 e8 01             	sub    $0x1,%eax
  402176:	83 c3 01             	add    $0x1,%ebx
  402179:	48 98                	cltq   
  40217b:	89 1d ff 38 20 00    	mov    %ebx,0x2038ff(%rip)        # 605a80 <num_input_strings>
  402181:	c6 44 05 00 00       	movb   $0x0,0x0(%rbp,%rax,1)
  402186:	48 83 c4 08          	add    $0x8,%rsp
  40218a:	48 89 e8             	mov    %rbp,%rax
  40218d:	5b                   	pop    %rbx
  40218e:	5d                   	pop    %rbp
  40218f:	c3                   	retq   
  402190:	48 8b 15 f9 38 20 00 	mov    0x2038f9(%rip),%rdx        # 605a90 <infile>
  402197:	48 3b 15 92 31 20 00 	cmp    0x203192(%rip),%rdx        # 605330 <stdin@@GLIBC_2.2.5>
  40219e:	0f 84 d0 00 00 00    	je     402274 <read_line+0x1a4>
  4021a4:	bf a2 3c 40 00       	mov    $0x403ca2,%edi
  4021a9:	e8 22 eb ff ff       	callq  400cd0 <getenv@plt>
  4021ae:	48 85 c0             	test   %rax,%rax
  4021b1:	0f 85 82 01 00 00    	jne    402339 <read_line+0x269>
  4021b7:	48 8b 15 72 31 20 00 	mov    0x203172(%rip),%rdx        # 605330 <stdin@@GLIBC_2.2.5>
  4021be:	48 89 15 cb 38 20 00 	mov    %rdx,0x2038cb(%rip)        # 605a90 <infile>
  4021c5:	0f 1f 00             	nopl   (%rax)
  4021c8:	48 63 05 b1 38 20 00 	movslq 0x2038b1(%rip),%rax        # 605a80 <num_input_strings>
  4021cf:	be 64 00 00 00       	mov    $0x64,%esi
  4021d4:	48 8d 04 80          	lea    (%rax,%rax,4),%rax
  4021d8:	48 8d 04 80          	lea    (%rax,%rax,4),%rax
  4021dc:	48 8d 3c 85 a0 5a 60 	lea    0x605aa0(,%rax,4),%rdi
  4021e3:	00 
  4021e4:	e8 d7 eb ff ff       	callq  400dc0 <fgets@plt>
  4021e9:	48 85 c0             	test   %rax,%rax
  4021ec:	48 89 c5             	mov    %rax,%rbp
  4021ef:	75 1e                	jne    40220f <read_line+0x13f>
  4021f1:	eb 2e                	jmp    402221 <read_line+0x151>
  4021f3:	0f 1f 44 00 00       	nopl   0x0(%rax,%rax,1)
  4021f8:	e8 d3 ec ff ff       	callq  400ed0 <__ctype_b_loc@plt>
  4021fd:	48 8b 00             	mov    (%rax),%rax
  402200:	48 83 c5 01          	add    $0x1,%rbp
  402204:	f6 44 58 01 20       	testb  $0x20,0x1(%rax,%rbx,2)
  402209:	0f 84 39 ff ff ff    	je     402148 <read_line+0x78>
  40220f:	48 0f be 5d 00       	movsbq 0x0(%rbp),%rbx
  402214:	84 db                	test   %bl,%bl
  402216:	75 e0                	jne    4021f8 <read_line+0x128>
  402218:	48 8b 15 71 38 20 00 	mov    0x203871(%rip),%rdx        # 605a90 <infile>
  40221f:	eb a7                	jmp    4021c8 <read_line+0xf8>
  402221:	48 63 05 58 38 20 00 	movslq 0x203858(%rip),%rax        # 605a80 <num_input_strings>
  402228:	83 f8 05             	cmp    $0x5,%eax
  40222b:	0f 8e 0f 01 00 00    	jle    402340 <read_line+0x270>
  402231:	8b 0d 4d 38 20 00    	mov    0x20384d(%rip),%ecx        # 605a84 <count.5628>
  402237:	8d 51 01             	lea    0x1(%rcx),%edx
  40223a:	83 fa 01             	cmp    $0x1,%edx
  40223d:	89 15 41 38 20 00    	mov    %edx,0x203841(%rip)        # 605a84 <count.5628>
  402243:	74 63                	je     4022a8 <read_line+0x1d8>
  402245:	83 fa 02             	cmp    $0x2,%edx
  402248:	74 7b                	je     4022c5 <read_line+0x1f5>
  40224a:	0f 8e 8d fe ff ff    	jle    4020dd <read_line+0xd>
  402250:	bf 30 40 40 00       	mov    $0x404030,%edi
  402255:	e8 b6 ea ff ff       	callq  400d10 <puts@plt>
  40225a:	e8 e1 fc ff ff       	callq  401f40 <explode_bomb>
  40225f:	90                   	nop
  402260:	c7 05 16 38 20 00 06 	movl   $0x6,0x203816(%rip)        # 605a80 <num_input_strings>
  402267:	00 00 00 
  40226a:	b8 06 00 00 00       	mov    $0x6,%eax
  40226f:	e9 7c fe ff ff       	jmpq   4020f0 <read_line+0x20>
  402274:	48 63 05 05 38 20 00 	movslq 0x203805(%rip),%rax        # 605a80 <num_input_strings>
  40227b:	83 f8 05             	cmp    $0x5,%eax
  40227e:	0f 8e bc 00 00 00    	jle    402340 <read_line+0x270>
  402284:	8b 0d fa 37 20 00    	mov    0x2037fa(%rip),%ecx        # 605a84 <count.5628>
  40228a:	83 c1 01             	add    $0x1,%ecx
  40228d:	83 f9 01             	cmp    $0x1,%ecx
  402290:	89 0d ee 37 20 00    	mov    %ecx,0x2037ee(%rip)        # 605a84 <count.5628>
  402296:	74 10                	je     4022a8 <read_line+0x1d8>
  402298:	83 f9 02             	cmp    $0x2,%ecx
  40229b:	74 28                	je     4022c5 <read_line+0x1f5>
  40229d:	0f 8e 41 fe ff ff    	jle    4020e4 <read_line+0x14>
  4022a3:	eb ab                	jmp    402250 <read_line+0x180>
  4022a5:	0f 1f 00             	nopl   (%rax)
  4022a8:	bf 98 3f 40 00       	mov    $0x403f98,%edi
  4022ad:	e8 5e ea ff ff       	callq  400d10 <puts@plt>
  4022b2:	48 63 05 c7 37 20 00 	movslq 0x2037c7(%rip),%rax        # 605a80 <num_input_strings>
  4022b9:	48 8b 15 d0 37 20 00 	mov    0x2037d0(%rip),%rdx        # 605a90 <infile>
  4022c0:	e9 1f fe ff ff       	jmpq   4020e4 <read_line+0x14>
  4022c5:	bf c0 3f 40 00       	mov    $0x403fc0,%edi
  4022ca:	e8 41 ea ff ff       	callq  400d10 <puts@plt>
  4022cf:	bf 00 40 40 00       	mov    $0x404000,%edi
  4022d4:	e8 37 ea ff ff       	callq  400d10 <puts@plt>
  4022d9:	48 63 05 a0 37 20 00 	movslq 0x2037a0(%rip),%rax        # 605a80 <num_input_strings>
  4022e0:	48 8b 15 a9 37 20 00 	mov    0x2037a9(%rip),%rdx        # 605a90 <infile>
  4022e7:	e9 f8 fd ff ff       	jmpq   4020e4 <read_line+0x14>
  4022ec:	bf ad 3c 40 00       	mov    $0x403cad,%edi
  4022f1:	e8 1a ea ff ff       	callq  400d10 <puts@plt>
  4022f6:	48 63 05 83 37 20 00 	movslq 0x203783(%rip),%rax        # 605a80 <num_input_strings>
  4022fd:	48 b9 2a 2a 2a 74 72 	movabs $0x636e7572742a2a2a,%rcx
  402304:	75 6e 63 
  402307:	8d 50 01             	lea    0x1(%rax),%edx
  40230a:	48 8d 04 80          	lea    (%rax,%rax,4),%rax
  40230e:	48 8d 04 80          	lea    (%rax,%rax,4),%rax
  402312:	89 15 68 37 20 00    	mov    %edx,0x203768(%rip)        # 605a80 <num_input_strings>
  402318:	48 c1 e0 02          	shl    $0x2,%rax
  40231c:	48 89 88 a0 5a 60 00 	mov    %rcx,0x605aa0(%rax)
  402323:	48 b9 61 74 65 64 2a 	movabs $0x2a2a2a64657461,%rcx
  40232a:	2a 2a 00 
  40232d:	48 89 88 a8 5a 60 00 	mov    %rcx,0x605aa8(%rax)
  402334:	e8 07 fc ff ff       	callq  401f40 <explode_bomb>
  402339:	31 ff                	xor    %edi,%edi
  40233b:	e8 40 eb ff ff       	callq  400e80 <exit@plt>
  402340:	e8 cb eb ff ff       	callq  400f10 <sigint_handler.part.2>
  402345:	90                   	nop
  402346:	66 2e 0f 1f 84 00 00 	nopw   %cs:0x0(%rax,%rax,1)
  40234d:	00 00 00 

0000000000402350 <phase_defused>:
  402350:	48 83 ec 08          	sub    $0x8,%rsp
  402354:	8b 3d 26 37 20 00    	mov    0x203726(%rip),%edi        # 605a80 <num_input_strings>
  40235a:	e8 11 f7 ff ff       	callq  401a70 <test_secret_phrase>
  40235f:	85 c0                	test   %eax,%eax
  402361:	74 1d                	je     402380 <phase_defused+0x30>
  402363:	8b 05 17 37 20 00    	mov    0x203717(%rip),%eax        # 605a80 <num_input_strings>
  402369:	39 05 61 2f 20 00    	cmp    %eax,0x202f61(%rip)        # 6052d0 <__dso_handle+0x188>
  40236f:	74 0f                	je     402380 <phase_defused+0x30>
  402371:	e8 ca fb ff ff       	callq  401f40 <explode_bomb>
  402376:	66 2e 0f 1f 84 00 00 	nopw   %cs:0x0(%rax,%rax,1)
  40237d:	00 00 00 
  402380:	8b 3d fa 36 20 00    	mov    0x2036fa(%rip),%edi        # 605a80 <num_input_strings>
  402386:	e8 e5 f6 ff ff       	callq  401a70 <test_secret_phrase>
  40238b:	83 f8 ff             	cmp    $0xffffffff,%eax
  40238e:	75 18                	jne    4023a8 <phase_defused+0x58>
  402390:	8b 05 ea 36 20 00    	mov    0x2036ea(%rip),%eax        # 605a80 <num_input_strings>
  402396:	39 05 34 2f 20 00    	cmp    %eax,0x202f34(%rip)        # 6052d0 <__dso_handle+0x188>
  40239c:	75 0a                	jne    4023a8 <phase_defused+0x58>
  40239e:	e8 9d fb ff ff       	callq  401f40 <explode_bomb>
  4023a3:	0f 1f 44 00 00       	nopl   0x0(%rax,%rax,1)
  4023a8:	bf 01 00 00 00       	mov    $0x1,%edi
  4023ad:	e8 8e fa ff ff       	callq  401e40 <invalid_phase+0x260>
  4023b2:	83 3d c7 36 20 00 06 	cmpl   $0x6,0x2036c7(%rip)        # 605a80 <num_input_strings>
  4023b9:	75 61                	jne    40241c <phase_defused+0xcc>
  4023bb:	8b 3d 0f 2f 20 00    	mov    0x202f0f(%rip),%edi        # 6052d0 <__dso_handle+0x188>
  4023c1:	e8 aa f6 ff ff       	callq  401a70 <test_secret_phrase>
  4023c6:	83 f8 01             	cmp    $0x1,%eax
  4023c9:	75 3d                	jne    402408 <phase_defused+0xb8>
  4023cb:	bf 60 40 40 00       	mov    $0x404060,%edi
  4023d0:	e8 3b e9 ff ff       	callq  400d10 <puts@plt>
  4023d5:	bf c8 3c 40 00       	mov    $0x403cc8,%edi
  4023da:	e8 31 e9 ff ff       	callq  400d10 <puts@plt>
  4023df:	e8 bb f5 ff ff       	callq  40199f <secret_phase>
  4023e4:	bf 90 40 40 00       	mov    $0x404090,%edi
  4023e9:	e8 22 e9 ff ff       	callq  400d10 <puts@plt>
  4023ee:	bf 01 00 00 00       	mov    $0x1,%edi
  4023f3:	e8 48 fa ff ff       	callq  401e40 <invalid_phase+0x260>
  4023f8:	bf d0 40 40 00       	mov    $0x4040d0,%edi
  4023fd:	e8 0e e9 ff ff       	callq  400d10 <puts@plt>
  402402:	eb 18                	jmp    40241c <phase_defused+0xcc>
  402404:	0f 1f 40 00          	nopl   0x0(%rax)
  402408:	bf 18 41 40 00       	mov    $0x404118,%edi
  40240d:	e8 fe e8 ff ff       	callq  400d10 <puts@plt>
  402412:	bf d0 40 40 00       	mov    $0x4040d0,%edi
  402417:	e8 f4 e8 ff ff       	callq  400d10 <puts@plt>
  40241c:	48 83 c4 08          	add    $0x8,%rsp
  402420:	c3                   	retq   
  402421:	66 2e 0f 1f 84 00 00 	nopw   %cs:0x0(%rax,%rax,1)
  402428:	00 00 00 
  40242b:	0f 1f 44 00 00       	nopl   0x0(%rax,%rax,1)

0000000000402430 <sigalrm_handler>:
  402430:	48 83 ec 08          	sub    $0x8,%rsp
  402434:	48 8b 3d 05 2f 20 00 	mov    0x202f05(%rip),%rdi        # 605340 <stderr@@GLIBC_2.2.5>
  40243b:	31 c9                	xor    %ecx,%ecx
  40243d:	ba 48 41 40 00       	mov    $0x404148,%edx
  402442:	be 01 00 00 00       	mov    $0x1,%esi
  402447:	31 c0                	xor    %eax,%eax
  402449:	e8 52 ea ff ff       	callq  400ea0 <__fprintf_chk@plt>
  40244e:	bf 01 00 00 00       	mov    $0x1,%edi
  402453:	e8 28 ea ff ff       	callq  400e80 <exit@plt>
  402458:	0f 1f 84 00 00 00 00 	nopl   0x0(%rax,%rax,1)
  40245f:	00 

0000000000402460 <rio_readlineb.constprop.0>:
  402460:	41 56                	push   %r14
  402462:	41 55                	push   %r13
  402464:	49 89 f6             	mov    %rsi,%r14
  402467:	41 54                	push   %r12
  402469:	4c 8d 67 10          	lea    0x10(%rdi),%r12
  40246d:	55                   	push   %rbp
  40246e:	41 bd 01 00 00 00    	mov    $0x1,%r13d
  402474:	53                   	push   %rbx
  402475:	48 89 fb             	mov    %rdi,%rbx
  402478:	0f 1f 84 00 00 00 00 	nopl   0x0(%rax,%rax,1)
  40247f:	00 
  402480:	8b 6b 04             	mov    0x4(%rbx),%ebp
  402483:	0f 1f 44 00 00       	nopl   0x0(%rax,%rax,1)
  402488:	85 ed                	test   %ebp,%ebp
  40248a:	7f 22                	jg     4024ae <rio_readlineb.constprop.0+0x4e>
  40248c:	8b 3b                	mov    (%rbx),%edi
  40248e:	ba 00 20 00 00       	mov    $0x2000,%edx
  402493:	4c 89 e6             	mov    %r12,%rsi
  402496:	e8 e5 e8 ff ff       	callq  400d80 <read@plt>
  40249b:	85 c0                	test   %eax,%eax
  40249d:	89 c5                	mov    %eax,%ebp
  40249f:	89 43 04             	mov    %eax,0x4(%rbx)
  4024a2:	78 4c                	js     4024f0 <rio_readlineb.constprop.0+0x90>
  4024a4:	74 6a                	je     402510 <rio_readlineb.constprop.0+0xb0>
  4024a6:	85 ed                	test   %ebp,%ebp
  4024a8:	4c 89 63 08          	mov    %r12,0x8(%rbx)
  4024ac:	7e de                	jle    40248c <rio_readlineb.constprop.0+0x2c>
  4024ae:	48 8b 43 08          	mov    0x8(%rbx),%rax
  4024b2:	83 ed 01             	sub    $0x1,%ebp
  4024b5:	49 83 c6 01          	add    $0x1,%r14
  4024b9:	0f b6 10             	movzbl (%rax),%edx
  4024bc:	48 83 c0 01          	add    $0x1,%rax
  4024c0:	89 6b 04             	mov    %ebp,0x4(%rbx)
  4024c3:	48 89 43 08          	mov    %rax,0x8(%rbx)
  4024c7:	80 fa 0a             	cmp    $0xa,%dl
  4024ca:	41 88 56 ff          	mov    %dl,-0x1(%r14)
  4024ce:	74 10                	je     4024e0 <rio_readlineb.constprop.0+0x80>
  4024d0:	41 83 c5 01          	add    $0x1,%r13d
  4024d4:	41 81 fd 00 20 00 00 	cmp    $0x2000,%r13d
  4024db:	75 a3                	jne    402480 <rio_readlineb.constprop.0+0x20>
  4024dd:	0f 1f 00             	nopl   (%rax)
  4024e0:	41 c6 06 00          	movb   $0x0,(%r14)
  4024e4:	49 63 c5             	movslq %r13d,%rax
  4024e7:	5b                   	pop    %rbx
  4024e8:	5d                   	pop    %rbp
  4024e9:	41 5c                	pop    %r12
  4024eb:	41 5d                	pop    %r13
  4024ed:	41 5e                	pop    %r14
  4024ef:	c3                   	retq   
  4024f0:	e8 fb e7 ff ff       	callq  400cf0 <__errno_location@plt>
  4024f5:	83 38 04             	cmpl   $0x4,(%rax)
  4024f8:	74 8e                	je     402488 <rio_readlineb.constprop.0+0x28>
  4024fa:	5b                   	pop    %rbx
  4024fb:	48 c7 c0 ff ff ff ff 	mov    $0xffffffffffffffff,%rax
  402502:	5d                   	pop    %rbp
  402503:	41 5c                	pop    %r12
  402505:	41 5d                	pop    %r13
  402507:	41 5e                	pop    %r14
  402509:	c3                   	retq   
  40250a:	66 0f 1f 44 00 00    	nopw   0x0(%rax,%rax,1)
  402510:	41 83 fd 01          	cmp    $0x1,%r13d
  402514:	75 ca                	jne    4024e0 <rio_readlineb.constprop.0+0x80>
  402516:	31 c0                	xor    %eax,%eax
  402518:	eb cd                	jmp    4024e7 <rio_readlineb.constprop.0+0x87>
  40251a:	66 0f 1f 44 00 00    	nopw   0x0(%rax,%rax,1)
  402520:	55                   	push   %rbp
  402521:	48 89 e5             	mov    %rsp,%rbp
  402524:	41 57                	push   %r15
  402526:	41 56                	push   %r14
  402528:	41 55                	push   %r13
  40252a:	41 54                	push   %r12
  40252c:	49 89 fe             	mov    %rdi,%r14
  40252f:	53                   	push   %rbx
  402530:	41 89 f4             	mov    %esi,%r12d
  402533:	49 89 d7             	mov    %rdx,%r15
  402536:	be 01 00 00 00       	mov    $0x1,%esi
  40253b:	31 d2                	xor    %edx,%edx
  40253d:	bf 02 00 00 00       	mov    $0x2,%edi
  402542:	48 81 ec 78 a0 00 00 	sub    $0xa078,%rsp
  402549:	48 8b 45 18          	mov    0x18(%rbp),%rax
  40254d:	48 89 8d 80 5f ff ff 	mov    %rcx,-0xa080(%rbp)
  402554:	4c 89 85 70 5f ff ff 	mov    %r8,-0xa090(%rbp)
  40255b:	4c 89 8d 78 5f ff ff 	mov    %r9,-0xa088(%rbp)
  402562:	4c 8b 6d 10          	mov    0x10(%rbp),%r13
  402566:	c7 85 9c 5f ff ff 00 	movl   $0x0,-0xa064(%rbp)
  40256d:	00 00 00 
  402570:	48 89 85 88 5f ff ff 	mov    %rax,-0xa078(%rbp)
  402577:	64 48 8b 04 25 28 00 	mov    %fs:0x28,%rax
  40257e:	00 00 
  402580:	48 89 45 c8          	mov    %rax,-0x38(%rbp)
  402584:	31 c0                	xor    %eax,%eax
  402586:	e8 65 e9 ff ff       	callq  400ef0 <socket@plt>
  40258b:	85 c0                	test   %eax,%eax
  40258d:	0f 88 8f 06 00 00    	js     402c22 <rio_readlineb.constprop.0+0x7c2>
  402593:	4c 89 f7             	mov    %r14,%rdi
  402596:	89 c3                	mov    %eax,%ebx
  402598:	e8 43 e8 ff ff       	callq  400de0 <gethostbyname@plt>
  40259d:	48 85 c0             	test   %rax,%rax
  4025a0:	0f 84 d6 06 00 00    	je     402c7c <rio_readlineb.constprop.0+0x81c>
  4025a6:	48 c7 85 a8 5f ff ff 	movq   $0x0,-0xa058(%rbp)
  4025ad:	00 00 00 00 
  4025b1:	48 63 50 14          	movslq 0x14(%rax),%rdx
  4025b5:	48 8d 8d a0 5f ff ff 	lea    -0xa060(%rbp),%rcx
  4025bc:	48 8b 40 18          	mov    0x18(%rax),%rax
  4025c0:	48 c7 85 a0 5f ff ff 	movq   $0x0,-0xa060(%rbp)
  4025c7:	00 00 00 00 
  4025cb:	41 b8 02 00 00 00    	mov    $0x2,%r8d
  4025d1:	48 8d 79 04          	lea    0x4(%rcx),%rdi
  4025d5:	b9 0c 00 00 00       	mov    $0xc,%ecx
  4025da:	66 44 89 85 a0 5f ff 	mov    %r8w,-0xa060(%rbp)
  4025e1:	ff 
  4025e2:	66 41 c1 cc 08       	ror    $0x8,%r12w
  4025e7:	48 8b 30             	mov    (%rax),%rsi
  4025ea:	e8 01 e8 ff ff       	callq  400df0 <__memmove_chk@plt>
  4025ef:	48 8d b5 a0 5f ff ff 	lea    -0xa060(%rbp),%rsi
  4025f6:	ba 10 00 00 00       	mov    $0x10,%edx
  4025fb:	89 df                	mov    %ebx,%edi
  4025fd:	66 44 89 a5 a2 5f ff 	mov    %r12w,-0xa05e(%rbp)
  402604:	ff 
  402605:	e8 86 e8 ff ff       	callq  400e90 <connect@plt>
  40260a:	85 c0                	test   %eax,%eax
  40260c:	0f 88 dd 06 00 00    	js     402cef <rio_readlineb.constprop.0+0x88f>
  402612:	4c 89 ef             	mov    %r13,%rdi
  402615:	e8 16 e7 ff ff       	callq  400d30 <strlen@plt>
  40261a:	4c 89 ff             	mov    %r15,%rdi
  40261d:	49 89 c4             	mov    %rax,%r12
  402620:	e8 0b e7 ff ff       	callq  400d30 <strlen@plt>
  402625:	48 8b bd 80 5f ff ff 	mov    -0xa080(%rbp),%rdi
  40262c:	49 89 c7             	mov    %rax,%r15
  40262f:	e8 fc e6 ff ff       	callq  400d30 <strlen@plt>
  402634:	48 8b bd 78 5f ff ff 	mov    -0xa088(%rbp),%rdi
  40263b:	49 89 c6             	mov    %rax,%r14
  40263e:	e8 ed e6 ff ff       	callq  400d30 <strlen@plt>
  402643:	4b 8d 94 37 80 00 00 	lea    0x80(%r15,%r14,1),%rdx
  40264a:	00 
  40264b:	48 01 d0             	add    %rdx,%rax
  40264e:	4b 8d 14 64          	lea    (%r12,%r12,2),%rdx
  402652:	48 01 d0             	add    %rdx,%rax
  402655:	48 3d 00 20 00 00    	cmp    $0x2000,%rax
  40265b:	0f 87 02 04 00 00    	ja     402a63 <rio_readlineb.constprop.0+0x603>
  402661:	4c 8d 95 c0 9f ff ff 	lea    -0x6040(%rbp),%r10
  402668:	31 c0                	xor    %eax,%eax
  40266a:	b9 00 04 00 00       	mov    $0x400,%ecx
  40266f:	45 85 e4             	test   %r12d,%r12d
  402672:	4c 89 d7             	mov    %r10,%rdi
  402675:	f3 48 ab             	rep stos %rax,%es:(%rdi)
  402678:	0f 84 c2 00 00 00    	je     402740 <rio_readlineb.constprop.0+0x2e0>
  40267e:	41 8d 44 24 ff       	lea    -0x1(%r12),%eax
  402683:	49 be d9 ff 00 00 00 	movabs $0x2000000000ffd9,%r14
  40268a:	00 20 00 
  40268d:	4d 89 d4             	mov    %r10,%r12
  402690:	4d 8d 7c 05 01       	lea    0x1(%r13,%rax,1),%r15
  402695:	0f 1f 00             	nopl   (%rax)
  402698:	45 0f b6 45 00       	movzbl 0x0(%r13),%r8d
  40269d:	41 8d 40 d6          	lea    -0x2a(%r8),%eax
  4026a1:	3c 35                	cmp    $0x35,%al
  4026a3:	0f 86 97 02 00 00    	jbe    402940 <rio_readlineb.constprop.0+0x4e0>
  4026a9:	44 89 c0             	mov    %r8d,%eax
  4026ac:	83 e0 df             	and    $0xffffffdf,%eax
  4026af:	83 e8 41             	sub    $0x41,%eax
  4026b2:	3c 19                	cmp    $0x19,%al
  4026b4:	0f 86 90 02 00 00    	jbe    40294a <rio_readlineb.constprop.0+0x4ea>
  4026ba:	41 80 f8 20          	cmp    $0x20,%r8b
  4026be:	0f 84 85 03 00 00    	je     402a49 <rio_readlineb.constprop.0+0x5e9>
  4026c4:	41 8d 40 e0          	lea    -0x20(%r8),%eax
  4026c8:	3c 5f                	cmp    $0x5f,%al
  4026ca:	76 0a                	jbe    4026d6 <rio_readlineb.constprop.0+0x276>
  4026cc:	41 80 f8 09          	cmp    $0x9,%r8b
  4026d0:	0f 85 3d 04 00 00    	jne    402b13 <rio_readlineb.constprop.0+0x6b3>
  4026d6:	48 8d bd c0 df ff ff 	lea    -0x2040(%rbp),%rdi
  4026dd:	31 c0                	xor    %eax,%eax
  4026df:	b9 20 42 40 00       	mov    $0x404220,%ecx
  4026e4:	ba 08 00 00 00       	mov    $0x8,%edx
  4026e9:	be 01 00 00 00       	mov    $0x1,%esi
  4026ee:	4c 89 95 68 5f ff ff 	mov    %r10,-0xa098(%rbp)
  4026f5:	e8 e6 e7 ff ff       	callq  400ee0 <__sprintf_chk@plt>
  4026fa:	0f b6 85 c0 df ff ff 	movzbl -0x2040(%rbp),%eax
  402701:	49 83 c5 01          	add    $0x1,%r13
  402705:	49 83 c4 03          	add    $0x3,%r12
  402709:	4c 8b 95 68 5f ff ff 	mov    -0xa098(%rbp),%r10
  402710:	41 88 44 24 fd       	mov    %al,-0x3(%r12)
  402715:	0f b6 85 c1 df ff ff 	movzbl -0x203f(%rbp),%eax
  40271c:	41 88 44 24 fe       	mov    %al,-0x2(%r12)
  402721:	0f b6 85 c2 df ff ff 	movzbl -0x203e(%rbp),%eax
  402728:	41 88 44 24 ff       	mov    %al,-0x1(%r12)
  40272d:	4d 39 ef             	cmp    %r13,%r15
  402730:	0f 85 62 ff ff ff    	jne    402698 <rio_readlineb.constprop.0+0x238>
  402736:	66 2e 0f 1f 84 00 00 	nopw   %cs:0x0(%rax,%rax,1)
  40273d:	00 00 00 
  402740:	4c 8d a5 c0 7f ff ff 	lea    -0x8040(%rbp),%r12
  402747:	4c 8b 8d 70 5f ff ff 	mov    -0xa090(%rbp),%r9
  40274e:	4c 8b 85 80 5f ff ff 	mov    -0xa080(%rbp),%r8
  402755:	41 52                	push   %r10
  402757:	ff b5 78 5f ff ff    	pushq  -0xa088(%rbp)
  40275d:	b9 a0 41 40 00       	mov    $0x4041a0,%ecx
  402762:	4c 89 e7             	mov    %r12,%rdi
  402765:	ba 00 20 00 00       	mov    $0x2000,%edx
  40276a:	be 01 00 00 00       	mov    $0x1,%esi
  40276f:	31 c0                	xor    %eax,%eax
  402771:	4d 89 e7             	mov    %r12,%r15
  402774:	e8 67 e7 ff ff       	callq  400ee0 <__sprintf_chk@plt>
  402779:	48 8b 85 88 5f ff ff 	mov    -0xa078(%rbp),%rax
  402780:	48 89 c7             	mov    %rax,%rdi
  402783:	41 8b 17             	mov    (%r15),%edx
  402786:	49 83 c7 04          	add    $0x4,%r15
  40278a:	8d 82 ff fe fe fe    	lea    -0x1010101(%rdx),%eax
  402790:	f7 d2                	not    %edx
  402792:	21 d0                	and    %edx,%eax
  402794:	25 80 80 80 80       	and    $0x80808080,%eax
  402799:	74 e8                	je     402783 <rio_readlineb.constprop.0+0x323>
  40279b:	89 c2                	mov    %eax,%edx
  40279d:	48 89 bd 88 5f ff ff 	mov    %rdi,-0xa078(%rbp)
  4027a4:	c1 ea 10             	shr    $0x10,%edx
  4027a7:	a9 80 80 00 00       	test   $0x8080,%eax
  4027ac:	0f 44 c2             	cmove  %edx,%eax
  4027af:	49 8d 57 02          	lea    0x2(%r15),%rdx
  4027b3:	89 c6                	mov    %eax,%esi
  4027b5:	4c 0f 44 fa          	cmove  %rdx,%r15
  4027b9:	40 00 c6             	add    %al,%sil
  4027bc:	49 83 df 03          	sbb    $0x3,%r15
  4027c0:	4d 29 e7             	sub    %r12,%r15
  4027c3:	58                   	pop    %rax
  4027c4:	5a                   	pop    %rdx
  4027c5:	74 37                	je     4027fe <rio_readlineb.constprop.0+0x39e>
  4027c7:	4d 89 fd             	mov    %r15,%r13
  4027ca:	4d 89 e6             	mov    %r12,%r14
  4027cd:	0f 1f 00             	nopl   (%rax)
  4027d0:	4c 89 ea             	mov    %r13,%rdx
  4027d3:	4c 89 f6             	mov    %r14,%rsi
  4027d6:	89 df                	mov    %ebx,%edi
  4027d8:	e8 43 e5 ff ff       	callq  400d20 <write@plt>
  4027dd:	48 85 c0             	test   %rax,%rax
  4027e0:	0f 8e 82 01 00 00    	jle    402968 <rio_readlineb.constprop.0+0x508>
  4027e6:	49 01 c6             	add    %rax,%r14
  4027e9:	49 29 c5             	sub    %rax,%r13
  4027ec:	75 e2                	jne    4027d0 <rio_readlineb.constprop.0+0x370>
  4027ee:	4d 85 ff             	test   %r15,%r15
  4027f1:	48 8b 85 88 5f ff ff 	mov    -0xa078(%rbp),%rax
  4027f8:	0f 88 7f 01 00 00    	js     40297d <rio_readlineb.constprop.0+0x51d>
  4027fe:	48 8d 85 b0 5f ff ff 	lea    -0xa050(%rbp),%rax
  402805:	48 8d bd b0 5f ff ff 	lea    -0xa050(%rbp),%rdi
  40280c:	4c 89 e6             	mov    %r12,%rsi
  40280f:	89 9d b0 5f ff ff    	mov    %ebx,-0xa050(%rbp)
  402815:	c7 85 b4 5f ff ff 00 	movl   $0x0,-0xa04c(%rbp)
  40281c:	00 00 00 
  40281f:	48 83 c0 10          	add    $0x10,%rax
  402823:	48 89 85 b8 5f ff ff 	mov    %rax,-0xa048(%rbp)
  40282a:	e8 31 fc ff ff       	callq  402460 <rio_readlineb.constprop.0>
  40282f:	48 85 c0             	test   %rax,%rax
  402832:	0f 8e 6f 03 00 00    	jle    402ba7 <rio_readlineb.constprop.0+0x747>
  402838:	4c 8d 85 c0 df ff ff 	lea    -0x2040(%rbp),%r8
  40283f:	48 8d 8d 9c 5f ff ff 	lea    -0xa064(%rbp),%rcx
  402846:	48 8d 95 c0 bf ff ff 	lea    -0x4040(%rbp),%rdx
  40284d:	31 c0                	xor    %eax,%eax
  40284f:	be 27 42 40 00       	mov    $0x404227,%esi
  402854:	4c 89 e7             	mov    %r12,%rdi
  402857:	e8 d4 e5 ff ff       	callq  400e30 <__isoc99_sscanf@plt>
  40285c:	44 8b 85 9c 5f ff ff 	mov    -0xa064(%rbp),%r8d
  402863:	41 81 f8 c8 00 00 00 	cmp    $0xc8,%r8d
  40286a:	0f 85 6c 02 00 00    	jne    402adc <rio_readlineb.constprop.0+0x67c>
  402870:	48 8b 85 88 5f ff ff 	mov    -0xa078(%rbp),%rax
  402877:	49 89 c7             	mov    %rax,%r15
  40287a:	eb 1c                	jmp    402898 <rio_readlineb.constprop.0+0x438>
  40287c:	0f 1f 40 00          	nopl   0x0(%rax)
  402880:	48 8d bd b0 5f ff ff 	lea    -0xa050(%rbp),%rdi
  402887:	4c 89 e6             	mov    %r12,%rsi
  40288a:	e8 d1 fb ff ff       	callq  402460 <rio_readlineb.constprop.0>
  40288f:	48 85 c0             	test   %rax,%rax
  402892:	0f 8e 48 01 00 00    	jle    4029e0 <rio_readlineb.constprop.0+0x580>
  402898:	80 bd c0 7f ff ff 0d 	cmpb   $0xd,-0x8040(%rbp)
  40289f:	75 df                	jne    402880 <rio_readlineb.constprop.0+0x420>
  4028a1:	80 bd c1 7f ff ff 0a 	cmpb   $0xa,-0x803f(%rbp)
  4028a8:	75 d6                	jne    402880 <rio_readlineb.constprop.0+0x420>
  4028aa:	80 bd c2 7f ff ff 00 	cmpb   $0x0,-0x803e(%rbp)
  4028b1:	75 cd                	jne    402880 <rio_readlineb.constprop.0+0x420>
  4028b3:	48 8d bd b0 5f ff ff 	lea    -0xa050(%rbp),%rdi
  4028ba:	4c 89 e6             	mov    %r12,%rsi
  4028bd:	4c 89 bd 88 5f ff ff 	mov    %r15,-0xa078(%rbp)
  4028c4:	e8 97 fb ff ff       	callq  402460 <rio_readlineb.constprop.0>
  4028c9:	48 85 c0             	test   %rax,%rax
  4028cc:	0f 8e 80 04 00 00    	jle    402d52 <rio_readlineb.constprop.0+0x8f2>
  4028d2:	4c 8b bd 88 5f ff ff 	mov    -0xa078(%rbp),%r15
  4028d9:	4c 89 e6             	mov    %r12,%rsi
  4028dc:	4c 89 ff             	mov    %r15,%rdi
  4028df:	e8 1c e4 ff ff       	callq  400d00 <strcpy@plt>
  4028e4:	89 df                	mov    %ebx,%edi
  4028e6:	e8 85 e4 ff ff       	callq  400d70 <close@plt>
  4028eb:	41 0f b6 17          	movzbl (%r15),%edx
  4028ef:	b8 4f 00 00 00       	mov    $0x4f,%eax
  4028f4:	29 d0                	sub    %edx,%eax
  4028f6:	75 12                	jne    40290a <rio_readlineb.constprop.0+0x4aa>
  4028f8:	41 0f b6 57 01       	movzbl 0x1(%r15),%edx
  4028fd:	b8 4b 00 00 00       	mov    $0x4b,%eax
  402902:	29 d0                	sub    %edx,%eax
  402904:	0f 84 4d 01 00 00    	je     402a57 <rio_readlineb.constprop.0+0x5f7>
  40290a:	85 c0                	test   %eax,%eax
  40290c:	0f 95 c0             	setne  %al
  40290f:	0f b6 c0             	movzbl %al,%eax
  402912:	f7 d8                	neg    %eax
  402914:	48 8b 4d c8          	mov    -0x38(%rbp),%rcx
  402918:	64 48 33 0c 25 28 00 	xor    %fs:0x28,%rcx
  40291f:	00 00 
  402921:	0f 85 a4 04 00 00    	jne    402dcb <rio_readlineb.constprop.0+0x96b>
  402927:	48 8d 65 d8          	lea    -0x28(%rbp),%rsp
  40292b:	5b                   	pop    %rbx
  40292c:	41 5c                	pop    %r12
  40292e:	41 5d                	pop    %r13
  402930:	41 5e                	pop    %r14
  402932:	41 5f                	pop    %r15
  402934:	5d                   	pop    %rbp
  402935:	c3                   	retq   
  402936:	66 2e 0f 1f 84 00 00 	nopw   %cs:0x0(%rax,%rax,1)
  40293d:	00 00 00 
  402940:	49 0f a3 c6          	bt     %rax,%r14
  402944:	0f 83 5f fd ff ff    	jae    4026a9 <rio_readlineb.constprop.0+0x249>
  40294a:	45 88 04 24          	mov    %r8b,(%r12)
  40294e:	49 83 c4 01          	add    $0x1,%r12
  402952:	49 83 c5 01          	add    $0x1,%r13
  402956:	4d 39 ef             	cmp    %r13,%r15
  402959:	0f 85 39 fd ff ff    	jne    402698 <rio_readlineb.constprop.0+0x238>
  40295f:	e9 dc fd ff ff       	jmpq   402740 <rio_readlineb.constprop.0+0x2e0>
  402964:	0f 1f 40 00          	nopl   0x0(%rax)
  402968:	e8 83 e3 ff ff       	callq  400cf0 <__errno_location@plt>
  40296d:	83 38 04             	cmpl   $0x4,(%rax)
  402970:	0f 84 5a fe ff ff    	je     4027d0 <rio_readlineb.constprop.0+0x370>
  402976:	48 8b 85 88 5f ff ff 	mov    -0xa078(%rbp),%rax
  40297d:	48 b9 45 72 72 6f 72 	movabs $0x43203a726f727245,%rcx
  402984:	3a 20 43 
  402987:	c7 40 28 76 65 72 00 	movl   $0x726576,0x28(%rax)
  40298e:	89 df                	mov    %ebx,%edi
  402990:	48 89 08             	mov    %rcx,(%rax)
  402993:	48 b9 6c 69 65 6e 74 	movabs $0x6e7520746e65696c,%rcx
  40299a:	20 75 6e 
  40299d:	48 89 48 08          	mov    %rcx,0x8(%rax)
  4029a1:	48 b9 61 62 6c 65 20 	movabs $0x206f7420656c6261,%rcx
  4029a8:	74 6f 20 
  4029ab:	48 89 48 10          	mov    %rcx,0x10(%rax)
  4029af:	48 b9 77 72 69 74 65 	movabs $0x6f74206574697277,%rcx
  4029b6:	20 74 6f 
  4029b9:	48 89 48 18          	mov    %rcx,0x18(%rax)
  4029bd:	48 b9 20 74 68 65 20 	movabs $0x7265732065687420,%rcx
  4029c4:	73 65 72 
  4029c7:	48 89 48 20          	mov    %rcx,0x20(%rax)
  4029cb:	e8 a0 e3 ff ff       	callq  400d70 <close@plt>
  4029d0:	b8 ff ff ff ff       	mov    $0xffffffff,%eax
  4029d5:	e9 3a ff ff ff       	jmpq   402914 <rio_readlineb.constprop.0+0x4b4>
  4029da:	66 0f 1f 44 00 00    	nopw   0x0(%rax,%rax,1)
  4029e0:	48 b9 45 72 72 6f 72 	movabs $0x43203a726f727245,%rcx
  4029e7:	3a 20 43 
  4029ea:	41 c6 47 30 00       	movb   $0x0,0x30(%r15)
  4029ef:	89 df                	mov    %ebx,%edi
  4029f1:	49 89 0f             	mov    %rcx,(%r15)
  4029f4:	48 b9 6c 69 65 6e 74 	movabs $0x6e7520746e65696c,%rcx
  4029fb:	20 75 6e 
  4029fe:	49 89 4f 08          	mov    %rcx,0x8(%r15)
  402a02:	48 b9 61 62 6c 65 20 	movabs $0x206f7420656c6261,%rcx
  402a09:	74 6f 20 
  402a0c:	49 89 4f 10          	mov    %rcx,0x10(%r15)
  402a10:	48 b9 72 65 61 64 20 	movabs $0x6165682064616572,%rcx
  402a17:	68 65 61 
  402a1a:	49 89 4f 18          	mov    %rcx,0x18(%r15)
  402a1e:	48 b9 64 65 72 73 20 	movabs $0x6f72662073726564,%rcx
  402a25:	66 72 6f 
  402a28:	49 89 4f 20          	mov    %rcx,0x20(%r15)
  402a2c:	48 b9 6d 20 73 65 72 	movabs $0x726576726573206d,%rcx
  402a33:	76 65 72 
  402a36:	49 89 4f 28          	mov    %rcx,0x28(%r15)
  402a3a:	e8 31 e3 ff ff       	callq  400d70 <close@plt>
  402a3f:	b8 ff ff ff ff       	mov    $0xffffffff,%eax
  402a44:	e9 cb fe ff ff       	jmpq   402914 <rio_readlineb.constprop.0+0x4b4>
  402a49:	41 c6 04 24 2b       	movb   $0x2b,(%r12)
  402a4e:	49 83 c4 01          	add    $0x1,%r12
  402a52:	e9 fb fe ff ff       	jmpq   402952 <rio_readlineb.constprop.0+0x4f2>
  402a57:	41 0f b6 47 02       	movzbl 0x2(%r15),%eax
  402a5c:	f7 d8                	neg    %eax
  402a5e:	e9 a7 fe ff ff       	jmpq   40290a <rio_readlineb.constprop.0+0x4aa>
  402a63:	48 8b 85 88 5f ff ff 	mov    -0xa078(%rbp),%rax
  402a6a:	48 b9 45 72 72 6f 72 	movabs $0x52203a726f727245,%rcx
  402a71:	3a 20 52 
  402a74:	89 df                	mov    %ebx,%edi
  402a76:	48 89 08             	mov    %rcx,(%rax)
  402a79:	48 b9 65 73 75 6c 74 	movabs $0x747320746c757365,%rcx
  402a80:	20 73 74 
  402a83:	48 89 48 08          	mov    %rcx,0x8(%rax)
  402a87:	48 b9 72 69 6e 67 20 	movabs $0x6f6f7420676e6972,%rcx
  402a8e:	74 6f 6f 
  402a91:	48 89 48 10          	mov    %rcx,0x10(%rax)
  402a95:	48 b9 20 6c 61 72 67 	movabs $0x202e656772616c20,%rcx
  402a9c:	65 2e 20 
  402a9f:	48 89 48 18          	mov    %rcx,0x18(%rax)
  402aa3:	48 b9 49 6e 63 72 65 	movabs $0x6573616572636e49,%rcx
  402aaa:	61 73 65 
  402aad:	48 89 48 20          	mov    %rcx,0x20(%rax)
  402ab1:	48 b9 20 53 55 42 4d 	movabs $0x5254494d42555320,%rcx
  402ab8:	49 54 52 
  402abb:	48 89 48 28          	mov    %rcx,0x28(%rax)
  402abf:	48 b9 5f 4d 41 58 42 	movabs $0x46554258414d5f,%rcx
  402ac6:	55 46 00 
  402ac9:	48 89 48 30          	mov    %rcx,0x30(%rax)
  402acd:	e8 9e e2 ff ff       	callq  400d70 <close@plt>
  402ad2:	b8 ff ff ff ff       	mov    $0xffffffff,%eax
  402ad7:	e9 38 fe ff ff       	jmpq   402914 <rio_readlineb.constprop.0+0x4b4>
  402adc:	48 8b bd 88 5f ff ff 	mov    -0xa078(%rbp),%rdi
  402ae3:	4c 8d 8d c0 df ff ff 	lea    -0x2040(%rbp),%r9
  402aea:	b9 70 41 40 00       	mov    $0x404170,%ecx
  402aef:	48 c7 c2 ff ff ff ff 	mov    $0xffffffffffffffff,%rdx
  402af6:	be 01 00 00 00       	mov    $0x1,%esi
  402afb:	31 c0                	xor    %eax,%eax
  402afd:	e8 de e3 ff ff       	callq  400ee0 <__sprintf_chk@plt>
  402b02:	89 df                	mov    %ebx,%edi
  402b04:	e8 67 e2 ff ff       	callq  400d70 <close@plt>
  402b09:	b8 ff ff ff ff       	mov    $0xffffffff,%eax
  402b0e:	e9 01 fe ff ff       	jmpq   402914 <rio_readlineb.constprop.0+0x4b4>
  402b13:	48 8b 85 88 5f ff ff 	mov    -0xa078(%rbp),%rax
  402b1a:	48 b9 45 72 72 6f 72 	movabs $0x52203a726f727245,%rcx
  402b21:	3a 20 52 
  402b24:	89 df                	mov    %ebx,%edi
  402b26:	48 89 08             	mov    %rcx,(%rax)
  402b29:	48 b9 65 73 75 6c 74 	movabs $0x747320746c757365,%rcx
  402b30:	20 73 74 
  402b33:	c6 40 42 00          	movb   $0x0,0x42(%rax)
  402b37:	48 89 48 08          	mov    %rcx,0x8(%rax)
  402b3b:	48 b9 72 69 6e 67 20 	movabs $0x6e6f6320676e6972,%rcx
  402b42:	63 6f 6e 
  402b45:	48 89 48 10          	mov    %rcx,0x10(%rax)
  402b49:	48 b9 74 61 69 6e 73 	movabs $0x6e6120736e696174,%rcx
  402b50:	20 61 6e 
  402b53:	48 89 48 18          	mov    %rcx,0x18(%rax)
  402b57:	48 b9 20 69 6c 6c 65 	movabs $0x6c6167656c6c6920,%rcx
  402b5e:	67 61 6c 
  402b61:	48 89 48 20          	mov    %rcx,0x20(%rax)
  402b65:	48 b9 20 6f 72 20 75 	movabs $0x72706e7520726f20,%rcx
  402b6c:	6e 70 72 
  402b6f:	48 89 48 28          	mov    %rcx,0x28(%rax)
  402b73:	48 b9 69 6e 74 61 62 	movabs $0x20656c6261746e69,%rcx
  402b7a:	6c 65 20 
  402b7d:	48 89 48 30          	mov    %rcx,0x30(%rax)
  402b81:	48 b9 63 68 61 72 61 	movabs $0x6574636172616863,%rcx
  402b88:	63 74 65 
  402b8b:	48 89 48 38          	mov    %rcx,0x38(%rax)
  402b8f:	b9 72 2e 00 00       	mov    $0x2e72,%ecx
  402b94:	66 89 48 40          	mov    %cx,0x40(%rax)
  402b98:	e8 d3 e1 ff ff       	callq  400d70 <close@plt>
  402b9d:	b8 ff ff ff ff       	mov    $0xffffffff,%eax
  402ba2:	e9 6d fd ff ff       	jmpq   402914 <rio_readlineb.constprop.0+0x4b4>
  402ba7:	48 8b 85 88 5f ff ff 	mov    -0xa078(%rbp),%rax
  402bae:	48 b9 45 72 72 6f 72 	movabs $0x43203a726f727245,%rcx
  402bb5:	3a 20 43 
  402bb8:	be 72 00 00 00       	mov    $0x72,%esi
  402bbd:	89 df                	mov    %ebx,%edi
  402bbf:	48 89 08             	mov    %rcx,(%rax)
  402bc2:	48 b9 6c 69 65 6e 74 	movabs $0x6e7520746e65696c,%rcx
  402bc9:	20 75 6e 
  402bcc:	c7 40 30 65 72 76 65 	movl   $0x65767265,0x30(%rax)
  402bd3:	48 89 48 08          	mov    %rcx,0x8(%rax)
  402bd7:	48 b9 61 62 6c 65 20 	movabs $0x206f7420656c6261,%rcx
  402bde:	74 6f 20 
  402be1:	66 89 70 34          	mov    %si,0x34(%rax)
  402be5:	48 89 48 10          	mov    %rcx,0x10(%rax)
  402be9:	48 b9 72 65 61 64 20 	movabs $0x7269662064616572,%rcx
  402bf0:	66 69 72 
  402bf3:	48 89 48 18          	mov    %rcx,0x18(%rax)
  402bf7:	48 b9 73 74 20 68 65 	movabs $0x6564616568207473,%rcx
  402bfe:	61 64 65 
  402c01:	48 89 48 20          	mov    %rcx,0x20(%rax)
  402c05:	48 b9 72 20 66 72 6f 	movabs $0x73206d6f72662072,%rcx
  402c0c:	6d 20 73 
  402c0f:	48 89 48 28          	mov    %rcx,0x28(%rax)
  402c13:	e8 58 e1 ff ff       	callq  400d70 <close@plt>
  402c18:	b8 ff ff ff ff       	mov    $0xffffffff,%eax
  402c1d:	e9 f2 fc ff ff       	jmpq   402914 <rio_readlineb.constprop.0+0x4b4>
  402c22:	48 8b 85 88 5f ff ff 	mov    -0xa078(%rbp),%rax
  402c29:	48 b9 45 72 72 6f 72 	movabs $0x43203a726f727245,%rcx
  402c30:	3a 20 43 
  402c33:	41 ba 74 00 00 00    	mov    $0x74,%r10d
  402c39:	48 89 08             	mov    %rcx,(%rax)
  402c3c:	48 b9 6c 69 65 6e 74 	movabs $0x6e7520746e65696c,%rcx
  402c43:	20 75 6e 
  402c46:	c7 40 20 6f 63 6b 65 	movl   $0x656b636f,0x20(%rax)
  402c4d:	48 89 48 08          	mov    %rcx,0x8(%rax)
  402c51:	48 b9 61 62 6c 65 20 	movabs $0x206f7420656c6261,%rcx
  402c58:	74 6f 20 
  402c5b:	66 44 89 50 24       	mov    %r10w,0x24(%rax)
  402c60:	48 89 48 10          	mov    %rcx,0x10(%rax)
  402c64:	48 b9 63 72 65 61 74 	movabs $0x7320657461657263,%rcx
  402c6b:	65 20 73 
  402c6e:	48 89 48 18          	mov    %rcx,0x18(%rax)
  402c72:	b8 ff ff ff ff       	mov    $0xffffffff,%eax
  402c77:	e9 98 fc ff ff       	jmpq   402914 <rio_readlineb.constprop.0+0x4b4>
  402c7c:	48 8b 85 88 5f ff ff 	mov    -0xa078(%rbp),%rax
  402c83:	48 b9 45 72 72 6f 72 	movabs $0x44203a726f727245,%rcx
  402c8a:	3a 20 44 
  402c8d:	41 b9 73 73 00 00    	mov    $0x7373,%r9d
  402c93:	89 df                	mov    %ebx,%edi
  402c95:	48 89 08             	mov    %rcx,(%rax)
  402c98:	48 b9 4e 53 20 69 73 	movabs $0x6e7520736920534e,%rcx
  402c9f:	20 75 6e 
  402ca2:	c7 40 28 64 64 72 65 	movl   $0x65726464,0x28(%rax)
  402ca9:	48 89 48 08          	mov    %rcx,0x8(%rax)
  402cad:	48 b9 61 62 6c 65 20 	movabs $0x206f7420656c6261,%rcx
  402cb4:	74 6f 20 
  402cb7:	66 44 89 48 2c       	mov    %r9w,0x2c(%rax)
  402cbc:	48 89 48 10          	mov    %rcx,0x10(%rax)
  402cc0:	48 b9 72 65 73 6f 6c 	movabs $0x2065766c6f736572,%rcx
  402cc7:	76 65 20 
  402cca:	c6 40 2e 00          	movb   $0x0,0x2e(%rax)
  402cce:	48 89 48 18          	mov    %rcx,0x18(%rax)
  402cd2:	48 b9 73 65 72 76 65 	movabs $0x6120726576726573,%rcx
  402cd9:	72 20 61 
  402cdc:	48 89 48 20          	mov    %rcx,0x20(%rax)
  402ce0:	e8 8b e0 ff ff       	callq  400d70 <close@plt>
  402ce5:	b8 ff ff ff ff       	mov    $0xffffffff,%eax
  402cea:	e9 25 fc ff ff       	jmpq   402914 <rio_readlineb.constprop.0+0x4b4>
  402cef:	48 8b 85 88 5f ff ff 	mov    -0xa078(%rbp),%rax
  402cf6:	48 b9 45 72 72 6f 72 	movabs $0x55203a726f727245,%rcx
  402cfd:	3a 20 55 
  402d00:	bf 65 72 00 00       	mov    $0x7265,%edi
  402d05:	48 89 08             	mov    %rcx,(%rax)
  402d08:	48 b9 6e 61 62 6c 65 	movabs $0x6f7420656c62616e,%rcx
  402d0f:	20 74 6f 
  402d12:	66 89 78 24          	mov    %di,0x24(%rax)
  402d16:	48 89 48 08          	mov    %rcx,0x8(%rax)
  402d1a:	48 b9 20 63 6f 6e 6e 	movabs $0x7463656e6e6f6320,%rcx
  402d21:	65 63 74 
  402d24:	c7 40 20 73 65 72 76 	movl   $0x76726573,0x20(%rax)
  402d2b:	48 89 48 10          	mov    %rcx,0x10(%rax)
  402d2f:	48 b9 20 74 6f 20 74 	movabs $0x20656874206f7420,%rcx
  402d36:	68 65 20 
  402d39:	c6 40 26 00          	movb   $0x0,0x26(%rax)
  402d3d:	48 89 48 18          	mov    %rcx,0x18(%rax)
  402d41:	89 df                	mov    %ebx,%edi
  402d43:	e8 28 e0 ff ff       	callq  400d70 <close@plt>
  402d48:	b8 ff ff ff ff       	mov    $0xffffffff,%eax
  402d4d:	e9 c2 fb ff ff       	jmpq   402914 <rio_readlineb.constprop.0+0x4b4>
  402d52:	48 8b 85 88 5f ff ff 	mov    -0xa078(%rbp),%rax
  402d59:	48 b9 45 72 72 6f 72 	movabs $0x43203a726f727245,%rcx
  402d60:	3a 20 43 
  402d63:	89 df                	mov    %ebx,%edi
  402d65:	48 89 08             	mov    %rcx,(%rax)
  402d68:	48 b9 6c 69 65 6e 74 	movabs $0x6e7520746e65696c,%rcx
  402d6f:	20 75 6e 
  402d72:	48 89 48 08          	mov    %rcx,0x8(%rax)
  402d76:	48 b9 61 62 6c 65 20 	movabs $0x206f7420656c6261,%rcx
  402d7d:	74 6f 20 
  402d80:	48 89 48 10          	mov    %rcx,0x10(%rax)
  402d84:	48 b9 72 65 61 64 20 	movabs $0x6174732064616572,%rcx
  402d8b:	73 74 61 
  402d8e:	48 89 48 18          	mov    %rcx,0x18(%rax)
  402d92:	48 b9 74 75 73 20 6d 	movabs $0x7373656d20737574,%rcx
  402d99:	65 73 73 
  402d9c:	48 89 48 20          	mov    %rcx,0x20(%rax)
  402da0:	48 b9 61 67 65 20 66 	movabs $0x6d6f726620656761,%rcx
  402da7:	72 6f 6d 
  402daa:	48 89 48 28          	mov    %rcx,0x28(%rax)
  402dae:	48 b9 20 73 65 72 76 	movabs $0x72657672657320,%rcx
  402db5:	65 72 00 
  402db8:	48 89 48 30          	mov    %rcx,0x30(%rax)
  402dbc:	e8 af df ff ff       	callq  400d70 <close@plt>
  402dc1:	b8 ff ff ff ff       	mov    $0xffffffff,%eax
  402dc6:	e9 49 fb ff ff       	jmpq   402914 <rio_readlineb.constprop.0+0x4b4>
  402dcb:	e8 70 df ff ff       	callq  400d40 <__stack_chk_fail@plt>

0000000000402dd0 <init_timeout>:
  402dd0:	85 ff                	test   %edi,%edi
  402dd2:	74 2c                	je     402e00 <init_timeout+0x30>
  402dd4:	53                   	push   %rbx
  402dd5:	be 30 24 40 00       	mov    $0x402430,%esi
  402dda:	89 fb                	mov    %edi,%ebx
  402ddc:	bf 0e 00 00 00       	mov    $0xe,%edi
  402de1:	e8 ea df ff ff       	callq  400dd0 <signal@plt>
  402de6:	85 db                	test   %ebx,%ebx
  402de8:	bf 00 00 00 00       	mov    $0x0,%edi
  402ded:	0f 49 fb             	cmovns %ebx,%edi
  402df0:	5b                   	pop    %rbx
  402df1:	e9 6a df ff ff       	jmpq   400d60 <alarm@plt>
  402df6:	66 2e 0f 1f 84 00 00 	nopw   %cs:0x0(%rax,%rax,1)
  402dfd:	00 00 00 
  402e00:	f3 c3                	repz retq 
  402e02:	0f 1f 40 00          	nopl   0x0(%rax)
  402e06:	66 2e 0f 1f 84 00 00 	nopw   %cs:0x0(%rax,%rax,1)
  402e0d:	00 00 00 

0000000000402e10 <init_driver>:
  402e10:	55                   	push   %rbp
  402e11:	53                   	push   %rbx
  402e12:	be 01 00 00 00       	mov    $0x1,%esi
  402e17:	48 89 fd             	mov    %rdi,%rbp
  402e1a:	bf 0d 00 00 00       	mov    $0xd,%edi
  402e1f:	48 83 ec 28          	sub    $0x28,%rsp
  402e23:	64 48 8b 04 25 28 00 	mov    %fs:0x28,%rax
  402e2a:	00 00 
  402e2c:	48 89 44 24 18       	mov    %rax,0x18(%rsp)
  402e31:	31 c0                	xor    %eax,%eax
  402e33:	e8 98 df ff ff       	callq  400dd0 <signal@plt>
  402e38:	be 01 00 00 00       	mov    $0x1,%esi
  402e3d:	bf 1d 00 00 00       	mov    $0x1d,%edi
  402e42:	e8 89 df ff ff       	callq  400dd0 <signal@plt>
  402e47:	be 01 00 00 00       	mov    $0x1,%esi
  402e4c:	bf 1d 00 00 00       	mov    $0x1d,%edi
  402e51:	e8 7a df ff ff       	callq  400dd0 <signal@plt>
  402e56:	31 d2                	xor    %edx,%edx
  402e58:	be 01 00 00 00       	mov    $0x1,%esi
  402e5d:	bf 02 00 00 00       	mov    $0x2,%edi
  402e62:	e8 89 e0 ff ff       	callq  400ef0 <socket@plt>
  402e67:	85 c0                	test   %eax,%eax
  402e69:	0f 88 a1 00 00 00    	js     402f10 <init_driver+0x100>
  402e6f:	bf 38 42 40 00       	mov    $0x404238,%edi
  402e74:	89 c3                	mov    %eax,%ebx
  402e76:	e8 65 df ff ff       	callq  400de0 <gethostbyname@plt>
  402e7b:	48 85 c0             	test   %rax,%rax
  402e7e:	0f 84 0e 01 00 00    	je     402f92 <init_driver+0x182>
  402e84:	ba 02 00 00 00       	mov    $0x2,%edx
  402e89:	48 c7 04 24 00 00 00 	movq   $0x0,(%rsp)
  402e90:	00 
  402e91:	48 c7 44 24 08 00 00 	movq   $0x0,0x8(%rsp)
  402e98:	00 00 
  402e9a:	66 89 14 24          	mov    %dx,(%rsp)
  402e9e:	48 63 50 14          	movslq 0x14(%rax),%rdx
  402ea2:	48 8d 7c 24 04       	lea    0x4(%rsp),%rdi
  402ea7:	48 8b 40 18          	mov    0x18(%rax),%rax
  402eab:	b9 0c 00 00 00       	mov    $0xc,%ecx
  402eb0:	48 8b 30             	mov    (%rax),%rsi
  402eb3:	e8 38 df ff ff       	callq  400df0 <__memmove_chk@plt>
  402eb8:	b9 3b 6d 00 00       	mov    $0x6d3b,%ecx
  402ebd:	ba 10 00 00 00       	mov    $0x10,%edx
  402ec2:	48 89 e6             	mov    %rsp,%rsi
  402ec5:	89 df                	mov    %ebx,%edi
  402ec7:	66 89 4c 24 02       	mov    %cx,0x2(%rsp)
  402ecc:	e8 bf df ff ff       	callq  400e90 <connect@plt>
  402ed1:	85 c0                	test   %eax,%eax
  402ed3:	0f 88 87 00 00 00    	js     402f60 <init_driver+0x150>
  402ed9:	89 df                	mov    %ebx,%edi
  402edb:	e8 90 de ff ff       	callq  400d70 <close@plt>
  402ee0:	b8 4f 4b 00 00       	mov    $0x4b4f,%eax
  402ee5:	c6 45 02 00          	movb   $0x0,0x2(%rbp)
  402ee9:	66 89 45 00          	mov    %ax,0x0(%rbp)
  402eed:	31 c0                	xor    %eax,%eax
  402eef:	48 8b 4c 24 18       	mov    0x18(%rsp),%rcx
  402ef4:	64 48 33 0c 25 28 00 	xor    %fs:0x28,%rcx
  402efb:	00 00 
  402efd:	0f 85 fa 00 00 00    	jne    402ffd <init_driver+0x1ed>
  402f03:	48 83 c4 28          	add    $0x28,%rsp
  402f07:	5b                   	pop    %rbx
  402f08:	5d                   	pop    %rbp
  402f09:	c3                   	retq   
  402f0a:	66 0f 1f 44 00 00    	nopw   0x0(%rax,%rax,1)
  402f10:	48 b8 45 72 72 6f 72 	movabs $0x43203a726f727245,%rax
  402f17:	3a 20 43 
  402f1a:	bf 74 00 00 00       	mov    $0x74,%edi
  402f1f:	c7 45 20 6f 63 6b 65 	movl   $0x656b636f,0x20(%rbp)
  402f26:	48 89 45 00          	mov    %rax,0x0(%rbp)
  402f2a:	48 b8 6c 69 65 6e 74 	movabs $0x6e7520746e65696c,%rax
  402f31:	20 75 6e 
  402f34:	66 89 7d 24          	mov    %di,0x24(%rbp)
  402f38:	48 89 45 08          	mov    %rax,0x8(%rbp)
  402f3c:	48 b8 61 62 6c 65 20 	movabs $0x206f7420656c6261,%rax
  402f43:	74 6f 20 
  402f46:	48 89 45 10          	mov    %rax,0x10(%rbp)
  402f4a:	48 b8 63 72 65 61 74 	movabs $0x7320657461657263,%rax
  402f51:	65 20 73 
  402f54:	48 89 45 18          	mov    %rax,0x18(%rbp)
  402f58:	b8 ff ff ff ff       	mov    $0xffffffff,%eax
  402f5d:	eb 90                	jmp    402eef <init_driver+0xdf>
  402f5f:	90                   	nop
  402f60:	41 b8 38 42 40 00    	mov    $0x404238,%r8d
  402f66:	b9 f8 41 40 00       	mov    $0x4041f8,%ecx
  402f6b:	48 c7 c2 ff ff ff ff 	mov    $0xffffffffffffffff,%rdx
  402f72:	be 01 00 00 00       	mov    $0x1,%esi
  402f77:	48 89 ef             	mov    %rbp,%rdi
  402f7a:	31 c0                	xor    %eax,%eax
  402f7c:	e8 5f df ff ff       	callq  400ee0 <__sprintf_chk@plt>
  402f81:	89 df                	mov    %ebx,%edi
  402f83:	e8 e8 dd ff ff       	callq  400d70 <close@plt>
  402f88:	b8 ff ff ff ff       	mov    $0xffffffff,%eax
  402f8d:	e9 5d ff ff ff       	jmpq   402eef <init_driver+0xdf>
  402f92:	48 b8 45 72 72 6f 72 	movabs $0x44203a726f727245,%rax
  402f99:	3a 20 44 
  402f9c:	be 73 73 00 00       	mov    $0x7373,%esi
  402fa1:	c7 45 28 64 64 72 65 	movl   $0x65726464,0x28(%rbp)
  402fa8:	48 89 45 00          	mov    %rax,0x0(%rbp)
  402fac:	48 b8 4e 53 20 69 73 	movabs $0x6e7520736920534e,%rax
  402fb3:	20 75 6e 
  402fb6:	66 89 75 2c          	mov    %si,0x2c(%rbp)
  402fba:	48 89 45 08          	mov    %rax,0x8(%rbp)
  402fbe:	48 b8 61 62 6c 65 20 	movabs $0x206f7420656c6261,%rax
  402fc5:	74 6f 20 
  402fc8:	c6 45 2e 00          	movb   $0x0,0x2e(%rbp)
  402fcc:	48 89 45 10          	mov    %rax,0x10(%rbp)
  402fd0:	48 b8 72 65 73 6f 6c 	movabs $0x2065766c6f736572,%rax
  402fd7:	76 65 20 
  402fda:	89 df                	mov    %ebx,%edi
  402fdc:	48 89 45 18          	mov    %rax,0x18(%rbp)
  402fe0:	48 b8 73 65 72 76 65 	movabs $0x6120726576726573,%rax
  402fe7:	72 20 61 
  402fea:	48 89 45 20          	mov    %rax,0x20(%rbp)
  402fee:	e8 7d dd ff ff       	callq  400d70 <close@plt>
  402ff3:	b8 ff ff ff ff       	mov    $0xffffffff,%eax
  402ff8:	e9 f2 fe ff ff       	jmpq   402eef <init_driver+0xdf>
  402ffd:	e8 3e dd ff ff       	callq  400d40 <__stack_chk_fail@plt>
  403002:	0f 1f 40 00          	nopl   0x0(%rax)
  403006:	66 2e 0f 1f 84 00 00 	nopw   %cs:0x0(%rax,%rax,1)
  40300d:	00 00 00 
  403010:	48 83 ec 18          	sub    $0x18,%rsp
  403014:	85 c9                	test   %ecx,%ecx
  403016:	75 28                	jne    403040 <init_driver+0x230>
  403018:	48 85 ff             	test   %rdi,%rdi
  40301b:	74 05                	je     403022 <init_driver+0x212>
  40301d:	80 3f 00             	cmpb   $0x0,(%rdi)
  403020:	75 4e                	jne    403070 <init_driver+0x260>
  403022:	b8 4f 4b 00 00       	mov    $0x4b4f,%eax
  403027:	41 c6 40 02 00       	movb   $0x0,0x2(%r8)
  40302c:	66 41 89 00          	mov    %ax,(%r8)
  403030:	31 c0                	xor    %eax,%eax
  403032:	48 83 c4 18          	add    $0x18,%rsp
  403036:	c3                   	retq   
  403037:	66 0f 1f 84 00 00 00 	nopw   0x0(%rax,%rax,1)
  40303e:	00 00 
  403040:	be 4a 42 40 00       	mov    $0x40424a,%esi
  403045:	bf 01 00 00 00       	mov    $0x1,%edi
  40304a:	31 c0                	xor    %eax,%eax
  40304c:	4c 89 44 24 08       	mov    %r8,0x8(%rsp)
  403051:	e8 fa dd ff ff       	callq  400e50 <__printf_chk@plt>
  403056:	4c 8b 44 24 08       	mov    0x8(%rsp),%r8
  40305b:	be 4f 4b 00 00       	mov    $0x4b4f,%esi
  403060:	31 c0                	xor    %eax,%eax
  403062:	66 41 89 30          	mov    %si,(%r8)
  403066:	41 c6 40 02 00       	movb   $0x0,0x2(%r8)
  40306b:	48 83 c4 18          	add    $0x18,%rsp
  40306f:	c3                   	retq   
  403070:	41 50                	push   %r8
  403072:	52                   	push   %rdx
  403073:	48 89 f9             	mov    %rdi,%rcx
  403076:	49 89 f0             	mov    %rsi,%r8
  403079:	ba 65 42 40 00       	mov    $0x404265,%edx
  40307e:	41 b9 61 42 40 00    	mov    $0x404261,%r9d
  403084:	be 6d 3b 00 00       	mov    $0x3b6d,%esi
  403089:	bf 38 42 40 00       	mov    $0x404238,%edi
  40308e:	e8 8d f4 ff ff       	callq  402520 <rio_readlineb.constprop.0+0xc0>
  403093:	5a                   	pop    %rdx
  403094:	59                   	pop    %rcx
  403095:	48 83 c4 18          	add    $0x18,%rsp
  403099:	c3                   	retq   
  40309a:	66 0f 1f 44 00 00    	nopw   0x0(%rax,%rax,1)

00000000004030a0 <__libc_csu_init>:
  4030a0:	41 57                	push   %r15
  4030a2:	41 56                	push   %r14
  4030a4:	41 89 ff             	mov    %edi,%r15d
  4030a7:	41 55                	push   %r13
  4030a9:	41 54                	push   %r12
  4030ab:	4c 8d 25 5e 1d 20 00 	lea    0x201d5e(%rip),%r12        # 604e10 <__frame_dummy_init_array_entry>
  4030b2:	55                   	push   %rbp
  4030b3:	48 8d 2d 5e 1d 20 00 	lea    0x201d5e(%rip),%rbp        # 604e18 <__init_array_end>
  4030ba:	53                   	push   %rbx
  4030bb:	49 89 f6             	mov    %rsi,%r14
  4030be:	49 89 d5             	mov    %rdx,%r13
  4030c1:	4c 29 e5             	sub    %r12,%rbp
  4030c4:	48 83 ec 08          	sub    $0x8,%rsp
  4030c8:	48 c1 fd 03          	sar    $0x3,%rbp
  4030cc:	e8 c7 db ff ff       	callq  400c98 <_init>
  4030d1:	48 85 ed             	test   %rbp,%rbp
  4030d4:	74 20                	je     4030f6 <__libc_csu_init+0x56>
  4030d6:	31 db                	xor    %ebx,%ebx
  4030d8:	0f 1f 84 00 00 00 00 	nopl   0x0(%rax,%rax,1)
  4030df:	00 
  4030e0:	4c 89 ea             	mov    %r13,%rdx
  4030e3:	4c 89 f6             	mov    %r14,%rsi
  4030e6:	44 89 ff             	mov    %r15d,%edi
  4030e9:	41 ff 14 dc          	callq  *(%r12,%rbx,8)
  4030ed:	48 83 c3 01          	add    $0x1,%rbx
  4030f1:	48 39 eb             	cmp    %rbp,%rbx
  4030f4:	75 ea                	jne    4030e0 <__libc_csu_init+0x40>
  4030f6:	48 83 c4 08          	add    $0x8,%rsp
  4030fa:	5b                   	pop    %rbx
  4030fb:	5d                   	pop    %rbp
  4030fc:	41 5c                	pop    %r12
  4030fe:	41 5d                	pop    %r13
  403100:	41 5e                	pop    %r14
  403102:	41 5f                	pop    %r15
  403104:	c3                   	retq   
  403105:	90                   	nop
  403106:	66 2e 0f 1f 84 00 00 	nopw   %cs:0x0(%rax,%rax,1)
  40310d:	00 00 00 

0000000000403110 <__libc_csu_fini>:
  403110:	f3 c3                	repz retq 

Disassembly of section .fini:

0000000000403114 <_fini>:
  403114:	48 83 ec 08          	sub    $0x8,%rsp
  403118:	48 83 c4 08          	add    $0x8,%rsp
  40311c:	c3                   	retq   
