
ctarget:     file format elf64-x86-64


Disassembly of section .init:

0000000000400c48 <_init>:
  400c48:	48 83 ec 08          	sub    $0x8,%rsp
  400c4c:	48 8b 05 a5 43 20 00 	mov    0x2043a5(%rip),%rax        # 604ff8 <_DYNAMIC+0x1d0>
  400c53:	48 85 c0             	test   %rax,%rax
  400c56:	74 05                	je     400c5d <_init+0x15>
  400c58:	e8 43 02 00 00       	callq  400ea0 <socket@plt+0x10>
  400c5d:	48 83 c4 08          	add    $0x8,%rsp
  400c61:	c3                   	retq   

Disassembly of section .plt:

0000000000400c70 <strcasecmp@plt-0x10>:
  400c70:	ff 35 92 43 20 00    	pushq  0x204392(%rip)        # 605008 <_GLOBAL_OFFSET_TABLE_+0x8>
  400c76:	ff 25 94 43 20 00    	jmpq   *0x204394(%rip)        # 605010 <_GLOBAL_OFFSET_TABLE_+0x10>
  400c7c:	0f 1f 40 00          	nopl   0x0(%rax)

0000000000400c80 <strcasecmp@plt>:
  400c80:	ff 25 92 43 20 00    	jmpq   *0x204392(%rip)        # 605018 <_GLOBAL_OFFSET_TABLE_+0x18>
  400c86:	68 00 00 00 00       	pushq  $0x0
  400c8b:	e9 e0 ff ff ff       	jmpq   400c70 <_init+0x28>

0000000000400c90 <__errno_location@plt>:
  400c90:	ff 25 8a 43 20 00    	jmpq   *0x20438a(%rip)        # 605020 <_GLOBAL_OFFSET_TABLE_+0x20>
  400c96:	68 01 00 00 00       	pushq  $0x1
  400c9b:	e9 d0 ff ff ff       	jmpq   400c70 <_init+0x28>

0000000000400ca0 <srandom@plt>:
  400ca0:	ff 25 82 43 20 00    	jmpq   *0x204382(%rip)        # 605028 <_GLOBAL_OFFSET_TABLE_+0x28>
  400ca6:	68 02 00 00 00       	pushq  $0x2
  400cab:	e9 c0 ff ff ff       	jmpq   400c70 <_init+0x28>

0000000000400cb0 <strncmp@plt>:
  400cb0:	ff 25 7a 43 20 00    	jmpq   *0x20437a(%rip)        # 605030 <_GLOBAL_OFFSET_TABLE_+0x30>
  400cb6:	68 03 00 00 00       	pushq  $0x3
  400cbb:	e9 b0 ff ff ff       	jmpq   400c70 <_init+0x28>

0000000000400cc0 <strcpy@plt>:
  400cc0:	ff 25 72 43 20 00    	jmpq   *0x204372(%rip)        # 605038 <_GLOBAL_OFFSET_TABLE_+0x38>
  400cc6:	68 04 00 00 00       	pushq  $0x4
  400ccb:	e9 a0 ff ff ff       	jmpq   400c70 <_init+0x28>

0000000000400cd0 <puts@plt>:
  400cd0:	ff 25 6a 43 20 00    	jmpq   *0x20436a(%rip)        # 605040 <_GLOBAL_OFFSET_TABLE_+0x40>
  400cd6:	68 05 00 00 00       	pushq  $0x5
  400cdb:	e9 90 ff ff ff       	jmpq   400c70 <_init+0x28>

0000000000400ce0 <write@plt>:
  400ce0:	ff 25 62 43 20 00    	jmpq   *0x204362(%rip)        # 605048 <_GLOBAL_OFFSET_TABLE_+0x48>
  400ce6:	68 06 00 00 00       	pushq  $0x6
  400ceb:	e9 80 ff ff ff       	jmpq   400c70 <_init+0x28>

0000000000400cf0 <__stack_chk_fail@plt>:
  400cf0:	ff 25 5a 43 20 00    	jmpq   *0x20435a(%rip)        # 605050 <_GLOBAL_OFFSET_TABLE_+0x50>
  400cf6:	68 07 00 00 00       	pushq  $0x7
  400cfb:	e9 70 ff ff ff       	jmpq   400c70 <_init+0x28>

0000000000400d00 <mmap@plt>:
  400d00:	ff 25 52 43 20 00    	jmpq   *0x204352(%rip)        # 605058 <_GLOBAL_OFFSET_TABLE_+0x58>
  400d06:	68 08 00 00 00       	pushq  $0x8
  400d0b:	e9 60 ff ff ff       	jmpq   400c70 <_init+0x28>

0000000000400d10 <memset@plt>:
  400d10:	ff 25 4a 43 20 00    	jmpq   *0x20434a(%rip)        # 605060 <_GLOBAL_OFFSET_TABLE_+0x60>
  400d16:	68 09 00 00 00       	pushq  $0x9
  400d1b:	e9 50 ff ff ff       	jmpq   400c70 <_init+0x28>

0000000000400d20 <alarm@plt>:
  400d20:	ff 25 42 43 20 00    	jmpq   *0x204342(%rip)        # 605068 <_GLOBAL_OFFSET_TABLE_+0x68>
  400d26:	68 0a 00 00 00       	pushq  $0xa
  400d2b:	e9 40 ff ff ff       	jmpq   400c70 <_init+0x28>

0000000000400d30 <close@plt>:
  400d30:	ff 25 3a 43 20 00    	jmpq   *0x20433a(%rip)        # 605070 <_GLOBAL_OFFSET_TABLE_+0x70>
  400d36:	68 0b 00 00 00       	pushq  $0xb
  400d3b:	e9 30 ff ff ff       	jmpq   400c70 <_init+0x28>

0000000000400d40 <read@plt>:
  400d40:	ff 25 32 43 20 00    	jmpq   *0x204332(%rip)        # 605078 <_GLOBAL_OFFSET_TABLE_+0x78>
  400d46:	68 0c 00 00 00       	pushq  $0xc
  400d4b:	e9 20 ff ff ff       	jmpq   400c70 <_init+0x28>

0000000000400d50 <__libc_start_main@plt>:
  400d50:	ff 25 2a 43 20 00    	jmpq   *0x20432a(%rip)        # 605080 <_GLOBAL_OFFSET_TABLE_+0x80>
  400d56:	68 0d 00 00 00       	pushq  $0xd
  400d5b:	e9 10 ff ff ff       	jmpq   400c70 <_init+0x28>

0000000000400d60 <signal@plt>:
  400d60:	ff 25 22 43 20 00    	jmpq   *0x204322(%rip)        # 605088 <_GLOBAL_OFFSET_TABLE_+0x88>
  400d66:	68 0e 00 00 00       	pushq  $0xe
  400d6b:	e9 00 ff ff ff       	jmpq   400c70 <_init+0x28>

0000000000400d70 <gethostbyname@plt>:
  400d70:	ff 25 1a 43 20 00    	jmpq   *0x20431a(%rip)        # 605090 <_GLOBAL_OFFSET_TABLE_+0x90>
  400d76:	68 0f 00 00 00       	pushq  $0xf
  400d7b:	e9 f0 fe ff ff       	jmpq   400c70 <_init+0x28>

0000000000400d80 <__memmove_chk@plt>:
  400d80:	ff 25 12 43 20 00    	jmpq   *0x204312(%rip)        # 605098 <_GLOBAL_OFFSET_TABLE_+0x98>
  400d86:	68 10 00 00 00       	pushq  $0x10
  400d8b:	e9 e0 fe ff ff       	jmpq   400c70 <_init+0x28>

0000000000400d90 <strtol@plt>:
  400d90:	ff 25 0a 43 20 00    	jmpq   *0x20430a(%rip)        # 6050a0 <_GLOBAL_OFFSET_TABLE_+0xa0>
  400d96:	68 11 00 00 00       	pushq  $0x11
  400d9b:	e9 d0 fe ff ff       	jmpq   400c70 <_init+0x28>

0000000000400da0 <memcpy@plt>:
  400da0:	ff 25 02 43 20 00    	jmpq   *0x204302(%rip)        # 6050a8 <_GLOBAL_OFFSET_TABLE_+0xa8>
  400da6:	68 12 00 00 00       	pushq  $0x12
  400dab:	e9 c0 fe ff ff       	jmpq   400c70 <_init+0x28>

0000000000400db0 <time@plt>:
  400db0:	ff 25 fa 42 20 00    	jmpq   *0x2042fa(%rip)        # 6050b0 <_GLOBAL_OFFSET_TABLE_+0xb0>
  400db6:	68 13 00 00 00       	pushq  $0x13
  400dbb:	e9 b0 fe ff ff       	jmpq   400c70 <_init+0x28>

0000000000400dc0 <random@plt>:
  400dc0:	ff 25 f2 42 20 00    	jmpq   *0x2042f2(%rip)        # 6050b8 <_GLOBAL_OFFSET_TABLE_+0xb8>
  400dc6:	68 14 00 00 00       	pushq  $0x14
  400dcb:	e9 a0 fe ff ff       	jmpq   400c70 <_init+0x28>

0000000000400dd0 <_IO_getc@plt>:
  400dd0:	ff 25 ea 42 20 00    	jmpq   *0x2042ea(%rip)        # 6050c0 <_GLOBAL_OFFSET_TABLE_+0xc0>
  400dd6:	68 15 00 00 00       	pushq  $0x15
  400ddb:	e9 90 fe ff ff       	jmpq   400c70 <_init+0x28>

0000000000400de0 <__isoc99_sscanf@plt>:
  400de0:	ff 25 e2 42 20 00    	jmpq   *0x2042e2(%rip)        # 6050c8 <_GLOBAL_OFFSET_TABLE_+0xc8>
  400de6:	68 16 00 00 00       	pushq  $0x16
  400deb:	e9 80 fe ff ff       	jmpq   400c70 <_init+0x28>

0000000000400df0 <munmap@plt>:
  400df0:	ff 25 da 42 20 00    	jmpq   *0x2042da(%rip)        # 6050d0 <_GLOBAL_OFFSET_TABLE_+0xd0>
  400df6:	68 17 00 00 00       	pushq  $0x17
  400dfb:	e9 70 fe ff ff       	jmpq   400c70 <_init+0x28>

0000000000400e00 <__printf_chk@plt>:
  400e00:	ff 25 d2 42 20 00    	jmpq   *0x2042d2(%rip)        # 6050d8 <_GLOBAL_OFFSET_TABLE_+0xd8>
  400e06:	68 18 00 00 00       	pushq  $0x18
  400e0b:	e9 60 fe ff ff       	jmpq   400c70 <_init+0x28>

0000000000400e10 <fopen@plt>:
  400e10:	ff 25 ca 42 20 00    	jmpq   *0x2042ca(%rip)        # 6050e0 <_GLOBAL_OFFSET_TABLE_+0xe0>
  400e16:	68 19 00 00 00       	pushq  $0x19
  400e1b:	e9 50 fe ff ff       	jmpq   400c70 <_init+0x28>

0000000000400e20 <getopt@plt>:
  400e20:	ff 25 c2 42 20 00    	jmpq   *0x2042c2(%rip)        # 6050e8 <_GLOBAL_OFFSET_TABLE_+0xe8>
  400e26:	68 1a 00 00 00       	pushq  $0x1a
  400e2b:	e9 40 fe ff ff       	jmpq   400c70 <_init+0x28>

0000000000400e30 <strtoul@plt>:
  400e30:	ff 25 ba 42 20 00    	jmpq   *0x2042ba(%rip)        # 6050f0 <_GLOBAL_OFFSET_TABLE_+0xf0>
  400e36:	68 1b 00 00 00       	pushq  $0x1b
  400e3b:	e9 30 fe ff ff       	jmpq   400c70 <_init+0x28>

0000000000400e40 <gethostname@plt>:
  400e40:	ff 25 b2 42 20 00    	jmpq   *0x2042b2(%rip)        # 6050f8 <_GLOBAL_OFFSET_TABLE_+0xf8>
  400e46:	68 1c 00 00 00       	pushq  $0x1c
  400e4b:	e9 20 fe ff ff       	jmpq   400c70 <_init+0x28>

0000000000400e50 <exit@plt>:
  400e50:	ff 25 aa 42 20 00    	jmpq   *0x2042aa(%rip)        # 605100 <_GLOBAL_OFFSET_TABLE_+0x100>
  400e56:	68 1d 00 00 00       	pushq  $0x1d
  400e5b:	e9 10 fe ff ff       	jmpq   400c70 <_init+0x28>

0000000000400e60 <connect@plt>:
  400e60:	ff 25 a2 42 20 00    	jmpq   *0x2042a2(%rip)        # 605108 <_GLOBAL_OFFSET_TABLE_+0x108>
  400e66:	68 1e 00 00 00       	pushq  $0x1e
  400e6b:	e9 00 fe ff ff       	jmpq   400c70 <_init+0x28>

0000000000400e70 <__fprintf_chk@plt>:
  400e70:	ff 25 9a 42 20 00    	jmpq   *0x20429a(%rip)        # 605110 <_GLOBAL_OFFSET_TABLE_+0x110>
  400e76:	68 1f 00 00 00       	pushq  $0x1f
  400e7b:	e9 f0 fd ff ff       	jmpq   400c70 <_init+0x28>

0000000000400e80 <__sprintf_chk@plt>:
  400e80:	ff 25 92 42 20 00    	jmpq   *0x204292(%rip)        # 605118 <_GLOBAL_OFFSET_TABLE_+0x118>
  400e86:	68 20 00 00 00       	pushq  $0x20
  400e8b:	e9 e0 fd ff ff       	jmpq   400c70 <_init+0x28>

0000000000400e90 <socket@plt>:
  400e90:	ff 25 8a 42 20 00    	jmpq   *0x20428a(%rip)        # 605120 <_GLOBAL_OFFSET_TABLE_+0x120>
  400e96:	68 21 00 00 00       	pushq  $0x21
  400e9b:	e9 d0 fd ff ff       	jmpq   400c70 <_init+0x28>

Disassembly of section .plt.got:

0000000000400ea0 <.plt.got>:
  400ea0:	ff 25 52 41 20 00    	jmpq   *0x204152(%rip)        # 604ff8 <_DYNAMIC+0x1d0>
  400ea6:	66 90                	xchg   %ax,%ax

Disassembly of section .text:

0000000000400eb0 <_start>:
  400eb0:	31 ed                	xor    %ebp,%ebp
  400eb2:	49 89 d1             	mov    %rdx,%r9
  400eb5:	5e                   	pop    %rsi
  400eb6:	48 89 e2             	mov    %rsp,%rdx
  400eb9:	48 83 e4 f0          	and    $0xfffffffffffffff0,%rsp
  400ebd:	50                   	push   %rax
  400ebe:	54                   	push   %rsp
  400ebf:	49 c7 c0 e0 2e 40 00 	mov    $0x402ee0,%r8
  400ec6:	48 c7 c1 70 2e 40 00 	mov    $0x402e70,%rcx
  400ecd:	48 c7 c7 b5 11 40 00 	mov    $0x4011b5,%rdi
  400ed4:	e8 77 fe ff ff       	callq  400d50 <__libc_start_main@plt>
  400ed9:	f4                   	hlt    
  400eda:	66 0f 1f 44 00 00    	nopw   0x0(%rax,%rax,1)

0000000000400ee0 <deregister_tm_clones>:
  400ee0:	b8 b7 54 60 00       	mov    $0x6054b7,%eax
  400ee5:	55                   	push   %rbp
  400ee6:	48 2d b0 54 60 00    	sub    $0x6054b0,%rax
  400eec:	48 83 f8 0e          	cmp    $0xe,%rax
  400ef0:	48 89 e5             	mov    %rsp,%rbp
  400ef3:	76 1b                	jbe    400f10 <deregister_tm_clones+0x30>
  400ef5:	b8 00 00 00 00       	mov    $0x0,%eax
  400efa:	48 85 c0             	test   %rax,%rax
  400efd:	74 11                	je     400f10 <deregister_tm_clones+0x30>
  400eff:	5d                   	pop    %rbp
  400f00:	bf b0 54 60 00       	mov    $0x6054b0,%edi
  400f05:	ff e0                	jmpq   *%rax
  400f07:	66 0f 1f 84 00 00 00 	nopw   0x0(%rax,%rax,1)
  400f0e:	00 00 
  400f10:	5d                   	pop    %rbp
  400f11:	c3                   	retq   
  400f12:	0f 1f 40 00          	nopl   0x0(%rax)
  400f16:	66 2e 0f 1f 84 00 00 	nopw   %cs:0x0(%rax,%rax,1)
  400f1d:	00 00 00 

0000000000400f20 <register_tm_clones>:
  400f20:	be b0 54 60 00       	mov    $0x6054b0,%esi
  400f25:	55                   	push   %rbp
  400f26:	48 81 ee b0 54 60 00 	sub    $0x6054b0,%rsi
  400f2d:	48 c1 fe 03          	sar    $0x3,%rsi
  400f31:	48 89 e5             	mov    %rsp,%rbp
  400f34:	48 89 f0             	mov    %rsi,%rax
  400f37:	48 c1 e8 3f          	shr    $0x3f,%rax
  400f3b:	48 01 c6             	add    %rax,%rsi
  400f3e:	48 d1 fe             	sar    %rsi
  400f41:	74 15                	je     400f58 <register_tm_clones+0x38>
  400f43:	b8 00 00 00 00       	mov    $0x0,%eax
  400f48:	48 85 c0             	test   %rax,%rax
  400f4b:	74 0b                	je     400f58 <register_tm_clones+0x38>
  400f4d:	5d                   	pop    %rbp
  400f4e:	bf b0 54 60 00       	mov    $0x6054b0,%edi
  400f53:	ff e0                	jmpq   *%rax
  400f55:	0f 1f 00             	nopl   (%rax)
  400f58:	5d                   	pop    %rbp
  400f59:	c3                   	retq   
  400f5a:	66 0f 1f 44 00 00    	nopw   0x0(%rax,%rax,1)

0000000000400f60 <__do_global_dtors_aux>:
  400f60:	80 3d 81 45 20 00 00 	cmpb   $0x0,0x204581(%rip)        # 6054e8 <completed.7585>
  400f67:	75 11                	jne    400f7a <__do_global_dtors_aux+0x1a>
  400f69:	55                   	push   %rbp
  400f6a:	48 89 e5             	mov    %rsp,%rbp
  400f6d:	e8 6e ff ff ff       	callq  400ee0 <deregister_tm_clones>
  400f72:	5d                   	pop    %rbp
  400f73:	c6 05 6e 45 20 00 01 	movb   $0x1,0x20456e(%rip)        # 6054e8 <completed.7585>
  400f7a:	f3 c3                	repz retq 
  400f7c:	0f 1f 40 00          	nopl   0x0(%rax)

0000000000400f80 <frame_dummy>:
  400f80:	bf 20 4e 60 00       	mov    $0x604e20,%edi
  400f85:	48 83 3f 00          	cmpq   $0x0,(%rdi)
  400f89:	75 05                	jne    400f90 <frame_dummy+0x10>
  400f8b:	eb 93                	jmp    400f20 <register_tm_clones>
  400f8d:	0f 1f 00             	nopl   (%rax)
  400f90:	b8 00 00 00 00       	mov    $0x0,%eax
  400f95:	48 85 c0             	test   %rax,%rax
  400f98:	74 f1                	je     400f8b <frame_dummy+0xb>
  400f9a:	55                   	push   %rbp
  400f9b:	48 89 e5             	mov    %rsp,%rbp
  400f9e:	ff d0                	callq  *%rax
  400fa0:	5d                   	pop    %rbp
  400fa1:	e9 7a ff ff ff       	jmpq   400f20 <register_tm_clones>

0000000000400fa6 <usage>:
  400fa6:	48 83 ec 08          	sub    $0x8,%rsp
  400faa:	48 89 fa             	mov    %rdi,%rdx
  400fad:	83 3d 74 45 20 00 00 	cmpl   $0x0,0x204574(%rip)        # 605528 <is_checker>
  400fb4:	74 3e                	je     400ff4 <usage+0x4e>
  400fb6:	be f8 2e 40 00       	mov    $0x402ef8,%esi
  400fbb:	bf 01 00 00 00       	mov    $0x1,%edi
  400fc0:	b8 00 00 00 00       	mov    $0x0,%eax
  400fc5:	e8 36 fe ff ff       	callq  400e00 <__printf_chk@plt>
  400fca:	bf 30 2f 40 00       	mov    $0x402f30,%edi
  400fcf:	e8 fc fc ff ff       	callq  400cd0 <puts@plt>
  400fd4:	bf a8 30 40 00       	mov    $0x4030a8,%edi
  400fd9:	e8 f2 fc ff ff       	callq  400cd0 <puts@plt>
  400fde:	bf 58 2f 40 00       	mov    $0x402f58,%edi
  400fe3:	e8 e8 fc ff ff       	callq  400cd0 <puts@plt>
  400fe8:	bf c2 30 40 00       	mov    $0x4030c2,%edi
  400fed:	e8 de fc ff ff       	callq  400cd0 <puts@plt>
  400ff2:	eb 32                	jmp    401026 <usage+0x80>
  400ff4:	be de 30 40 00       	mov    $0x4030de,%esi
  400ff9:	bf 01 00 00 00       	mov    $0x1,%edi
  400ffe:	b8 00 00 00 00       	mov    $0x0,%eax
  401003:	e8 f8 fd ff ff       	callq  400e00 <__printf_chk@plt>
  401008:	bf 80 2f 40 00       	mov    $0x402f80,%edi
  40100d:	e8 be fc ff ff       	callq  400cd0 <puts@plt>
  401012:	bf a8 2f 40 00       	mov    $0x402fa8,%edi
  401017:	e8 b4 fc ff ff       	callq  400cd0 <puts@plt>
  40101c:	bf fc 30 40 00       	mov    $0x4030fc,%edi
  401021:	e8 aa fc ff ff       	callq  400cd0 <puts@plt>
  401026:	bf 00 00 00 00       	mov    $0x0,%edi
  40102b:	e8 20 fe ff ff       	callq  400e50 <exit@plt>

0000000000401030 <initialize_target>:
  401030:	55                   	push   %rbp
  401031:	53                   	push   %rbx
  401032:	48 81 ec 18 21 00 00 	sub    $0x2118,%rsp
  401039:	89 f5                	mov    %esi,%ebp
  40103b:	64 48 8b 04 25 28 00 	mov    %fs:0x28,%rax
  401042:	00 00 
  401044:	48 89 84 24 08 21 00 	mov    %rax,0x2108(%rsp)
  40104b:	00 
  40104c:	31 c0                	xor    %eax,%eax
  40104e:	89 3d c4 44 20 00    	mov    %edi,0x2044c4(%rip)        # 605518 <check_level>
  401054:	8b 3d 0e 41 20 00    	mov    0x20410e(%rip),%edi        # 605168 <target_id>
  40105a:	e8 ea 1d 00 00       	callq  402e49 <gencookie>
  40105f:	89 05 bf 44 20 00    	mov    %eax,0x2044bf(%rip)        # 605524 <cookie>
  401065:	89 c7                	mov    %eax,%edi
  401067:	e8 dd 1d 00 00       	callq  402e49 <gencookie>
  40106c:	89 05 ae 44 20 00    	mov    %eax,0x2044ae(%rip)        # 605520 <authkey>
  401072:	8b 05 f0 40 20 00    	mov    0x2040f0(%rip),%eax        # 605168 <target_id>
  401078:	8d 78 01             	lea    0x1(%rax),%edi
  40107b:	e8 20 fc ff ff       	callq  400ca0 <srandom@plt>
  401080:	e8 3b fd ff ff       	callq  400dc0 <random@plt>
  401085:	89 c7                	mov    %eax,%edi
  401087:	e8 03 03 00 00       	callq  40138f <scramble>
  40108c:	89 c3                	mov    %eax,%ebx
  40108e:	85 ed                	test   %ebp,%ebp
  401090:	74 18                	je     4010aa <initialize_target+0x7a>
  401092:	bf 00 00 00 00       	mov    $0x0,%edi
  401097:	e8 14 fd ff ff       	callq  400db0 <time@plt>
  40109c:	89 c7                	mov    %eax,%edi
  40109e:	e8 fd fb ff ff       	callq  400ca0 <srandom@plt>
  4010a3:	e8 18 fd ff ff       	callq  400dc0 <random@plt>
  4010a8:	eb 05                	jmp    4010af <initialize_target+0x7f>
  4010aa:	b8 00 00 00 00       	mov    $0x0,%eax
  4010af:	01 c3                	add    %eax,%ebx
  4010b1:	0f b7 db             	movzwl %bx,%ebx
  4010b4:	8d 04 dd 00 01 00 00 	lea    0x100(,%rbx,8),%eax
  4010bb:	89 c0                	mov    %eax,%eax
  4010bd:	48 89 05 dc 43 20 00 	mov    %rax,0x2043dc(%rip)        # 6054a0 <buf_offset>
  4010c4:	c6 05 7d 50 20 00 63 	movb   $0x63,0x20507d(%rip)        # 606148 <target_prefix>
  4010cb:	83 3d d6 43 20 00 00 	cmpl   $0x0,0x2043d6(%rip)        # 6054a8 <notify>
  4010d2:	0f 84 bb 00 00 00    	je     401193 <initialize_target+0x163>
  4010d8:	83 3d 49 44 20 00 00 	cmpl   $0x0,0x204449(%rip)        # 605528 <is_checker>
  4010df:	0f 85 ae 00 00 00    	jne    401193 <initialize_target+0x163>
  4010e5:	be 00 01 00 00       	mov    $0x100,%esi
  4010ea:	48 89 e7             	mov    %rsp,%rdi
  4010ed:	e8 4e fd ff ff       	callq  400e40 <gethostname@plt>
  4010f2:	85 c0                	test   %eax,%eax
  4010f4:	74 25                	je     40111b <initialize_target+0xeb>
  4010f6:	bf d8 2f 40 00       	mov    $0x402fd8,%edi
  4010fb:	e8 d0 fb ff ff       	callq  400cd0 <puts@plt>
  401100:	bf 08 00 00 00       	mov    $0x8,%edi
  401105:	e8 46 fd ff ff       	callq  400e50 <exit@plt>
  40110a:	48 89 e6             	mov    %rsp,%rsi
  40110d:	e8 6e fb ff ff       	callq  400c80 <strcasecmp@plt>
  401112:	85 c0                	test   %eax,%eax
  401114:	74 21                	je     401137 <initialize_target+0x107>
  401116:	83 c3 01             	add    $0x1,%ebx
  401119:	eb 05                	jmp    401120 <initialize_target+0xf0>
  40111b:	bb 00 00 00 00       	mov    $0x0,%ebx
  401120:	48 63 c3             	movslq %ebx,%rax
  401123:	48 8b 3c c5 80 51 60 	mov    0x605180(,%rax,8),%rdi
  40112a:	00 
  40112b:	48 85 ff             	test   %rdi,%rdi
  40112e:	75 da                	jne    40110a <initialize_target+0xda>
  401130:	b8 00 00 00 00       	mov    $0x0,%eax
  401135:	eb 05                	jmp    40113c <initialize_target+0x10c>
  401137:	b8 01 00 00 00       	mov    $0x1,%eax
  40113c:	85 c0                	test   %eax,%eax
  40113e:	75 1c                	jne    40115c <initialize_target+0x12c>
  401140:	48 89 e2             	mov    %rsp,%rdx
  401143:	be 10 30 40 00       	mov    $0x403010,%esi
  401148:	bf 01 00 00 00       	mov    $0x1,%edi
  40114d:	e8 ae fc ff ff       	callq  400e00 <__printf_chk@plt>
  401152:	bf 08 00 00 00       	mov    $0x8,%edi
  401157:	e8 f4 fc ff ff       	callq  400e50 <exit@plt>
  40115c:	48 8d bc 24 00 01 00 	lea    0x100(%rsp),%rdi
  401163:	00 
  401164:	e8 4a 1a 00 00       	callq  402bb3 <init_driver>
  401169:	85 c0                	test   %eax,%eax
  40116b:	79 26                	jns    401193 <initialize_target+0x163>
  40116d:	48 8d 94 24 00 01 00 	lea    0x100(%rsp),%rdx
  401174:	00 
  401175:	be 50 30 40 00       	mov    $0x403050,%esi
  40117a:	bf 01 00 00 00       	mov    $0x1,%edi
  40117f:	b8 00 00 00 00       	mov    $0x0,%eax
  401184:	e8 77 fc ff ff       	callq  400e00 <__printf_chk@plt>
  401189:	bf 08 00 00 00       	mov    $0x8,%edi
  40118e:	e8 bd fc ff ff       	callq  400e50 <exit@plt>
  401193:	48 8b 84 24 08 21 00 	mov    0x2108(%rsp),%rax
  40119a:	00 
  40119b:	64 48 33 04 25 28 00 	xor    %fs:0x28,%rax
  4011a2:	00 00 
  4011a4:	74 05                	je     4011ab <initialize_target+0x17b>
  4011a6:	e8 45 fb ff ff       	callq  400cf0 <__stack_chk_fail@plt>
  4011ab:	48 81 c4 18 21 00 00 	add    $0x2118,%rsp
  4011b2:	5b                   	pop    %rbx
  4011b3:	5d                   	pop    %rbp
  4011b4:	c3                   	retq   

00000000004011b5 <main>:
  4011b5:	41 56                	push   %r14
  4011b7:	41 55                	push   %r13
  4011b9:	41 54                	push   %r12
  4011bb:	55                   	push   %rbp
  4011bc:	53                   	push   %rbx
  4011bd:	41 89 fc             	mov    %edi,%r12d
  4011c0:	48 89 f3             	mov    %rsi,%rbx
  4011c3:	be ee 1e 40 00       	mov    $0x401eee,%esi
  4011c8:	bf 0b 00 00 00       	mov    $0xb,%edi
  4011cd:	e8 8e fb ff ff       	callq  400d60 <signal@plt>
  4011d2:	be a0 1e 40 00       	mov    $0x401ea0,%esi
  4011d7:	bf 07 00 00 00       	mov    $0x7,%edi
  4011dc:	e8 7f fb ff ff       	callq  400d60 <signal@plt>
  4011e1:	be 3c 1f 40 00       	mov    $0x401f3c,%esi
  4011e6:	bf 04 00 00 00       	mov    $0x4,%edi
  4011eb:	e8 70 fb ff ff       	callq  400d60 <signal@plt>
  4011f0:	83 3d 31 43 20 00 00 	cmpl   $0x0,0x204331(%rip)        # 605528 <is_checker>
  4011f7:	74 20                	je     401219 <main+0x64>
  4011f9:	be 8a 1f 40 00       	mov    $0x401f8a,%esi
  4011fe:	bf 0e 00 00 00       	mov    $0xe,%edi
  401203:	e8 58 fb ff ff       	callq  400d60 <signal@plt>
  401208:	bf 05 00 00 00       	mov    $0x5,%edi
  40120d:	e8 0e fb ff ff       	callq  400d20 <alarm@plt>
  401212:	bd 1a 31 40 00       	mov    $0x40311a,%ebp
  401217:	eb 05                	jmp    40121e <main+0x69>
  401219:	bd 15 31 40 00       	mov    $0x403115,%ebp
  40121e:	48 8b 05 9b 42 20 00 	mov    0x20429b(%rip),%rax        # 6054c0 <stdin@@GLIBC_2.2.5>
  401225:	48 89 05 e4 42 20 00 	mov    %rax,0x2042e4(%rip)        # 605510 <infile>
  40122c:	41 bd 00 00 00 00    	mov    $0x0,%r13d
  401232:	41 be 00 00 00 00    	mov    $0x0,%r14d
  401238:	e9 c6 00 00 00       	jmpq   401303 <main+0x14e>
  40123d:	83 e8 61             	sub    $0x61,%eax
  401240:	3c 10                	cmp    $0x10,%al
  401242:	0f 87 9c 00 00 00    	ja     4012e4 <main+0x12f>
  401248:	0f b6 c0             	movzbl %al,%eax
  40124b:	ff 24 c5 60 31 40 00 	jmpq   *0x403160(,%rax,8)
  401252:	48 8b 3b             	mov    (%rbx),%rdi
  401255:	e8 4c fd ff ff       	callq  400fa6 <usage>
  40125a:	be c3 32 40 00       	mov    $0x4032c3,%esi
  40125f:	48 8b 3d 62 42 20 00 	mov    0x204262(%rip),%rdi        # 6054c8 <optarg@@GLIBC_2.2.5>
  401266:	e8 a5 fb ff ff       	callq  400e10 <fopen@plt>
  40126b:	48 89 05 9e 42 20 00 	mov    %rax,0x20429e(%rip)        # 605510 <infile>
  401272:	48 85 c0             	test   %rax,%rax
  401275:	0f 85 88 00 00 00    	jne    401303 <main+0x14e>
  40127b:	48 8b 0d 46 42 20 00 	mov    0x204246(%rip),%rcx        # 6054c8 <optarg@@GLIBC_2.2.5>
  401282:	ba 22 31 40 00       	mov    $0x403122,%edx
  401287:	be 01 00 00 00       	mov    $0x1,%esi
  40128c:	48 8b 3d 4d 42 20 00 	mov    0x20424d(%rip),%rdi        # 6054e0 <stderr@@GLIBC_2.2.5>
  401293:	e8 d8 fb ff ff       	callq  400e70 <__fprintf_chk@plt>
  401298:	b8 01 00 00 00       	mov    $0x1,%eax
  40129d:	e9 e4 00 00 00       	jmpq   401386 <main+0x1d1>
  4012a2:	ba 10 00 00 00       	mov    $0x10,%edx
  4012a7:	be 00 00 00 00       	mov    $0x0,%esi
  4012ac:	48 8b 3d 15 42 20 00 	mov    0x204215(%rip),%rdi        # 6054c8 <optarg@@GLIBC_2.2.5>
  4012b3:	e8 78 fb ff ff       	callq  400e30 <strtoul@plt>
  4012b8:	41 89 c6             	mov    %eax,%r14d
  4012bb:	eb 46                	jmp    401303 <main+0x14e>
  4012bd:	ba 0a 00 00 00       	mov    $0xa,%edx
  4012c2:	be 00 00 00 00       	mov    $0x0,%esi
  4012c7:	48 8b 3d fa 41 20 00 	mov    0x2041fa(%rip),%rdi        # 6054c8 <optarg@@GLIBC_2.2.5>
  4012ce:	e8 bd fa ff ff       	callq  400d90 <strtol@plt>
  4012d3:	41 89 c5             	mov    %eax,%r13d
  4012d6:	eb 2b                	jmp    401303 <main+0x14e>
  4012d8:	c7 05 c6 41 20 00 00 	movl   $0x0,0x2041c6(%rip)        # 6054a8 <notify>
  4012df:	00 00 00 
  4012e2:	eb 1f                	jmp    401303 <main+0x14e>
  4012e4:	0f be d2             	movsbl %dl,%edx
  4012e7:	be 3f 31 40 00       	mov    $0x40313f,%esi
  4012ec:	bf 01 00 00 00       	mov    $0x1,%edi
  4012f1:	b8 00 00 00 00       	mov    $0x0,%eax
  4012f6:	e8 05 fb ff ff       	callq  400e00 <__printf_chk@plt>
  4012fb:	48 8b 3b             	mov    (%rbx),%rdi
  4012fe:	e8 a3 fc ff ff       	callq  400fa6 <usage>
  401303:	48 89 ea             	mov    %rbp,%rdx
  401306:	48 89 de             	mov    %rbx,%rsi
  401309:	44 89 e7             	mov    %r12d,%edi
  40130c:	e8 0f fb ff ff       	callq  400e20 <getopt@plt>
  401311:	89 c2                	mov    %eax,%edx
  401313:	3c ff                	cmp    $0xff,%al
  401315:	0f 85 22 ff ff ff    	jne    40123d <main+0x88>
  40131b:	be 00 00 00 00       	mov    $0x0,%esi
  401320:	44 89 ef             	mov    %r13d,%edi
  401323:	e8 08 fd ff ff       	callq  401030 <initialize_target>
  401328:	83 3d f9 41 20 00 00 	cmpl   $0x0,0x2041f9(%rip)        # 605528 <is_checker>
  40132f:	74 2a                	je     40135b <main+0x1a6>
  401331:	44 3b 35 e8 41 20 00 	cmp    0x2041e8(%rip),%r14d        # 605520 <authkey>
  401338:	74 21                	je     40135b <main+0x1a6>
  40133a:	44 89 f2             	mov    %r14d,%edx
  40133d:	be 78 30 40 00       	mov    $0x403078,%esi
  401342:	bf 01 00 00 00       	mov    $0x1,%edi
  401347:	b8 00 00 00 00       	mov    $0x0,%eax
  40134c:	e8 af fa ff ff       	callq  400e00 <__printf_chk@plt>
  401351:	b8 00 00 00 00       	mov    $0x0,%eax
  401356:	e8 e1 07 00 00       	callq  401b3c <check_fail>
  40135b:	8b 15 c3 41 20 00    	mov    0x2041c3(%rip),%edx        # 605524 <cookie>
  401361:	be 52 31 40 00       	mov    $0x403152,%esi
  401366:	bf 01 00 00 00       	mov    $0x1,%edi
  40136b:	b8 00 00 00 00       	mov    $0x0,%eax
  401370:	e8 8b fa ff ff       	callq  400e00 <__printf_chk@plt>
  401375:	48 8b 3d 24 41 20 00 	mov    0x204124(%rip),%rdi        # 6054a0 <buf_offset>
  40137c:	e8 09 0d 00 00       	callq  40208a <stable_launch>
  401381:	b8 00 00 00 00       	mov    $0x0,%eax
  401386:	5b                   	pop    %rbx
  401387:	5d                   	pop    %rbp
  401388:	41 5c                	pop    %r12
  40138a:	41 5d                	pop    %r13
  40138c:	41 5e                	pop    %r14
  40138e:	c3                   	retq   

000000000040138f <scramble>:
  40138f:	48 83 ec 38          	sub    $0x38,%rsp
  401393:	64 48 8b 04 25 28 00 	mov    %fs:0x28,%rax
  40139a:	00 00 
  40139c:	48 89 44 24 28       	mov    %rax,0x28(%rsp)
  4013a1:	31 c0                	xor    %eax,%eax
  4013a3:	eb 10                	jmp    4013b5 <scramble+0x26>
  4013a5:	69 d0 f7 81 00 00    	imul   $0x81f7,%eax,%edx
  4013ab:	01 fa                	add    %edi,%edx
  4013ad:	89 c1                	mov    %eax,%ecx
  4013af:	89 14 8c             	mov    %edx,(%rsp,%rcx,4)
  4013b2:	83 c0 01             	add    $0x1,%eax
  4013b5:	83 f8 09             	cmp    $0x9,%eax
  4013b8:	76 eb                	jbe    4013a5 <scramble+0x16>
  4013ba:	8b 44 24 14          	mov    0x14(%rsp),%eax
  4013be:	69 c0 70 c7 00 00    	imul   $0xc770,%eax,%eax
  4013c4:	89 44 24 14          	mov    %eax,0x14(%rsp)
  4013c8:	8b 44 24 1c          	mov    0x1c(%rsp),%eax
  4013cc:	69 c0 f9 37 00 00    	imul   $0x37f9,%eax,%eax
  4013d2:	89 44 24 1c          	mov    %eax,0x1c(%rsp)
  4013d6:	8b 44 24 08          	mov    0x8(%rsp),%eax
  4013da:	69 c0 33 01 00 00    	imul   $0x133,%eax,%eax
  4013e0:	89 44 24 08          	mov    %eax,0x8(%rsp)
  4013e4:	8b 44 24 0c          	mov    0xc(%rsp),%eax
  4013e8:	69 c0 97 af 00 00    	imul   $0xaf97,%eax,%eax
  4013ee:	89 44 24 0c          	mov    %eax,0xc(%rsp)
  4013f2:	8b 44 24 04          	mov    0x4(%rsp),%eax
  4013f6:	69 c0 af 97 00 00    	imul   $0x97af,%eax,%eax
  4013fc:	89 44 24 04          	mov    %eax,0x4(%rsp)
  401400:	8b 44 24 14          	mov    0x14(%rsp),%eax
  401404:	69 c0 44 4e 00 00    	imul   $0x4e44,%eax,%eax
  40140a:	89 44 24 14          	mov    %eax,0x14(%rsp)
  40140e:	8b 44 24 24          	mov    0x24(%rsp),%eax
  401412:	69 c0 20 52 00 00    	imul   $0x5220,%eax,%eax
  401418:	89 44 24 24          	mov    %eax,0x24(%rsp)
  40141c:	8b 44 24 14          	mov    0x14(%rsp),%eax
  401420:	69 c0 17 3e 00 00    	imul   $0x3e17,%eax,%eax
  401426:	89 44 24 14          	mov    %eax,0x14(%rsp)
  40142a:	8b 44 24 10          	mov    0x10(%rsp),%eax
  40142e:	69 c0 39 86 00 00    	imul   $0x8639,%eax,%eax
  401434:	89 44 24 10          	mov    %eax,0x10(%rsp)
  401438:	8b 44 24 10          	mov    0x10(%rsp),%eax
  40143c:	69 c0 40 64 00 00    	imul   $0x6440,%eax,%eax
  401442:	89 44 24 10          	mov    %eax,0x10(%rsp)
  401446:	8b 44 24 1c          	mov    0x1c(%rsp),%eax
  40144a:	69 c0 79 58 00 00    	imul   $0x5879,%eax,%eax
  401450:	89 44 24 1c          	mov    %eax,0x1c(%rsp)
  401454:	8b 44 24 04          	mov    0x4(%rsp),%eax
  401458:	69 c0 69 34 00 00    	imul   $0x3469,%eax,%eax
  40145e:	89 44 24 04          	mov    %eax,0x4(%rsp)
  401462:	8b 44 24 1c          	mov    0x1c(%rsp),%eax
  401466:	69 c0 68 30 00 00    	imul   $0x3068,%eax,%eax
  40146c:	89 44 24 1c          	mov    %eax,0x1c(%rsp)
  401470:	8b 44 24 0c          	mov    0xc(%rsp),%eax
  401474:	69 c0 e3 eb 00 00    	imul   $0xebe3,%eax,%eax
  40147a:	89 44 24 0c          	mov    %eax,0xc(%rsp)
  40147e:	8b 04 24             	mov    (%rsp),%eax
  401481:	69 c0 e8 c8 00 00    	imul   $0xc8e8,%eax,%eax
  401487:	89 04 24             	mov    %eax,(%rsp)
  40148a:	8b 44 24 10          	mov    0x10(%rsp),%eax
  40148e:	69 c0 6e f3 00 00    	imul   $0xf36e,%eax,%eax
  401494:	89 44 24 10          	mov    %eax,0x10(%rsp)
  401498:	8b 44 24 24          	mov    0x24(%rsp),%eax
  40149c:	69 c0 30 b8 00 00    	imul   $0xb830,%eax,%eax
  4014a2:	89 44 24 24          	mov    %eax,0x24(%rsp)
  4014a6:	8b 44 24 24          	mov    0x24(%rsp),%eax
  4014aa:	69 c0 bf 88 00 00    	imul   $0x88bf,%eax,%eax
  4014b0:	89 44 24 24          	mov    %eax,0x24(%rsp)
  4014b4:	8b 44 24 20          	mov    0x20(%rsp),%eax
  4014b8:	69 c0 5c fb 00 00    	imul   $0xfb5c,%eax,%eax
  4014be:	89 44 24 20          	mov    %eax,0x20(%rsp)
  4014c2:	8b 44 24 24          	mov    0x24(%rsp),%eax
  4014c6:	69 c0 2f a4 00 00    	imul   $0xa42f,%eax,%eax
  4014cc:	89 44 24 24          	mov    %eax,0x24(%rsp)
  4014d0:	8b 44 24 14          	mov    0x14(%rsp),%eax
  4014d4:	69 c0 12 f5 00 00    	imul   $0xf512,%eax,%eax
  4014da:	89 44 24 14          	mov    %eax,0x14(%rsp)
  4014de:	8b 44 24 18          	mov    0x18(%rsp),%eax
  4014e2:	69 c0 56 d0 00 00    	imul   $0xd056,%eax,%eax
  4014e8:	89 44 24 18          	mov    %eax,0x18(%rsp)
  4014ec:	8b 44 24 10          	mov    0x10(%rsp),%eax
  4014f0:	69 c0 40 0f 00 00    	imul   $0xf40,%eax,%eax
  4014f6:	89 44 24 10          	mov    %eax,0x10(%rsp)
  4014fa:	8b 44 24 1c          	mov    0x1c(%rsp),%eax
  4014fe:	69 c0 b3 a4 00 00    	imul   $0xa4b3,%eax,%eax
  401504:	89 44 24 1c          	mov    %eax,0x1c(%rsp)
  401508:	8b 04 24             	mov    (%rsp),%eax
  40150b:	89 c2                	mov    %eax,%edx
  40150d:	c1 e2 0a             	shl    $0xa,%edx
  401510:	c1 e0 0d             	shl    $0xd,%eax
  401513:	29 d0                	sub    %edx,%eax
  401515:	89 04 24             	mov    %eax,(%rsp)
  401518:	8b 44 24 1c          	mov    0x1c(%rsp),%eax
  40151c:	69 c0 33 f1 00 00    	imul   $0xf133,%eax,%eax
  401522:	89 44 24 1c          	mov    %eax,0x1c(%rsp)
  401526:	8b 44 24 1c          	mov    0x1c(%rsp),%eax
  40152a:	69 c0 7f fa 00 00    	imul   $0xfa7f,%eax,%eax
  401530:	89 44 24 1c          	mov    %eax,0x1c(%rsp)
  401534:	8b 44 24 08          	mov    0x8(%rsp),%eax
  401538:	69 c0 1e 17 00 00    	imul   $0x171e,%eax,%eax
  40153e:	89 44 24 08          	mov    %eax,0x8(%rsp)
  401542:	8b 44 24 24          	mov    0x24(%rsp),%eax
  401546:	69 c0 06 1e 00 00    	imul   $0x1e06,%eax,%eax
  40154c:	89 44 24 24          	mov    %eax,0x24(%rsp)
  401550:	8b 04 24             	mov    (%rsp),%eax
  401553:	69 c0 5f 9c 00 00    	imul   $0x9c5f,%eax,%eax
  401559:	89 04 24             	mov    %eax,(%rsp)
  40155c:	8b 44 24 14          	mov    0x14(%rsp),%eax
  401560:	69 c0 41 42 00 00    	imul   $0x4241,%eax,%eax
  401566:	89 44 24 14          	mov    %eax,0x14(%rsp)
  40156a:	8b 44 24 14          	mov    0x14(%rsp),%eax
  40156e:	69 c0 46 77 00 00    	imul   $0x7746,%eax,%eax
  401574:	89 44 24 14          	mov    %eax,0x14(%rsp)
  401578:	8b 44 24 1c          	mov    0x1c(%rsp),%eax
  40157c:	69 c0 35 bb 00 00    	imul   $0xbb35,%eax,%eax
  401582:	89 44 24 1c          	mov    %eax,0x1c(%rsp)
  401586:	8b 44 24 24          	mov    0x24(%rsp),%eax
  40158a:	69 c0 d5 b3 00 00    	imul   $0xb3d5,%eax,%eax
  401590:	89 44 24 24          	mov    %eax,0x24(%rsp)
  401594:	8b 04 24             	mov    (%rsp),%eax
  401597:	69 c0 5c 38 00 00    	imul   $0x385c,%eax,%eax
  40159d:	89 04 24             	mov    %eax,(%rsp)
  4015a0:	8b 44 24 20          	mov    0x20(%rsp),%eax
  4015a4:	69 c0 9c 49 00 00    	imul   $0x499c,%eax,%eax
  4015aa:	89 44 24 20          	mov    %eax,0x20(%rsp)
  4015ae:	8b 44 24 24          	mov    0x24(%rsp),%eax
  4015b2:	69 c0 77 4a 00 00    	imul   $0x4a77,%eax,%eax
  4015b8:	89 44 24 24          	mov    %eax,0x24(%rsp)
  4015bc:	8b 44 24 04          	mov    0x4(%rsp),%eax
  4015c0:	69 c0 a0 74 00 00    	imul   $0x74a0,%eax,%eax
  4015c6:	89 44 24 04          	mov    %eax,0x4(%rsp)
  4015ca:	8b 44 24 24          	mov    0x24(%rsp),%eax
  4015ce:	69 c0 61 28 00 00    	imul   $0x2861,%eax,%eax
  4015d4:	89 44 24 24          	mov    %eax,0x24(%rsp)
  4015d8:	8b 44 24 14          	mov    0x14(%rsp),%eax
  4015dc:	69 c0 30 ef 00 00    	imul   $0xef30,%eax,%eax
  4015e2:	89 44 24 14          	mov    %eax,0x14(%rsp)
  4015e6:	8b 44 24 10          	mov    0x10(%rsp),%eax
  4015ea:	69 c0 47 22 00 00    	imul   $0x2247,%eax,%eax
  4015f0:	89 44 24 10          	mov    %eax,0x10(%rsp)
  4015f4:	8b 44 24 24          	mov    0x24(%rsp),%eax
  4015f8:	69 c0 da b8 00 00    	imul   $0xb8da,%eax,%eax
  4015fe:	89 44 24 24          	mov    %eax,0x24(%rsp)
  401602:	8b 44 24 10          	mov    0x10(%rsp),%eax
  401606:	69 c0 01 06 00 00    	imul   $0x601,%eax,%eax
  40160c:	89 44 24 10          	mov    %eax,0x10(%rsp)
  401610:	8b 44 24 1c          	mov    0x1c(%rsp),%eax
  401614:	69 c0 af 47 00 00    	imul   $0x47af,%eax,%eax
  40161a:	89 44 24 1c          	mov    %eax,0x1c(%rsp)
  40161e:	8b 04 24             	mov    (%rsp),%eax
  401621:	69 c0 f9 d2 00 00    	imul   $0xd2f9,%eax,%eax
  401627:	89 04 24             	mov    %eax,(%rsp)
  40162a:	8b 44 24 08          	mov    0x8(%rsp),%eax
  40162e:	69 c0 f6 0a 00 00    	imul   $0xaf6,%eax,%eax
  401634:	89 44 24 08          	mov    %eax,0x8(%rsp)
  401638:	8b 44 24 10          	mov    0x10(%rsp),%eax
  40163c:	69 c0 db 73 00 00    	imul   $0x73db,%eax,%eax
  401642:	89 44 24 10          	mov    %eax,0x10(%rsp)
  401646:	8b 44 24 08          	mov    0x8(%rsp),%eax
  40164a:	69 c0 ac 0f 00 00    	imul   $0xfac,%eax,%eax
  401650:	89 44 24 08          	mov    %eax,0x8(%rsp)
  401654:	8b 44 24 1c          	mov    0x1c(%rsp),%eax
  401658:	69 c0 42 82 00 00    	imul   $0x8242,%eax,%eax
  40165e:	89 44 24 1c          	mov    %eax,0x1c(%rsp)
  401662:	8b 04 24             	mov    (%rsp),%eax
  401665:	69 c0 a1 e5 00 00    	imul   $0xe5a1,%eax,%eax
  40166b:	89 04 24             	mov    %eax,(%rsp)
  40166e:	8b 44 24 18          	mov    0x18(%rsp),%eax
  401672:	69 c0 85 1b 00 00    	imul   $0x1b85,%eax,%eax
  401678:	89 44 24 18          	mov    %eax,0x18(%rsp)
  40167c:	8b 44 24 10          	mov    0x10(%rsp),%eax
  401680:	69 c0 0c e8 00 00    	imul   $0xe80c,%eax,%eax
  401686:	89 44 24 10          	mov    %eax,0x10(%rsp)
  40168a:	8b 44 24 18          	mov    0x18(%rsp),%eax
  40168e:	69 c0 31 49 00 00    	imul   $0x4931,%eax,%eax
  401694:	89 44 24 18          	mov    %eax,0x18(%rsp)
  401698:	8b 04 24             	mov    (%rsp),%eax
  40169b:	69 c0 b3 bf 00 00    	imul   $0xbfb3,%eax,%eax
  4016a1:	89 04 24             	mov    %eax,(%rsp)
  4016a4:	8b 44 24 24          	mov    0x24(%rsp),%eax
  4016a8:	69 c0 ff 75 00 00    	imul   $0x75ff,%eax,%eax
  4016ae:	89 44 24 24          	mov    %eax,0x24(%rsp)
  4016b2:	8b 44 24 1c          	mov    0x1c(%rsp),%eax
  4016b6:	69 c0 f3 b5 00 00    	imul   $0xb5f3,%eax,%eax
  4016bc:	89 44 24 1c          	mov    %eax,0x1c(%rsp)
  4016c0:	8b 44 24 24          	mov    0x24(%rsp),%eax
  4016c4:	69 c0 47 8f 00 00    	imul   $0x8f47,%eax,%eax
  4016ca:	89 44 24 24          	mov    %eax,0x24(%rsp)
  4016ce:	8b 44 24 18          	mov    0x18(%rsp),%eax
  4016d2:	69 c0 0e b5 00 00    	imul   $0xb50e,%eax,%eax
  4016d8:	89 44 24 18          	mov    %eax,0x18(%rsp)
  4016dc:	8b 44 24 0c          	mov    0xc(%rsp),%eax
  4016e0:	69 c0 c5 3e 00 00    	imul   $0x3ec5,%eax,%eax
  4016e6:	89 44 24 0c          	mov    %eax,0xc(%rsp)
  4016ea:	8b 44 24 20          	mov    0x20(%rsp),%eax
  4016ee:	69 c0 50 b9 00 00    	imul   $0xb950,%eax,%eax
  4016f4:	89 44 24 20          	mov    %eax,0x20(%rsp)
  4016f8:	8b 44 24 18          	mov    0x18(%rsp),%eax
  4016fc:	69 c0 cb e0 00 00    	imul   $0xe0cb,%eax,%eax
  401702:	89 44 24 18          	mov    %eax,0x18(%rsp)
  401706:	8b 44 24 08          	mov    0x8(%rsp),%eax
  40170a:	69 c0 f8 26 00 00    	imul   $0x26f8,%eax,%eax
  401710:	89 44 24 08          	mov    %eax,0x8(%rsp)
  401714:	8b 44 24 08          	mov    0x8(%rsp),%eax
  401718:	69 c0 82 46 00 00    	imul   $0x4682,%eax,%eax
  40171e:	89 44 24 08          	mov    %eax,0x8(%rsp)
  401722:	8b 44 24 10          	mov    0x10(%rsp),%eax
  401726:	69 c0 b7 83 00 00    	imul   $0x83b7,%eax,%eax
  40172c:	89 44 24 10          	mov    %eax,0x10(%rsp)
  401730:	8b 04 24             	mov    (%rsp),%eax
  401733:	69 c0 25 fa 00 00    	imul   $0xfa25,%eax,%eax
  401739:	89 04 24             	mov    %eax,(%rsp)
  40173c:	8b 44 24 20          	mov    0x20(%rsp),%eax
  401740:	69 c0 62 83 00 00    	imul   $0x8362,%eax,%eax
  401746:	89 44 24 20          	mov    %eax,0x20(%rsp)
  40174a:	8b 44 24 18          	mov    0x18(%rsp),%eax
  40174e:	69 c0 96 98 00 00    	imul   $0x9896,%eax,%eax
  401754:	89 44 24 18          	mov    %eax,0x18(%rsp)
  401758:	8b 44 24 0c          	mov    0xc(%rsp),%eax
  40175c:	69 c0 a6 7b 00 00    	imul   $0x7ba6,%eax,%eax
  401762:	89 44 24 0c          	mov    %eax,0xc(%rsp)
  401766:	8b 44 24 0c          	mov    0xc(%rsp),%eax
  40176a:	69 c0 1a c8 00 00    	imul   $0xc81a,%eax,%eax
  401770:	89 44 24 0c          	mov    %eax,0xc(%rsp)
  401774:	8b 44 24 08          	mov    0x8(%rsp),%eax
  401778:	69 c0 59 53 00 00    	imul   $0x5359,%eax,%eax
  40177e:	89 44 24 08          	mov    %eax,0x8(%rsp)
  401782:	8b 44 24 20          	mov    0x20(%rsp),%eax
  401786:	69 c0 3d ea 00 00    	imul   $0xea3d,%eax,%eax
  40178c:	89 44 24 20          	mov    %eax,0x20(%rsp)
  401790:	8b 44 24 20          	mov    0x20(%rsp),%eax
  401794:	69 c0 61 d6 00 00    	imul   $0xd661,%eax,%eax
  40179a:	89 44 24 20          	mov    %eax,0x20(%rsp)
  40179e:	8b 44 24 24          	mov    0x24(%rsp),%eax
  4017a2:	69 c0 19 78 00 00    	imul   $0x7819,%eax,%eax
  4017a8:	89 44 24 24          	mov    %eax,0x24(%rsp)
  4017ac:	8b 44 24 10          	mov    0x10(%rsp),%eax
  4017b0:	69 c0 cd 0e 00 00    	imul   $0xecd,%eax,%eax
  4017b6:	89 44 24 10          	mov    %eax,0x10(%rsp)
  4017ba:	8b 44 24 0c          	mov    0xc(%rsp),%eax
  4017be:	69 c0 2c 88 00 00    	imul   $0x882c,%eax,%eax
  4017c4:	89 44 24 0c          	mov    %eax,0xc(%rsp)
  4017c8:	8b 44 24 24          	mov    0x24(%rsp),%eax
  4017cc:	69 c0 9c c8 00 00    	imul   $0xc89c,%eax,%eax
  4017d2:	89 44 24 24          	mov    %eax,0x24(%rsp)
  4017d6:	8b 44 24 24          	mov    0x24(%rsp),%eax
  4017da:	69 c0 63 8c 00 00    	imul   $0x8c63,%eax,%eax
  4017e0:	89 44 24 24          	mov    %eax,0x24(%rsp)
  4017e4:	8b 44 24 24          	mov    0x24(%rsp),%eax
  4017e8:	69 c0 9d bd 00 00    	imul   $0xbd9d,%eax,%eax
  4017ee:	89 44 24 24          	mov    %eax,0x24(%rsp)
  4017f2:	8b 44 24 20          	mov    0x20(%rsp),%eax
  4017f6:	69 c0 39 26 00 00    	imul   $0x2639,%eax,%eax
  4017fc:	89 44 24 20          	mov    %eax,0x20(%rsp)
  401800:	8b 44 24 0c          	mov    0xc(%rsp),%eax
  401804:	69 c0 aa 9b 00 00    	imul   $0x9baa,%eax,%eax
  40180a:	89 44 24 0c          	mov    %eax,0xc(%rsp)
  40180e:	8b 44 24 10          	mov    0x10(%rsp),%eax
  401812:	69 c0 ad aa 00 00    	imul   $0xaaad,%eax,%eax
  401818:	89 44 24 10          	mov    %eax,0x10(%rsp)
  40181c:	8b 44 24 24          	mov    0x24(%rsp),%eax
  401820:	69 c0 09 36 00 00    	imul   $0x3609,%eax,%eax
  401826:	89 44 24 24          	mov    %eax,0x24(%rsp)
  40182a:	8b 04 24             	mov    (%rsp),%eax
  40182d:	69 c0 7b 8a 00 00    	imul   $0x8a7b,%eax,%eax
  401833:	89 04 24             	mov    %eax,(%rsp)
  401836:	8b 44 24 1c          	mov    0x1c(%rsp),%eax
  40183a:	69 c0 0b 25 00 00    	imul   $0x250b,%eax,%eax
  401840:	89 44 24 1c          	mov    %eax,0x1c(%rsp)
  401844:	8b 44 24 20          	mov    0x20(%rsp),%eax
  401848:	69 c0 09 ed 00 00    	imul   $0xed09,%eax,%eax
  40184e:	89 44 24 20          	mov    %eax,0x20(%rsp)
  401852:	8b 44 24 20          	mov    0x20(%rsp),%eax
  401856:	69 c0 af 90 00 00    	imul   $0x90af,%eax,%eax
  40185c:	89 44 24 20          	mov    %eax,0x20(%rsp)
  401860:	8b 04 24             	mov    (%rsp),%eax
  401863:	69 c0 b1 81 00 00    	imul   $0x81b1,%eax,%eax
  401869:	89 04 24             	mov    %eax,(%rsp)
  40186c:	8b 44 24 20          	mov    0x20(%rsp),%eax
  401870:	69 c0 cb 50 00 00    	imul   $0x50cb,%eax,%eax
  401876:	89 44 24 20          	mov    %eax,0x20(%rsp)
  40187a:	8b 44 24 18          	mov    0x18(%rsp),%eax
  40187e:	69 c0 7f f2 00 00    	imul   $0xf27f,%eax,%eax
  401884:	89 44 24 18          	mov    %eax,0x18(%rsp)
  401888:	8b 44 24 14          	mov    0x14(%rsp),%eax
  40188c:	69 c0 a9 b0 00 00    	imul   $0xb0a9,%eax,%eax
  401892:	89 44 24 14          	mov    %eax,0x14(%rsp)
  401896:	8b 44 24 04          	mov    0x4(%rsp),%eax
  40189a:	69 c0 b5 27 00 00    	imul   $0x27b5,%eax,%eax
  4018a0:	89 44 24 04          	mov    %eax,0x4(%rsp)
  4018a4:	8b 44 24 20          	mov    0x20(%rsp),%eax
  4018a8:	69 c0 a2 e3 00 00    	imul   $0xe3a2,%eax,%eax
  4018ae:	89 44 24 20          	mov    %eax,0x20(%rsp)
  4018b2:	ba 00 00 00 00       	mov    $0x0,%edx
  4018b7:	b8 00 00 00 00       	mov    $0x0,%eax
  4018bc:	eb 0a                	jmp    4018c8 <scramble+0x539>
  4018be:	89 d1                	mov    %edx,%ecx
  4018c0:	8b 0c 8c             	mov    (%rsp,%rcx,4),%ecx
  4018c3:	01 c8                	add    %ecx,%eax
  4018c5:	83 c2 01             	add    $0x1,%edx
  4018c8:	83 fa 09             	cmp    $0x9,%edx
  4018cb:	76 f1                	jbe    4018be <scramble+0x52f>
  4018cd:	48 8b 74 24 28       	mov    0x28(%rsp),%rsi
  4018d2:	64 48 33 34 25 28 00 	xor    %fs:0x28,%rsi
  4018d9:	00 00 
  4018db:	74 05                	je     4018e2 <scramble+0x553>
  4018dd:	e8 0e f4 ff ff       	callq  400cf0 <__stack_chk_fail@plt>
  4018e2:	48 83 c4 38          	add    $0x38,%rsp
  4018e6:	c3                   	retq   

00000000004018e7 <getbuf>:
  4018e7:	48 83 ec 18          	sub    $0x18,%rsp
  4018eb:	48 89 e7             	mov    %rsp,%rdi
  4018ee:	e8 7e 02 00 00       	callq  401b71 <Gets>
  4018f3:	b8 01 00 00 00       	mov    $0x1,%eax
  4018f8:	48 83 c4 18          	add    $0x18,%rsp
  4018fc:	c3                   	retq   

00000000004018fd <touch1>:
  4018fd:	48 83 ec 08          	sub    $0x8,%rsp
  401901:	c7 05 11 3c 20 00 01 	movl   $0x1,0x203c11(%rip)        # 60551c <vlevel>
  401908:	00 00 00 
  40190b:	bf cc 32 40 00       	mov    $0x4032cc,%edi
  401910:	e8 bb f3 ff ff       	callq  400cd0 <puts@plt>
  401915:	bf 01 00 00 00       	mov    $0x1,%edi
  40191a:	e8 97 04 00 00       	callq  401db6 <validate>
  40191f:	bf 00 00 00 00       	mov    $0x0,%edi
  401924:	e8 27 f5 ff ff       	callq  400e50 <exit@plt>

0000000000401929 <touch2>:
  401929:	48 83 ec 08          	sub    $0x8,%rsp
  40192d:	89 fa                	mov    %edi,%edx
  40192f:	c7 05 e3 3b 20 00 02 	movl   $0x2,0x203be3(%rip)        # 60551c <vlevel>
  401936:	00 00 00 
  401939:	39 3d e5 3b 20 00    	cmp    %edi,0x203be5(%rip)        # 605524 <cookie>
  40193f:	75 20                	jne    401961 <touch2+0x38>
  401941:	be f0 32 40 00       	mov    $0x4032f0,%esi
  401946:	bf 01 00 00 00       	mov    $0x1,%edi
  40194b:	b8 00 00 00 00       	mov    $0x0,%eax
  401950:	e8 ab f4 ff ff       	callq  400e00 <__printf_chk@plt>
  401955:	bf 02 00 00 00       	mov    $0x2,%edi
  40195a:	e8 57 04 00 00       	callq  401db6 <validate>
  40195f:	eb 1e                	jmp    40197f <touch2+0x56>
  401961:	be 18 33 40 00       	mov    $0x403318,%esi
  401966:	bf 01 00 00 00       	mov    $0x1,%edi
  40196b:	b8 00 00 00 00       	mov    $0x0,%eax
  401970:	e8 8b f4 ff ff       	callq  400e00 <__printf_chk@plt>
  401975:	bf 02 00 00 00       	mov    $0x2,%edi
  40197a:	e8 f9 04 00 00       	callq  401e78 <fail>
  40197f:	bf 00 00 00 00       	mov    $0x0,%edi
  401984:	e8 c7 f4 ff ff       	callq  400e50 <exit@plt>

0000000000401989 <hexmatch>:
  401989:	41 54                	push   %r12
  40198b:	55                   	push   %rbp
  40198c:	53                   	push   %rbx
  40198d:	48 83 c4 80          	add    $0xffffffffffffff80,%rsp
  401991:	89 fd                	mov    %edi,%ebp
  401993:	48 89 f3             	mov    %rsi,%rbx
  401996:	64 48 8b 04 25 28 00 	mov    %fs:0x28,%rax
  40199d:	00 00 
  40199f:	48 89 44 24 78       	mov    %rax,0x78(%rsp)
  4019a4:	31 c0                	xor    %eax,%eax
  4019a6:	e8 15 f4 ff ff       	callq  400dc0 <random@plt>
  4019ab:	48 89 c1             	mov    %rax,%rcx
  4019ae:	48 ba 0b d7 a3 70 3d 	movabs $0xa3d70a3d70a3d70b,%rdx
  4019b5:	0a d7 a3 
  4019b8:	48 f7 ea             	imul   %rdx
  4019bb:	48 01 ca             	add    %rcx,%rdx
  4019be:	48 c1 fa 06          	sar    $0x6,%rdx
  4019c2:	48 89 c8             	mov    %rcx,%rax
  4019c5:	48 c1 f8 3f          	sar    $0x3f,%rax
  4019c9:	48 29 c2             	sub    %rax,%rdx
  4019cc:	48 8d 04 92          	lea    (%rdx,%rdx,4),%rax
  4019d0:	48 8d 14 80          	lea    (%rax,%rax,4),%rdx
  4019d4:	48 8d 04 95 00 00 00 	lea    0x0(,%rdx,4),%rax
  4019db:	00 
  4019dc:	48 29 c1             	sub    %rax,%rcx
  4019df:	4c 8d 24 0c          	lea    (%rsp,%rcx,1),%r12
  4019e3:	41 89 e8             	mov    %ebp,%r8d
  4019e6:	b9 e9 32 40 00       	mov    $0x4032e9,%ecx
  4019eb:	48 c7 c2 ff ff ff ff 	mov    $0xffffffffffffffff,%rdx
  4019f2:	be 01 00 00 00       	mov    $0x1,%esi
  4019f7:	4c 89 e7             	mov    %r12,%rdi
  4019fa:	b8 00 00 00 00       	mov    $0x0,%eax
  4019ff:	e8 7c f4 ff ff       	callq  400e80 <__sprintf_chk@plt>
  401a04:	ba 09 00 00 00       	mov    $0x9,%edx
  401a09:	4c 89 e6             	mov    %r12,%rsi
  401a0c:	48 89 df             	mov    %rbx,%rdi
  401a0f:	e8 9c f2 ff ff       	callq  400cb0 <strncmp@plt>
  401a14:	85 c0                	test   %eax,%eax
  401a16:	0f 94 c0             	sete   %al
  401a19:	48 8b 5c 24 78       	mov    0x78(%rsp),%rbx
  401a1e:	64 48 33 1c 25 28 00 	xor    %fs:0x28,%rbx
  401a25:	00 00 
  401a27:	74 05                	je     401a2e <hexmatch+0xa5>
  401a29:	e8 c2 f2 ff ff       	callq  400cf0 <__stack_chk_fail@plt>
  401a2e:	0f b6 c0             	movzbl %al,%eax
  401a31:	48 83 ec 80          	sub    $0xffffffffffffff80,%rsp
  401a35:	5b                   	pop    %rbx
  401a36:	5d                   	pop    %rbp
  401a37:	41 5c                	pop    %r12
  401a39:	c3                   	retq   

0000000000401a3a <touch3>:
  401a3a:	53                   	push   %rbx
  401a3b:	48 89 fb             	mov    %rdi,%rbx
  401a3e:	c7 05 d4 3a 20 00 03 	movl   $0x3,0x203ad4(%rip)        # 60551c <vlevel>
  401a45:	00 00 00 
  401a48:	48 89 fe             	mov    %rdi,%rsi
  401a4b:	8b 3d d3 3a 20 00    	mov    0x203ad3(%rip),%edi        # 605524 <cookie>
  401a51:	e8 33 ff ff ff       	callq  401989 <hexmatch>
  401a56:	85 c0                	test   %eax,%eax
  401a58:	74 23                	je     401a7d <touch3+0x43>
  401a5a:	48 89 da             	mov    %rbx,%rdx
  401a5d:	be 40 33 40 00       	mov    $0x403340,%esi
  401a62:	bf 01 00 00 00       	mov    $0x1,%edi
  401a67:	b8 00 00 00 00       	mov    $0x0,%eax
  401a6c:	e8 8f f3 ff ff       	callq  400e00 <__printf_chk@plt>
  401a71:	bf 03 00 00 00       	mov    $0x3,%edi
  401a76:	e8 3b 03 00 00       	callq  401db6 <validate>
  401a7b:	eb 21                	jmp    401a9e <touch3+0x64>
  401a7d:	48 89 da             	mov    %rbx,%rdx
  401a80:	be 68 33 40 00       	mov    $0x403368,%esi
  401a85:	bf 01 00 00 00       	mov    $0x1,%edi
  401a8a:	b8 00 00 00 00       	mov    $0x0,%eax
  401a8f:	e8 6c f3 ff ff       	callq  400e00 <__printf_chk@plt>
  401a94:	bf 03 00 00 00       	mov    $0x3,%edi
  401a99:	e8 da 03 00 00       	callq  401e78 <fail>
  401a9e:	bf 00 00 00 00       	mov    $0x0,%edi
  401aa3:	e8 a8 f3 ff ff       	callq  400e50 <exit@plt>

0000000000401aa8 <test>:
  401aa8:	48 83 ec 08          	sub    $0x8,%rsp
  401aac:	b8 00 00 00 00       	mov    $0x0,%eax
  401ab1:	e8 31 fe ff ff       	callq  4018e7 <getbuf>
  401ab6:	89 c2                	mov    %eax,%edx
  401ab8:	be 90 33 40 00       	mov    $0x403390,%esi
  401abd:	bf 01 00 00 00       	mov    $0x1,%edi
  401ac2:	b8 00 00 00 00       	mov    $0x0,%eax
  401ac7:	e8 34 f3 ff ff       	callq  400e00 <__printf_chk@plt>
  401acc:	48 83 c4 08          	add    $0x8,%rsp
  401ad0:	c3                   	retq   

0000000000401ad1 <save_char>:
  401ad1:	8b 05 6d 46 20 00    	mov    0x20466d(%rip),%eax        # 606144 <gets_cnt>
  401ad7:	3d ff 03 00 00       	cmp    $0x3ff,%eax
  401adc:	7f 49                	jg     401b27 <save_char+0x56>
  401ade:	8d 14 40             	lea    (%rax,%rax,2),%edx
  401ae1:	89 f9                	mov    %edi,%ecx
  401ae3:	c0 e9 04             	shr    $0x4,%cl
  401ae6:	83 e1 0f             	and    $0xf,%ecx
  401ae9:	0f b6 b1 b0 36 40 00 	movzbl 0x4036b0(%rcx),%esi
  401af0:	48 63 ca             	movslq %edx,%rcx
  401af3:	40 88 b1 40 55 60 00 	mov    %sil,0x605540(%rcx)
  401afa:	8d 4a 01             	lea    0x1(%rdx),%ecx
  401afd:	83 e7 0f             	and    $0xf,%edi
  401b00:	0f b6 b7 b0 36 40 00 	movzbl 0x4036b0(%rdi),%esi
  401b07:	48 63 c9             	movslq %ecx,%rcx
  401b0a:	40 88 b1 40 55 60 00 	mov    %sil,0x605540(%rcx)
  401b11:	83 c2 02             	add    $0x2,%edx
  401b14:	48 63 d2             	movslq %edx,%rdx
  401b17:	c6 82 40 55 60 00 20 	movb   $0x20,0x605540(%rdx)
  401b1e:	83 c0 01             	add    $0x1,%eax
  401b21:	89 05 1d 46 20 00    	mov    %eax,0x20461d(%rip)        # 606144 <gets_cnt>
  401b27:	f3 c3                	repz retq 

0000000000401b29 <save_term>:
  401b29:	8b 05 15 46 20 00    	mov    0x204615(%rip),%eax        # 606144 <gets_cnt>
  401b2f:	8d 04 40             	lea    (%rax,%rax,2),%eax
  401b32:	48 98                	cltq   
  401b34:	c6 80 40 55 60 00 00 	movb   $0x0,0x605540(%rax)
  401b3b:	c3                   	retq   

0000000000401b3c <check_fail>:
  401b3c:	48 83 ec 08          	sub    $0x8,%rsp
  401b40:	0f be 15 01 46 20 00 	movsbl 0x204601(%rip),%edx        # 606148 <target_prefix>
  401b47:	41 b8 40 55 60 00    	mov    $0x605540,%r8d
  401b4d:	8b 0d c5 39 20 00    	mov    0x2039c5(%rip),%ecx        # 605518 <check_level>
  401b53:	be b3 33 40 00       	mov    $0x4033b3,%esi
  401b58:	bf 01 00 00 00       	mov    $0x1,%edi
  401b5d:	b8 00 00 00 00       	mov    $0x0,%eax
  401b62:	e8 99 f2 ff ff       	callq  400e00 <__printf_chk@plt>
  401b67:	bf 01 00 00 00       	mov    $0x1,%edi
  401b6c:	e8 df f2 ff ff       	callq  400e50 <exit@plt>

0000000000401b71 <Gets>:
  401b71:	41 54                	push   %r12
  401b73:	55                   	push   %rbp
  401b74:	53                   	push   %rbx
  401b75:	49 89 fc             	mov    %rdi,%r12
  401b78:	c7 05 c2 45 20 00 00 	movl   $0x0,0x2045c2(%rip)        # 606144 <gets_cnt>
  401b7f:	00 00 00 
  401b82:	48 89 fb             	mov    %rdi,%rbx
  401b85:	eb 11                	jmp    401b98 <Gets+0x27>
  401b87:	48 8d 6b 01          	lea    0x1(%rbx),%rbp
  401b8b:	88 03                	mov    %al,(%rbx)
  401b8d:	0f b6 f8             	movzbl %al,%edi
  401b90:	e8 3c ff ff ff       	callq  401ad1 <save_char>
  401b95:	48 89 eb             	mov    %rbp,%rbx
  401b98:	48 8b 3d 71 39 20 00 	mov    0x203971(%rip),%rdi        # 605510 <infile>
  401b9f:	e8 2c f2 ff ff       	callq  400dd0 <_IO_getc@plt>
  401ba4:	83 f8 ff             	cmp    $0xffffffff,%eax
  401ba7:	74 05                	je     401bae <Gets+0x3d>
  401ba9:	83 f8 0a             	cmp    $0xa,%eax
  401bac:	75 d9                	jne    401b87 <Gets+0x16>
  401bae:	c6 03 00             	movb   $0x0,(%rbx)
  401bb1:	b8 00 00 00 00       	mov    $0x0,%eax
  401bb6:	e8 6e ff ff ff       	callq  401b29 <save_term>
  401bbb:	4c 89 e0             	mov    %r12,%rax
  401bbe:	5b                   	pop    %rbx
  401bbf:	5d                   	pop    %rbp
  401bc0:	41 5c                	pop    %r12
  401bc2:	c3                   	retq   

0000000000401bc3 <notify_server>:
  401bc3:	53                   	push   %rbx
  401bc4:	48 81 ec 10 40 00 00 	sub    $0x4010,%rsp
  401bcb:	64 48 8b 04 25 28 00 	mov    %fs:0x28,%rax
  401bd2:	00 00 
  401bd4:	48 89 84 24 08 40 00 	mov    %rax,0x4008(%rsp)
  401bdb:	00 
  401bdc:	31 c0                	xor    %eax,%eax
  401bde:	83 3d 43 39 20 00 00 	cmpl   $0x0,0x203943(%rip)        # 605528 <is_checker>
  401be5:	0f 85 aa 01 00 00    	jne    401d95 <notify_server+0x1d2>
  401beb:	89 fb                	mov    %edi,%ebx
  401bed:	8b 05 51 45 20 00    	mov    0x204551(%rip),%eax        # 606144 <gets_cnt>
  401bf3:	83 c0 64             	add    $0x64,%eax
  401bf6:	3d 00 20 00 00       	cmp    $0x2000,%eax
  401bfb:	7e 1e                	jle    401c1b <notify_server+0x58>
  401bfd:	be e8 34 40 00       	mov    $0x4034e8,%esi
  401c02:	bf 01 00 00 00       	mov    $0x1,%edi
  401c07:	b8 00 00 00 00       	mov    $0x0,%eax
  401c0c:	e8 ef f1 ff ff       	callq  400e00 <__printf_chk@plt>
  401c11:	bf 01 00 00 00       	mov    $0x1,%edi
  401c16:	e8 35 f2 ff ff       	callq  400e50 <exit@plt>
  401c1b:	0f be 05 26 45 20 00 	movsbl 0x204526(%rip),%eax        # 606148 <target_prefix>
  401c22:	83 3d 7f 38 20 00 00 	cmpl   $0x0,0x20387f(%rip)        # 6054a8 <notify>
  401c29:	74 08                	je     401c33 <notify_server+0x70>
  401c2b:	8b 15 ef 38 20 00    	mov    0x2038ef(%rip),%edx        # 605520 <authkey>
  401c31:	eb 05                	jmp    401c38 <notify_server+0x75>
  401c33:	ba ff ff ff ff       	mov    $0xffffffff,%edx
  401c38:	85 db                	test   %ebx,%ebx
  401c3a:	74 08                	je     401c44 <notify_server+0x81>
  401c3c:	41 b9 c9 33 40 00    	mov    $0x4033c9,%r9d
  401c42:	eb 06                	jmp    401c4a <notify_server+0x87>
  401c44:	41 b9 ce 33 40 00    	mov    $0x4033ce,%r9d
  401c4a:	68 40 55 60 00       	pushq  $0x605540
  401c4f:	56                   	push   %rsi
  401c50:	50                   	push   %rax
  401c51:	52                   	push   %rdx
  401c52:	44 8b 05 0f 35 20 00 	mov    0x20350f(%rip),%r8d        # 605168 <target_id>
  401c59:	b9 d3 33 40 00       	mov    $0x4033d3,%ecx
  401c5e:	ba 00 20 00 00       	mov    $0x2000,%edx
  401c63:	be 01 00 00 00       	mov    $0x1,%esi
  401c68:	48 8d 7c 24 20       	lea    0x20(%rsp),%rdi
  401c6d:	b8 00 00 00 00       	mov    $0x0,%eax
  401c72:	e8 09 f2 ff ff       	callq  400e80 <__sprintf_chk@plt>
  401c77:	48 83 c4 20          	add    $0x20,%rsp
  401c7b:	83 3d 26 38 20 00 00 	cmpl   $0x0,0x203826(%rip)        # 6054a8 <notify>
  401c82:	0f 84 81 00 00 00    	je     401d09 <notify_server+0x146>
  401c88:	85 db                	test   %ebx,%ebx
  401c8a:	74 6e                	je     401cfa <notify_server+0x137>
  401c8c:	4c 8d 8c 24 00 20 00 	lea    0x2000(%rsp),%r9
  401c93:	00 
  401c94:	41 b8 00 00 00 00    	mov    $0x0,%r8d
  401c9a:	48 89 e1             	mov    %rsp,%rcx
  401c9d:	48 8b 15 cc 34 20 00 	mov    0x2034cc(%rip),%rdx        # 605170 <lab>
  401ca4:	48 8b 35 cd 34 20 00 	mov    0x2034cd(%rip),%rsi        # 605178 <course>
  401cab:	48 8b 3d ae 34 20 00 	mov    0x2034ae(%rip),%rdi        # 605160 <user_id>
  401cb2:	e8 ef 10 00 00       	callq  402da6 <driver_post>
  401cb7:	85 c0                	test   %eax,%eax
  401cb9:	79 26                	jns    401ce1 <notify_server+0x11e>
  401cbb:	48 8d 94 24 00 20 00 	lea    0x2000(%rsp),%rdx
  401cc2:	00 
  401cc3:	be ef 33 40 00       	mov    $0x4033ef,%esi
  401cc8:	bf 01 00 00 00       	mov    $0x1,%edi
  401ccd:	b8 00 00 00 00       	mov    $0x0,%eax
  401cd2:	e8 29 f1 ff ff       	callq  400e00 <__printf_chk@plt>
  401cd7:	bf 01 00 00 00       	mov    $0x1,%edi
  401cdc:	e8 6f f1 ff ff       	callq  400e50 <exit@plt>
  401ce1:	bf 18 35 40 00       	mov    $0x403518,%edi
  401ce6:	e8 e5 ef ff ff       	callq  400cd0 <puts@plt>
  401ceb:	bf fb 33 40 00       	mov    $0x4033fb,%edi
  401cf0:	e8 db ef ff ff       	callq  400cd0 <puts@plt>
  401cf5:	e9 9b 00 00 00       	jmpq   401d95 <notify_server+0x1d2>
  401cfa:	bf 05 34 40 00       	mov    $0x403405,%edi
  401cff:	e8 cc ef ff ff       	callq  400cd0 <puts@plt>
  401d04:	e9 8c 00 00 00       	jmpq   401d95 <notify_server+0x1d2>
  401d09:	85 db                	test   %ebx,%ebx
  401d0b:	74 07                	je     401d14 <notify_server+0x151>
  401d0d:	ba c9 33 40 00       	mov    $0x4033c9,%edx
  401d12:	eb 05                	jmp    401d19 <notify_server+0x156>
  401d14:	ba ce 33 40 00       	mov    $0x4033ce,%edx
  401d19:	be 50 35 40 00       	mov    $0x403550,%esi
  401d1e:	bf 01 00 00 00       	mov    $0x1,%edi
  401d23:	b8 00 00 00 00       	mov    $0x0,%eax
  401d28:	e8 d3 f0 ff ff       	callq  400e00 <__printf_chk@plt>
  401d2d:	48 8b 15 2c 34 20 00 	mov    0x20342c(%rip),%rdx        # 605160 <user_id>
  401d34:	be 0c 34 40 00       	mov    $0x40340c,%esi
  401d39:	bf 01 00 00 00       	mov    $0x1,%edi
  401d3e:	b8 00 00 00 00       	mov    $0x0,%eax
  401d43:	e8 b8 f0 ff ff       	callq  400e00 <__printf_chk@plt>
  401d48:	48 8b 15 29 34 20 00 	mov    0x203429(%rip),%rdx        # 605178 <course>
  401d4f:	be 19 34 40 00       	mov    $0x403419,%esi
  401d54:	bf 01 00 00 00       	mov    $0x1,%edi
  401d59:	b8 00 00 00 00       	mov    $0x0,%eax
  401d5e:	e8 9d f0 ff ff       	callq  400e00 <__printf_chk@plt>
  401d63:	48 8b 15 06 34 20 00 	mov    0x203406(%rip),%rdx        # 605170 <lab>
  401d6a:	be 25 34 40 00       	mov    $0x403425,%esi
  401d6f:	bf 01 00 00 00       	mov    $0x1,%edi
  401d74:	b8 00 00 00 00       	mov    $0x0,%eax
  401d79:	e8 82 f0 ff ff       	callq  400e00 <__printf_chk@plt>
  401d7e:	48 89 e2             	mov    %rsp,%rdx
  401d81:	be 2e 34 40 00       	mov    $0x40342e,%esi
  401d86:	bf 01 00 00 00       	mov    $0x1,%edi
  401d8b:	b8 00 00 00 00       	mov    $0x0,%eax
  401d90:	e8 6b f0 ff ff       	callq  400e00 <__printf_chk@plt>
  401d95:	48 8b 84 24 08 40 00 	mov    0x4008(%rsp),%rax
  401d9c:	00 
  401d9d:	64 48 33 04 25 28 00 	xor    %fs:0x28,%rax
  401da4:	00 00 
  401da6:	74 05                	je     401dad <notify_server+0x1ea>
  401da8:	e8 43 ef ff ff       	callq  400cf0 <__stack_chk_fail@plt>
  401dad:	48 81 c4 10 40 00 00 	add    $0x4010,%rsp
  401db4:	5b                   	pop    %rbx
  401db5:	c3                   	retq   

0000000000401db6 <validate>:
  401db6:	53                   	push   %rbx
  401db7:	89 fb                	mov    %edi,%ebx
  401db9:	83 3d 68 37 20 00 00 	cmpl   $0x0,0x203768(%rip)        # 605528 <is_checker>
  401dc0:	74 6b                	je     401e2d <validate+0x77>
  401dc2:	39 3d 54 37 20 00    	cmp    %edi,0x203754(%rip)        # 60551c <vlevel>
  401dc8:	74 14                	je     401dde <validate+0x28>
  401dca:	bf 3a 34 40 00       	mov    $0x40343a,%edi
  401dcf:	e8 fc ee ff ff       	callq  400cd0 <puts@plt>
  401dd4:	b8 00 00 00 00       	mov    $0x0,%eax
  401dd9:	e8 5e fd ff ff       	callq  401b3c <check_fail>
  401dde:	8b 15 34 37 20 00    	mov    0x203734(%rip),%edx        # 605518 <check_level>
  401de4:	39 d7                	cmp    %edx,%edi
  401de6:	74 20                	je     401e08 <validate+0x52>
  401de8:	89 f9                	mov    %edi,%ecx
  401dea:	be 78 35 40 00       	mov    $0x403578,%esi
  401def:	bf 01 00 00 00       	mov    $0x1,%edi
  401df4:	b8 00 00 00 00       	mov    $0x0,%eax
  401df9:	e8 02 f0 ff ff       	callq  400e00 <__printf_chk@plt>
  401dfe:	b8 00 00 00 00       	mov    $0x0,%eax
  401e03:	e8 34 fd ff ff       	callq  401b3c <check_fail>
  401e08:	0f be 15 39 43 20 00 	movsbl 0x204339(%rip),%edx        # 606148 <target_prefix>
  401e0f:	41 b8 40 55 60 00    	mov    $0x605540,%r8d
  401e15:	89 f9                	mov    %edi,%ecx
  401e17:	be 58 34 40 00       	mov    $0x403458,%esi
  401e1c:	bf 01 00 00 00       	mov    $0x1,%edi
  401e21:	b8 00 00 00 00       	mov    $0x0,%eax
  401e26:	e8 d5 ef ff ff       	callq  400e00 <__printf_chk@plt>
  401e2b:	eb 49                	jmp    401e76 <validate+0xc0>
  401e2d:	3b 3d e9 36 20 00    	cmp    0x2036e9(%rip),%edi        # 60551c <vlevel>
  401e33:	74 18                	je     401e4d <validate+0x97>
  401e35:	bf 3a 34 40 00       	mov    $0x40343a,%edi
  401e3a:	e8 91 ee ff ff       	callq  400cd0 <puts@plt>
  401e3f:	89 de                	mov    %ebx,%esi
  401e41:	bf 00 00 00 00       	mov    $0x0,%edi
  401e46:	e8 78 fd ff ff       	callq  401bc3 <notify_server>
  401e4b:	eb 29                	jmp    401e76 <validate+0xc0>
  401e4d:	0f be 0d f4 42 20 00 	movsbl 0x2042f4(%rip),%ecx        # 606148 <target_prefix>
  401e54:	89 fa                	mov    %edi,%edx
  401e56:	be a0 35 40 00       	mov    $0x4035a0,%esi
  401e5b:	bf 01 00 00 00       	mov    $0x1,%edi
  401e60:	b8 00 00 00 00       	mov    $0x0,%eax
  401e65:	e8 96 ef ff ff       	callq  400e00 <__printf_chk@plt>
  401e6a:	89 de                	mov    %ebx,%esi
  401e6c:	bf 01 00 00 00       	mov    $0x1,%edi
  401e71:	e8 4d fd ff ff       	callq  401bc3 <notify_server>
  401e76:	5b                   	pop    %rbx
  401e77:	c3                   	retq   

0000000000401e78 <fail>:
  401e78:	48 83 ec 08          	sub    $0x8,%rsp
  401e7c:	83 3d a5 36 20 00 00 	cmpl   $0x0,0x2036a5(%rip)        # 605528 <is_checker>
  401e83:	74 0a                	je     401e8f <fail+0x17>
  401e85:	b8 00 00 00 00       	mov    $0x0,%eax
  401e8a:	e8 ad fc ff ff       	callq  401b3c <check_fail>
  401e8f:	89 fe                	mov    %edi,%esi
  401e91:	bf 00 00 00 00       	mov    $0x0,%edi
  401e96:	e8 28 fd ff ff       	callq  401bc3 <notify_server>
  401e9b:	48 83 c4 08          	add    $0x8,%rsp
  401e9f:	c3                   	retq   

0000000000401ea0 <bushandler>:
  401ea0:	48 83 ec 08          	sub    $0x8,%rsp
  401ea4:	83 3d 7d 36 20 00 00 	cmpl   $0x0,0x20367d(%rip)        # 605528 <is_checker>
  401eab:	74 14                	je     401ec1 <bushandler+0x21>
  401ead:	bf 6d 34 40 00       	mov    $0x40346d,%edi
  401eb2:	e8 19 ee ff ff       	callq  400cd0 <puts@plt>
  401eb7:	b8 00 00 00 00       	mov    $0x0,%eax
  401ebc:	e8 7b fc ff ff       	callq  401b3c <check_fail>
  401ec1:	bf d8 35 40 00       	mov    $0x4035d8,%edi
  401ec6:	e8 05 ee ff ff       	callq  400cd0 <puts@plt>
  401ecb:	bf 77 34 40 00       	mov    $0x403477,%edi
  401ed0:	e8 fb ed ff ff       	callq  400cd0 <puts@plt>
  401ed5:	be 00 00 00 00       	mov    $0x0,%esi
  401eda:	bf 00 00 00 00       	mov    $0x0,%edi
  401edf:	e8 df fc ff ff       	callq  401bc3 <notify_server>
  401ee4:	bf 01 00 00 00       	mov    $0x1,%edi
  401ee9:	e8 62 ef ff ff       	callq  400e50 <exit@plt>

0000000000401eee <seghandler>:
  401eee:	48 83 ec 08          	sub    $0x8,%rsp
  401ef2:	83 3d 2f 36 20 00 00 	cmpl   $0x0,0x20362f(%rip)        # 605528 <is_checker>
  401ef9:	74 14                	je     401f0f <seghandler+0x21>
  401efb:	bf 8d 34 40 00       	mov    $0x40348d,%edi
  401f00:	e8 cb ed ff ff       	callq  400cd0 <puts@plt>
  401f05:	b8 00 00 00 00       	mov    $0x0,%eax
  401f0a:	e8 2d fc ff ff       	callq  401b3c <check_fail>
  401f0f:	bf f8 35 40 00       	mov    $0x4035f8,%edi
  401f14:	e8 b7 ed ff ff       	callq  400cd0 <puts@plt>
  401f19:	bf 77 34 40 00       	mov    $0x403477,%edi
  401f1e:	e8 ad ed ff ff       	callq  400cd0 <puts@plt>
  401f23:	be 00 00 00 00       	mov    $0x0,%esi
  401f28:	bf 00 00 00 00       	mov    $0x0,%edi
  401f2d:	e8 91 fc ff ff       	callq  401bc3 <notify_server>
  401f32:	bf 01 00 00 00       	mov    $0x1,%edi
  401f37:	e8 14 ef ff ff       	callq  400e50 <exit@plt>

0000000000401f3c <illegalhandler>:
  401f3c:	48 83 ec 08          	sub    $0x8,%rsp
  401f40:	83 3d e1 35 20 00 00 	cmpl   $0x0,0x2035e1(%rip)        # 605528 <is_checker>
  401f47:	74 14                	je     401f5d <illegalhandler+0x21>
  401f49:	bf a0 34 40 00       	mov    $0x4034a0,%edi
  401f4e:	e8 7d ed ff ff       	callq  400cd0 <puts@plt>
  401f53:	b8 00 00 00 00       	mov    $0x0,%eax
  401f58:	e8 df fb ff ff       	callq  401b3c <check_fail>
  401f5d:	bf 20 36 40 00       	mov    $0x403620,%edi
  401f62:	e8 69 ed ff ff       	callq  400cd0 <puts@plt>
  401f67:	bf 77 34 40 00       	mov    $0x403477,%edi
  401f6c:	e8 5f ed ff ff       	callq  400cd0 <puts@plt>
  401f71:	be 00 00 00 00       	mov    $0x0,%esi
  401f76:	bf 00 00 00 00       	mov    $0x0,%edi
  401f7b:	e8 43 fc ff ff       	callq  401bc3 <notify_server>
  401f80:	bf 01 00 00 00       	mov    $0x1,%edi
  401f85:	e8 c6 ee ff ff       	callq  400e50 <exit@plt>

0000000000401f8a <sigalrmhandler>:
  401f8a:	48 83 ec 08          	sub    $0x8,%rsp
  401f8e:	83 3d 93 35 20 00 00 	cmpl   $0x0,0x203593(%rip)        # 605528 <is_checker>
  401f95:	74 14                	je     401fab <sigalrmhandler+0x21>
  401f97:	bf b4 34 40 00       	mov    $0x4034b4,%edi
  401f9c:	e8 2f ed ff ff       	callq  400cd0 <puts@plt>
  401fa1:	b8 00 00 00 00       	mov    $0x0,%eax
  401fa6:	e8 91 fb ff ff       	callq  401b3c <check_fail>
  401fab:	ba 05 00 00 00       	mov    $0x5,%edx
  401fb0:	be 50 36 40 00       	mov    $0x403650,%esi
  401fb5:	bf 01 00 00 00       	mov    $0x1,%edi
  401fba:	b8 00 00 00 00       	mov    $0x0,%eax
  401fbf:	e8 3c ee ff ff       	callq  400e00 <__printf_chk@plt>
  401fc4:	be 00 00 00 00       	mov    $0x0,%esi
  401fc9:	bf 00 00 00 00       	mov    $0x0,%edi
  401fce:	e8 f0 fb ff ff       	callq  401bc3 <notify_server>
  401fd3:	bf 01 00 00 00       	mov    $0x1,%edi
  401fd8:	e8 73 ee ff ff       	callq  400e50 <exit@plt>

0000000000401fdd <launch>:
  401fdd:	55                   	push   %rbp
  401fde:	48 89 e5             	mov    %rsp,%rbp
  401fe1:	48 83 ec 10          	sub    $0x10,%rsp
  401fe5:	48 89 fa             	mov    %rdi,%rdx
  401fe8:	64 48 8b 04 25 28 00 	mov    %fs:0x28,%rax
  401fef:	00 00 
  401ff1:	48 89 45 f8          	mov    %rax,-0x8(%rbp)
  401ff5:	31 c0                	xor    %eax,%eax
  401ff7:	48 8d 47 1e          	lea    0x1e(%rdi),%rax
  401ffb:	48 83 e0 f0          	and    $0xfffffffffffffff0,%rax
  401fff:	48 29 c4             	sub    %rax,%rsp
  402002:	48 8d 7c 24 0f       	lea    0xf(%rsp),%rdi
  402007:	48 83 e7 f0          	and    $0xfffffffffffffff0,%rdi
  40200b:	be f4 00 00 00       	mov    $0xf4,%esi
  402010:	e8 fb ec ff ff       	callq  400d10 <memset@plt>
  402015:	48 8b 05 a4 34 20 00 	mov    0x2034a4(%rip),%rax        # 6054c0 <stdin@@GLIBC_2.2.5>
  40201c:	48 39 05 ed 34 20 00 	cmp    %rax,0x2034ed(%rip)        # 605510 <infile>
  402023:	75 14                	jne    402039 <launch+0x5c>
  402025:	be bc 34 40 00       	mov    $0x4034bc,%esi
  40202a:	bf 01 00 00 00       	mov    $0x1,%edi
  40202f:	b8 00 00 00 00       	mov    $0x0,%eax
  402034:	e8 c7 ed ff ff       	callq  400e00 <__printf_chk@plt>
  402039:	c7 05 d9 34 20 00 00 	movl   $0x0,0x2034d9(%rip)        # 60551c <vlevel>
  402040:	00 00 00 
  402043:	b8 00 00 00 00       	mov    $0x0,%eax
  402048:	e8 5b fa ff ff       	callq  401aa8 <test>
  40204d:	83 3d d4 34 20 00 00 	cmpl   $0x0,0x2034d4(%rip)        # 605528 <is_checker>
  402054:	74 14                	je     40206a <launch+0x8d>
  402056:	bf c9 34 40 00       	mov    $0x4034c9,%edi
  40205b:	e8 70 ec ff ff       	callq  400cd0 <puts@plt>
  402060:	b8 00 00 00 00       	mov    $0x0,%eax
  402065:	e8 d2 fa ff ff       	callq  401b3c <check_fail>
  40206a:	bf d4 34 40 00       	mov    $0x4034d4,%edi
  40206f:	e8 5c ec ff ff       	callq  400cd0 <puts@plt>
  402074:	48 8b 45 f8          	mov    -0x8(%rbp),%rax
  402078:	64 48 33 04 25 28 00 	xor    %fs:0x28,%rax
  40207f:	00 00 
  402081:	74 05                	je     402088 <launch+0xab>
  402083:	e8 68 ec ff ff       	callq  400cf0 <__stack_chk_fail@plt>
  402088:	c9                   	leaveq 
  402089:	c3                   	retq   

000000000040208a <stable_launch>:
  40208a:	53                   	push   %rbx
  40208b:	48 89 3d 76 34 20 00 	mov    %rdi,0x203476(%rip)        # 605508 <global_offset>
  402092:	41 b9 00 00 00 00    	mov    $0x0,%r9d
  402098:	41 b8 00 00 00 00    	mov    $0x0,%r8d
  40209e:	b9 32 01 00 00       	mov    $0x132,%ecx
  4020a3:	ba 07 00 00 00       	mov    $0x7,%edx
  4020a8:	be 00 00 10 00       	mov    $0x100000,%esi
  4020ad:	bf 00 60 58 55       	mov    $0x55586000,%edi
  4020b2:	e8 49 ec ff ff       	callq  400d00 <mmap@plt>
  4020b7:	48 89 c3             	mov    %rax,%rbx
  4020ba:	48 3d 00 60 58 55    	cmp    $0x55586000,%rax
  4020c0:	74 37                	je     4020f9 <stable_launch+0x6f>
  4020c2:	be 00 00 10 00       	mov    $0x100000,%esi
  4020c7:	48 89 c7             	mov    %rax,%rdi
  4020ca:	e8 21 ed ff ff       	callq  400df0 <munmap@plt>
  4020cf:	b9 00 60 58 55       	mov    $0x55586000,%ecx
  4020d4:	ba 88 36 40 00       	mov    $0x403688,%edx
  4020d9:	be 01 00 00 00       	mov    $0x1,%esi
  4020de:	48 8b 3d fb 33 20 00 	mov    0x2033fb(%rip),%rdi        # 6054e0 <stderr@@GLIBC_2.2.5>
  4020e5:	b8 00 00 00 00       	mov    $0x0,%eax
  4020ea:	e8 81 ed ff ff       	callq  400e70 <__fprintf_chk@plt>
  4020ef:	bf 01 00 00 00       	mov    $0x1,%edi
  4020f4:	e8 57 ed ff ff       	callq  400e50 <exit@plt>
  4020f9:	48 8d 90 f8 ff 0f 00 	lea    0xffff8(%rax),%rdx
  402100:	48 89 15 49 40 20 00 	mov    %rdx,0x204049(%rip)        # 606150 <stack_top>
  402107:	48 89 e0             	mov    %rsp,%rax
  40210a:	48 89 d4             	mov    %rdx,%rsp
  40210d:	48 89 c2             	mov    %rax,%rdx
  402110:	48 89 15 e9 33 20 00 	mov    %rdx,0x2033e9(%rip)        # 605500 <global_save_stack>
  402117:	48 8b 3d ea 33 20 00 	mov    0x2033ea(%rip),%rdi        # 605508 <global_offset>
  40211e:	e8 ba fe ff ff       	callq  401fdd <launch>
  402123:	48 8b 05 d6 33 20 00 	mov    0x2033d6(%rip),%rax        # 605500 <global_save_stack>
  40212a:	48 89 c4             	mov    %rax,%rsp
  40212d:	be 00 00 10 00       	mov    $0x100000,%esi
  402132:	48 89 df             	mov    %rbx,%rdi
  402135:	e8 b6 ec ff ff       	callq  400df0 <munmap@plt>
  40213a:	5b                   	pop    %rbx
  40213b:	c3                   	retq   

000000000040213c <rio_readinitb>:
  40213c:	89 37                	mov    %esi,(%rdi)
  40213e:	c7 47 04 00 00 00 00 	movl   $0x0,0x4(%rdi)
  402145:	48 8d 47 10          	lea    0x10(%rdi),%rax
  402149:	48 89 47 08          	mov    %rax,0x8(%rdi)
  40214d:	c3                   	retq   

000000000040214e <sigalrm_handler>:
  40214e:	48 83 ec 08          	sub    $0x8,%rsp
  402152:	b9 00 00 00 00       	mov    $0x0,%ecx
  402157:	ba c0 36 40 00       	mov    $0x4036c0,%edx
  40215c:	be 01 00 00 00       	mov    $0x1,%esi
  402161:	48 8b 3d 78 33 20 00 	mov    0x203378(%rip),%rdi        # 6054e0 <stderr@@GLIBC_2.2.5>
  402168:	b8 00 00 00 00       	mov    $0x0,%eax
  40216d:	e8 fe ec ff ff       	callq  400e70 <__fprintf_chk@plt>
  402172:	bf 01 00 00 00       	mov    $0x1,%edi
  402177:	e8 d4 ec ff ff       	callq  400e50 <exit@plt>

000000000040217c <rio_writen>:
  40217c:	41 55                	push   %r13
  40217e:	41 54                	push   %r12
  402180:	55                   	push   %rbp
  402181:	53                   	push   %rbx
  402182:	48 83 ec 08          	sub    $0x8,%rsp
  402186:	41 89 fc             	mov    %edi,%r12d
  402189:	48 89 f5             	mov    %rsi,%rbp
  40218c:	49 89 d5             	mov    %rdx,%r13
  40218f:	48 89 d3             	mov    %rdx,%rbx
  402192:	eb 28                	jmp    4021bc <rio_writen+0x40>
  402194:	48 89 da             	mov    %rbx,%rdx
  402197:	48 89 ee             	mov    %rbp,%rsi
  40219a:	44 89 e7             	mov    %r12d,%edi
  40219d:	e8 3e eb ff ff       	callq  400ce0 <write@plt>
  4021a2:	48 85 c0             	test   %rax,%rax
  4021a5:	7f 0f                	jg     4021b6 <rio_writen+0x3a>
  4021a7:	e8 e4 ea ff ff       	callq  400c90 <__errno_location@plt>
  4021ac:	83 38 04             	cmpl   $0x4,(%rax)
  4021af:	75 15                	jne    4021c6 <rio_writen+0x4a>
  4021b1:	b8 00 00 00 00       	mov    $0x0,%eax
  4021b6:	48 29 c3             	sub    %rax,%rbx
  4021b9:	48 01 c5             	add    %rax,%rbp
  4021bc:	48 85 db             	test   %rbx,%rbx
  4021bf:	75 d3                	jne    402194 <rio_writen+0x18>
  4021c1:	4c 89 e8             	mov    %r13,%rax
  4021c4:	eb 07                	jmp    4021cd <rio_writen+0x51>
  4021c6:	48 c7 c0 ff ff ff ff 	mov    $0xffffffffffffffff,%rax
  4021cd:	48 83 c4 08          	add    $0x8,%rsp
  4021d1:	5b                   	pop    %rbx
  4021d2:	5d                   	pop    %rbp
  4021d3:	41 5c                	pop    %r12
  4021d5:	41 5d                	pop    %r13
  4021d7:	c3                   	retq   

00000000004021d8 <rio_read>:
  4021d8:	41 55                	push   %r13
  4021da:	41 54                	push   %r12
  4021dc:	55                   	push   %rbp
  4021dd:	53                   	push   %rbx
  4021de:	48 83 ec 08          	sub    $0x8,%rsp
  4021e2:	48 89 fb             	mov    %rdi,%rbx
  4021e5:	49 89 f5             	mov    %rsi,%r13
  4021e8:	49 89 d4             	mov    %rdx,%r12
  4021eb:	eb 2e                	jmp    40221b <rio_read+0x43>
  4021ed:	48 8d 6b 10          	lea    0x10(%rbx),%rbp
  4021f1:	8b 3b                	mov    (%rbx),%edi
  4021f3:	ba 00 20 00 00       	mov    $0x2000,%edx
  4021f8:	48 89 ee             	mov    %rbp,%rsi
  4021fb:	e8 40 eb ff ff       	callq  400d40 <read@plt>
  402200:	89 43 04             	mov    %eax,0x4(%rbx)
  402203:	85 c0                	test   %eax,%eax
  402205:	79 0c                	jns    402213 <rio_read+0x3b>
  402207:	e8 84 ea ff ff       	callq  400c90 <__errno_location@plt>
  40220c:	83 38 04             	cmpl   $0x4,(%rax)
  40220f:	74 0a                	je     40221b <rio_read+0x43>
  402211:	eb 37                	jmp    40224a <rio_read+0x72>
  402213:	85 c0                	test   %eax,%eax
  402215:	74 3c                	je     402253 <rio_read+0x7b>
  402217:	48 89 6b 08          	mov    %rbp,0x8(%rbx)
  40221b:	8b 6b 04             	mov    0x4(%rbx),%ebp
  40221e:	85 ed                	test   %ebp,%ebp
  402220:	7e cb                	jle    4021ed <rio_read+0x15>
  402222:	89 e8                	mov    %ebp,%eax
  402224:	49 39 c4             	cmp    %rax,%r12
  402227:	77 03                	ja     40222c <rio_read+0x54>
  402229:	44 89 e5             	mov    %r12d,%ebp
  40222c:	4c 63 e5             	movslq %ebp,%r12
  40222f:	48 8b 73 08          	mov    0x8(%rbx),%rsi
  402233:	4c 89 e2             	mov    %r12,%rdx
  402236:	4c 89 ef             	mov    %r13,%rdi
  402239:	e8 62 eb ff ff       	callq  400da0 <memcpy@plt>
  40223e:	4c 01 63 08          	add    %r12,0x8(%rbx)
  402242:	29 6b 04             	sub    %ebp,0x4(%rbx)
  402245:	4c 89 e0             	mov    %r12,%rax
  402248:	eb 0e                	jmp    402258 <rio_read+0x80>
  40224a:	48 c7 c0 ff ff ff ff 	mov    $0xffffffffffffffff,%rax
  402251:	eb 05                	jmp    402258 <rio_read+0x80>
  402253:	b8 00 00 00 00       	mov    $0x0,%eax
  402258:	48 83 c4 08          	add    $0x8,%rsp
  40225c:	5b                   	pop    %rbx
  40225d:	5d                   	pop    %rbp
  40225e:	41 5c                	pop    %r12
  402260:	41 5d                	pop    %r13
  402262:	c3                   	retq   

0000000000402263 <rio_readlineb>:
  402263:	41 55                	push   %r13
  402265:	41 54                	push   %r12
  402267:	55                   	push   %rbp
  402268:	53                   	push   %rbx
  402269:	48 83 ec 18          	sub    $0x18,%rsp
  40226d:	49 89 fd             	mov    %rdi,%r13
  402270:	48 89 f5             	mov    %rsi,%rbp
  402273:	49 89 d4             	mov    %rdx,%r12
  402276:	64 48 8b 04 25 28 00 	mov    %fs:0x28,%rax
  40227d:	00 00 
  40227f:	48 89 44 24 08       	mov    %rax,0x8(%rsp)
  402284:	31 c0                	xor    %eax,%eax
  402286:	bb 01 00 00 00       	mov    $0x1,%ebx
  40228b:	eb 3f                	jmp    4022cc <rio_readlineb+0x69>
  40228d:	ba 01 00 00 00       	mov    $0x1,%edx
  402292:	48 8d 74 24 07       	lea    0x7(%rsp),%rsi
  402297:	4c 89 ef             	mov    %r13,%rdi
  40229a:	e8 39 ff ff ff       	callq  4021d8 <rio_read>
  40229f:	83 f8 01             	cmp    $0x1,%eax
  4022a2:	75 15                	jne    4022b9 <rio_readlineb+0x56>
  4022a4:	48 8d 45 01          	lea    0x1(%rbp),%rax
  4022a8:	0f b6 54 24 07       	movzbl 0x7(%rsp),%edx
  4022ad:	88 55 00             	mov    %dl,0x0(%rbp)
  4022b0:	80 7c 24 07 0a       	cmpb   $0xa,0x7(%rsp)
  4022b5:	75 0e                	jne    4022c5 <rio_readlineb+0x62>
  4022b7:	eb 1a                	jmp    4022d3 <rio_readlineb+0x70>
  4022b9:	85 c0                	test   %eax,%eax
  4022bb:	75 22                	jne    4022df <rio_readlineb+0x7c>
  4022bd:	48 83 fb 01          	cmp    $0x1,%rbx
  4022c1:	75 13                	jne    4022d6 <rio_readlineb+0x73>
  4022c3:	eb 23                	jmp    4022e8 <rio_readlineb+0x85>
  4022c5:	48 83 c3 01          	add    $0x1,%rbx
  4022c9:	48 89 c5             	mov    %rax,%rbp
  4022cc:	4c 39 e3             	cmp    %r12,%rbx
  4022cf:	72 bc                	jb     40228d <rio_readlineb+0x2a>
  4022d1:	eb 03                	jmp    4022d6 <rio_readlineb+0x73>
  4022d3:	48 89 c5             	mov    %rax,%rbp
  4022d6:	c6 45 00 00          	movb   $0x0,0x0(%rbp)
  4022da:	48 89 d8             	mov    %rbx,%rax
  4022dd:	eb 0e                	jmp    4022ed <rio_readlineb+0x8a>
  4022df:	48 c7 c0 ff ff ff ff 	mov    $0xffffffffffffffff,%rax
  4022e6:	eb 05                	jmp    4022ed <rio_readlineb+0x8a>
  4022e8:	b8 00 00 00 00       	mov    $0x0,%eax
  4022ed:	48 8b 4c 24 08       	mov    0x8(%rsp),%rcx
  4022f2:	64 48 33 0c 25 28 00 	xor    %fs:0x28,%rcx
  4022f9:	00 00 
  4022fb:	74 05                	je     402302 <rio_readlineb+0x9f>
  4022fd:	e8 ee e9 ff ff       	callq  400cf0 <__stack_chk_fail@plt>
  402302:	48 83 c4 18          	add    $0x18,%rsp
  402306:	5b                   	pop    %rbx
  402307:	5d                   	pop    %rbp
  402308:	41 5c                	pop    %r12
  40230a:	41 5d                	pop    %r13
  40230c:	c3                   	retq   

000000000040230d <urlencode>:
  40230d:	41 54                	push   %r12
  40230f:	55                   	push   %rbp
  402310:	53                   	push   %rbx
  402311:	48 83 ec 10          	sub    $0x10,%rsp
  402315:	48 89 fb             	mov    %rdi,%rbx
  402318:	48 89 f5             	mov    %rsi,%rbp
  40231b:	64 48 8b 04 25 28 00 	mov    %fs:0x28,%rax
  402322:	00 00 
  402324:	48 89 44 24 08       	mov    %rax,0x8(%rsp)
  402329:	31 c0                	xor    %eax,%eax
  40232b:	48 c7 c1 ff ff ff ff 	mov    $0xffffffffffffffff,%rcx
  402332:	f2 ae                	repnz scas %es:(%rdi),%al
  402334:	48 f7 d1             	not    %rcx
  402337:	8d 41 ff             	lea    -0x1(%rcx),%eax
  40233a:	e9 aa 00 00 00       	jmpq   4023e9 <urlencode+0xdc>
  40233f:	44 0f b6 03          	movzbl (%rbx),%r8d
  402343:	41 80 f8 2a          	cmp    $0x2a,%r8b
  402347:	0f 94 c2             	sete   %dl
  40234a:	41 80 f8 2d          	cmp    $0x2d,%r8b
  40234e:	0f 94 c0             	sete   %al
  402351:	08 c2                	or     %al,%dl
  402353:	75 24                	jne    402379 <urlencode+0x6c>
  402355:	41 80 f8 2e          	cmp    $0x2e,%r8b
  402359:	74 1e                	je     402379 <urlencode+0x6c>
  40235b:	41 80 f8 5f          	cmp    $0x5f,%r8b
  40235f:	74 18                	je     402379 <urlencode+0x6c>
  402361:	41 8d 40 d0          	lea    -0x30(%r8),%eax
  402365:	3c 09                	cmp    $0x9,%al
  402367:	76 10                	jbe    402379 <urlencode+0x6c>
  402369:	41 8d 40 bf          	lea    -0x41(%r8),%eax
  40236d:	3c 19                	cmp    $0x19,%al
  40236f:	76 08                	jbe    402379 <urlencode+0x6c>
  402371:	41 8d 40 9f          	lea    -0x61(%r8),%eax
  402375:	3c 19                	cmp    $0x19,%al
  402377:	77 0a                	ja     402383 <urlencode+0x76>
  402379:	44 88 45 00          	mov    %r8b,0x0(%rbp)
  40237d:	48 8d 6d 01          	lea    0x1(%rbp),%rbp
  402381:	eb 5f                	jmp    4023e2 <urlencode+0xd5>
  402383:	41 80 f8 20          	cmp    $0x20,%r8b
  402387:	75 0a                	jne    402393 <urlencode+0x86>
  402389:	c6 45 00 2b          	movb   $0x2b,0x0(%rbp)
  40238d:	48 8d 6d 01          	lea    0x1(%rbp),%rbp
  402391:	eb 4f                	jmp    4023e2 <urlencode+0xd5>
  402393:	41 8d 40 e0          	lea    -0x20(%r8),%eax
  402397:	3c 5f                	cmp    $0x5f,%al
  402399:	0f 96 c2             	setbe  %dl
  40239c:	41 80 f8 09          	cmp    $0x9,%r8b
  4023a0:	0f 94 c0             	sete   %al
  4023a3:	08 c2                	or     %al,%dl
  4023a5:	74 50                	je     4023f7 <urlencode+0xea>
  4023a7:	45 0f b6 c0          	movzbl %r8b,%r8d
  4023ab:	b9 58 37 40 00       	mov    $0x403758,%ecx
  4023b0:	ba 08 00 00 00       	mov    $0x8,%edx
  4023b5:	be 01 00 00 00       	mov    $0x1,%esi
  4023ba:	48 89 e7             	mov    %rsp,%rdi
  4023bd:	b8 00 00 00 00       	mov    $0x0,%eax
  4023c2:	e8 b9 ea ff ff       	callq  400e80 <__sprintf_chk@plt>
  4023c7:	0f b6 04 24          	movzbl (%rsp),%eax
  4023cb:	88 45 00             	mov    %al,0x0(%rbp)
  4023ce:	0f b6 44 24 01       	movzbl 0x1(%rsp),%eax
  4023d3:	88 45 01             	mov    %al,0x1(%rbp)
  4023d6:	0f b6 44 24 02       	movzbl 0x2(%rsp),%eax
  4023db:	88 45 02             	mov    %al,0x2(%rbp)
  4023de:	48 8d 6d 03          	lea    0x3(%rbp),%rbp
  4023e2:	48 83 c3 01          	add    $0x1,%rbx
  4023e6:	44 89 e0             	mov    %r12d,%eax
  4023e9:	44 8d 60 ff          	lea    -0x1(%rax),%r12d
  4023ed:	85 c0                	test   %eax,%eax
  4023ef:	0f 85 4a ff ff ff    	jne    40233f <urlencode+0x32>
  4023f5:	eb 05                	jmp    4023fc <urlencode+0xef>
  4023f7:	b8 ff ff ff ff       	mov    $0xffffffff,%eax
  4023fc:	48 8b 74 24 08       	mov    0x8(%rsp),%rsi
  402401:	64 48 33 34 25 28 00 	xor    %fs:0x28,%rsi
  402408:	00 00 
  40240a:	74 05                	je     402411 <urlencode+0x104>
  40240c:	e8 df e8 ff ff       	callq  400cf0 <__stack_chk_fail@plt>
  402411:	48 83 c4 10          	add    $0x10,%rsp
  402415:	5b                   	pop    %rbx
  402416:	5d                   	pop    %rbp
  402417:	41 5c                	pop    %r12
  402419:	c3                   	retq   

000000000040241a <submitr>:
  40241a:	41 57                	push   %r15
  40241c:	41 56                	push   %r14
  40241e:	41 55                	push   %r13
  402420:	41 54                	push   %r12
  402422:	55                   	push   %rbp
  402423:	53                   	push   %rbx
  402424:	48 81 ec 58 a0 00 00 	sub    $0xa058,%rsp
  40242b:	49 89 fc             	mov    %rdi,%r12
  40242e:	89 74 24 04          	mov    %esi,0x4(%rsp)
  402432:	49 89 d7             	mov    %rdx,%r15
  402435:	49 89 ce             	mov    %rcx,%r14
  402438:	4c 89 44 24 08       	mov    %r8,0x8(%rsp)
  40243d:	4d 89 cd             	mov    %r9,%r13
  402440:	48 8b 9c 24 90 a0 00 	mov    0xa090(%rsp),%rbx
  402447:	00 
  402448:	64 48 8b 04 25 28 00 	mov    %fs:0x28,%rax
  40244f:	00 00 
  402451:	48 89 84 24 48 a0 00 	mov    %rax,0xa048(%rsp)
  402458:	00 
  402459:	31 c0                	xor    %eax,%eax
  40245b:	c7 44 24 1c 00 00 00 	movl   $0x0,0x1c(%rsp)
  402462:	00 
  402463:	ba 00 00 00 00       	mov    $0x0,%edx
  402468:	be 01 00 00 00       	mov    $0x1,%esi
  40246d:	bf 02 00 00 00       	mov    $0x2,%edi
  402472:	e8 19 ea ff ff       	callq  400e90 <socket@plt>
  402477:	85 c0                	test   %eax,%eax
  402479:	79 4e                	jns    4024c9 <submitr+0xaf>
  40247b:	48 b8 45 72 72 6f 72 	movabs $0x43203a726f727245,%rax
  402482:	3a 20 43 
  402485:	48 89 03             	mov    %rax,(%rbx)
  402488:	48 b8 6c 69 65 6e 74 	movabs $0x6e7520746e65696c,%rax
  40248f:	20 75 6e 
  402492:	48 89 43 08          	mov    %rax,0x8(%rbx)
  402496:	48 b8 61 62 6c 65 20 	movabs $0x206f7420656c6261,%rax
  40249d:	74 6f 20 
  4024a0:	48 89 43 10          	mov    %rax,0x10(%rbx)
  4024a4:	48 b8 63 72 65 61 74 	movabs $0x7320657461657263,%rax
  4024ab:	65 20 73 
  4024ae:	48 89 43 18          	mov    %rax,0x18(%rbx)
  4024b2:	c7 43 20 6f 63 6b 65 	movl   $0x656b636f,0x20(%rbx)
  4024b9:	66 c7 43 24 74 00    	movw   $0x74,0x24(%rbx)
  4024bf:	b8 ff ff ff ff       	mov    $0xffffffff,%eax
  4024c4:	e9 97 06 00 00       	jmpq   402b60 <submitr+0x746>
  4024c9:	89 c5                	mov    %eax,%ebp
  4024cb:	4c 89 e7             	mov    %r12,%rdi
  4024ce:	e8 9d e8 ff ff       	callq  400d70 <gethostbyname@plt>
  4024d3:	48 85 c0             	test   %rax,%rax
  4024d6:	75 67                	jne    40253f <submitr+0x125>
  4024d8:	48 b8 45 72 72 6f 72 	movabs $0x44203a726f727245,%rax
  4024df:	3a 20 44 
  4024e2:	48 89 03             	mov    %rax,(%rbx)
  4024e5:	48 b8 4e 53 20 69 73 	movabs $0x6e7520736920534e,%rax
  4024ec:	20 75 6e 
  4024ef:	48 89 43 08          	mov    %rax,0x8(%rbx)
  4024f3:	48 b8 61 62 6c 65 20 	movabs $0x206f7420656c6261,%rax
  4024fa:	74 6f 20 
  4024fd:	48 89 43 10          	mov    %rax,0x10(%rbx)
  402501:	48 b8 72 65 73 6f 6c 	movabs $0x2065766c6f736572,%rax
  402508:	76 65 20 
  40250b:	48 89 43 18          	mov    %rax,0x18(%rbx)
  40250f:	48 b8 73 65 72 76 65 	movabs $0x6120726576726573,%rax
  402516:	72 20 61 
  402519:	48 89 43 20          	mov    %rax,0x20(%rbx)
  40251d:	c7 43 28 64 64 72 65 	movl   $0x65726464,0x28(%rbx)
  402524:	66 c7 43 2c 73 73    	movw   $0x7373,0x2c(%rbx)
  40252a:	c6 43 2e 00          	movb   $0x0,0x2e(%rbx)
  40252e:	89 ef                	mov    %ebp,%edi
  402530:	e8 fb e7 ff ff       	callq  400d30 <close@plt>
  402535:	b8 ff ff ff ff       	mov    $0xffffffff,%eax
  40253a:	e9 21 06 00 00       	jmpq   402b60 <submitr+0x746>
  40253f:	48 c7 44 24 20 00 00 	movq   $0x0,0x20(%rsp)
  402546:	00 00 
  402548:	48 c7 44 24 28 00 00 	movq   $0x0,0x28(%rsp)
  40254f:	00 00 
  402551:	66 c7 44 24 20 02 00 	movw   $0x2,0x20(%rsp)
  402558:	48 63 50 14          	movslq 0x14(%rax),%rdx
  40255c:	48 8b 40 18          	mov    0x18(%rax),%rax
  402560:	48 8b 30             	mov    (%rax),%rsi
  402563:	48 8d 7c 24 24       	lea    0x24(%rsp),%rdi
  402568:	b9 0c 00 00 00       	mov    $0xc,%ecx
  40256d:	e8 0e e8 ff ff       	callq  400d80 <__memmove_chk@plt>
  402572:	0f b7 44 24 04       	movzwl 0x4(%rsp),%eax
  402577:	66 c1 c8 08          	ror    $0x8,%ax
  40257b:	66 89 44 24 22       	mov    %ax,0x22(%rsp)
  402580:	ba 10 00 00 00       	mov    $0x10,%edx
  402585:	48 8d 74 24 20       	lea    0x20(%rsp),%rsi
  40258a:	89 ef                	mov    %ebp,%edi
  40258c:	e8 cf e8 ff ff       	callq  400e60 <connect@plt>
  402591:	85 c0                	test   %eax,%eax
  402593:	79 59                	jns    4025ee <submitr+0x1d4>
  402595:	48 b8 45 72 72 6f 72 	movabs $0x55203a726f727245,%rax
  40259c:	3a 20 55 
  40259f:	48 89 03             	mov    %rax,(%rbx)
  4025a2:	48 b8 6e 61 62 6c 65 	movabs $0x6f7420656c62616e,%rax
  4025a9:	20 74 6f 
  4025ac:	48 89 43 08          	mov    %rax,0x8(%rbx)
  4025b0:	48 b8 20 63 6f 6e 6e 	movabs $0x7463656e6e6f6320,%rax
  4025b7:	65 63 74 
  4025ba:	48 89 43 10          	mov    %rax,0x10(%rbx)
  4025be:	48 b8 20 74 6f 20 74 	movabs $0x20656874206f7420,%rax
  4025c5:	68 65 20 
  4025c8:	48 89 43 18          	mov    %rax,0x18(%rbx)
  4025cc:	c7 43 20 73 65 72 76 	movl   $0x76726573,0x20(%rbx)
  4025d3:	66 c7 43 24 65 72    	movw   $0x7265,0x24(%rbx)
  4025d9:	c6 43 26 00          	movb   $0x0,0x26(%rbx)
  4025dd:	89 ef                	mov    %ebp,%edi
  4025df:	e8 4c e7 ff ff       	callq  400d30 <close@plt>
  4025e4:	b8 ff ff ff ff       	mov    $0xffffffff,%eax
  4025e9:	e9 72 05 00 00       	jmpq   402b60 <submitr+0x746>
  4025ee:	48 c7 c6 ff ff ff ff 	mov    $0xffffffffffffffff,%rsi
  4025f5:	b8 00 00 00 00       	mov    $0x0,%eax
  4025fa:	48 89 f1             	mov    %rsi,%rcx
  4025fd:	4c 89 ef             	mov    %r13,%rdi
  402600:	f2 ae                	repnz scas %es:(%rdi),%al
  402602:	48 f7 d1             	not    %rcx
  402605:	48 89 ca             	mov    %rcx,%rdx
  402608:	48 89 f1             	mov    %rsi,%rcx
  40260b:	4c 89 ff             	mov    %r15,%rdi
  40260e:	f2 ae                	repnz scas %es:(%rdi),%al
  402610:	48 f7 d1             	not    %rcx
  402613:	49 89 c8             	mov    %rcx,%r8
  402616:	48 89 f1             	mov    %rsi,%rcx
  402619:	4c 89 f7             	mov    %r14,%rdi
  40261c:	f2 ae                	repnz scas %es:(%rdi),%al
  40261e:	48 f7 d1             	not    %rcx
  402621:	4d 8d 44 08 fe       	lea    -0x2(%r8,%rcx,1),%r8
  402626:	48 89 f1             	mov    %rsi,%rcx
  402629:	48 8b 7c 24 08       	mov    0x8(%rsp),%rdi
  40262e:	f2 ae                	repnz scas %es:(%rdi),%al
  402630:	48 89 c8             	mov    %rcx,%rax
  402633:	48 f7 d0             	not    %rax
  402636:	49 8d 4c 00 ff       	lea    -0x1(%r8,%rax,1),%rcx
  40263b:	48 8d 44 52 fd       	lea    -0x3(%rdx,%rdx,2),%rax
  402640:	48 8d 84 01 80 00 00 	lea    0x80(%rcx,%rax,1),%rax
  402647:	00 
  402648:	48 3d 00 20 00 00    	cmp    $0x2000,%rax
  40264e:	76 72                	jbe    4026c2 <submitr+0x2a8>
  402650:	48 b8 45 72 72 6f 72 	movabs $0x52203a726f727245,%rax
  402657:	3a 20 52 
  40265a:	48 89 03             	mov    %rax,(%rbx)
  40265d:	48 b8 65 73 75 6c 74 	movabs $0x747320746c757365,%rax
  402664:	20 73 74 
  402667:	48 89 43 08          	mov    %rax,0x8(%rbx)
  40266b:	48 b8 72 69 6e 67 20 	movabs $0x6f6f7420676e6972,%rax
  402672:	74 6f 6f 
  402675:	48 89 43 10          	mov    %rax,0x10(%rbx)
  402679:	48 b8 20 6c 61 72 67 	movabs $0x202e656772616c20,%rax
  402680:	65 2e 20 
  402683:	48 89 43 18          	mov    %rax,0x18(%rbx)
  402687:	48 b8 49 6e 63 72 65 	movabs $0x6573616572636e49,%rax
  40268e:	61 73 65 
  402691:	48 89 43 20          	mov    %rax,0x20(%rbx)
  402695:	48 b8 20 53 55 42 4d 	movabs $0x5254494d42555320,%rax
  40269c:	49 54 52 
  40269f:	48 89 43 28          	mov    %rax,0x28(%rbx)
  4026a3:	48 b8 5f 4d 41 58 42 	movabs $0x46554258414d5f,%rax
  4026aa:	55 46 00 
  4026ad:	48 89 43 30          	mov    %rax,0x30(%rbx)
  4026b1:	89 ef                	mov    %ebp,%edi
  4026b3:	e8 78 e6 ff ff       	callq  400d30 <close@plt>
  4026b8:	b8 ff ff ff ff       	mov    $0xffffffff,%eax
  4026bd:	e9 9e 04 00 00       	jmpq   402b60 <submitr+0x746>
  4026c2:	48 8d b4 24 40 40 00 	lea    0x4040(%rsp),%rsi
  4026c9:	00 
  4026ca:	b9 00 04 00 00       	mov    $0x400,%ecx
  4026cf:	b8 00 00 00 00       	mov    $0x0,%eax
  4026d4:	48 89 f7             	mov    %rsi,%rdi
  4026d7:	f3 48 ab             	rep stos %rax,%es:(%rdi)
  4026da:	4c 89 ef             	mov    %r13,%rdi
  4026dd:	e8 2b fc ff ff       	callq  40230d <urlencode>
  4026e2:	85 c0                	test   %eax,%eax
  4026e4:	0f 89 8a 00 00 00    	jns    402774 <submitr+0x35a>
  4026ea:	48 b8 45 72 72 6f 72 	movabs $0x52203a726f727245,%rax
  4026f1:	3a 20 52 
  4026f4:	48 89 03             	mov    %rax,(%rbx)
  4026f7:	48 b8 65 73 75 6c 74 	movabs $0x747320746c757365,%rax
  4026fe:	20 73 74 
  402701:	48 89 43 08          	mov    %rax,0x8(%rbx)
  402705:	48 b8 72 69 6e 67 20 	movabs $0x6e6f6320676e6972,%rax
  40270c:	63 6f 6e 
  40270f:	48 89 43 10          	mov    %rax,0x10(%rbx)
  402713:	48 b8 74 61 69 6e 73 	movabs $0x6e6120736e696174,%rax
  40271a:	20 61 6e 
  40271d:	48 89 43 18          	mov    %rax,0x18(%rbx)
  402721:	48 b8 20 69 6c 6c 65 	movabs $0x6c6167656c6c6920,%rax
  402728:	67 61 6c 
  40272b:	48 89 43 20          	mov    %rax,0x20(%rbx)
  40272f:	48 b8 20 6f 72 20 75 	movabs $0x72706e7520726f20,%rax
  402736:	6e 70 72 
  402739:	48 89 43 28          	mov    %rax,0x28(%rbx)
  40273d:	48 b8 69 6e 74 61 62 	movabs $0x20656c6261746e69,%rax
  402744:	6c 65 20 
  402747:	48 89 43 30          	mov    %rax,0x30(%rbx)
  40274b:	48 b8 63 68 61 72 61 	movabs $0x6574636172616863,%rax
  402752:	63 74 65 
  402755:	48 89 43 38          	mov    %rax,0x38(%rbx)
  402759:	66 c7 43 40 72 2e    	movw   $0x2e72,0x40(%rbx)
  40275f:	c6 43 42 00          	movb   $0x0,0x42(%rbx)
  402763:	89 ef                	mov    %ebp,%edi
  402765:	e8 c6 e5 ff ff       	callq  400d30 <close@plt>
  40276a:	b8 ff ff ff ff       	mov    $0xffffffff,%eax
  40276f:	e9 ec 03 00 00       	jmpq   402b60 <submitr+0x746>
  402774:	4c 8d ac 24 40 20 00 	lea    0x2040(%rsp),%r13
  40277b:	00 
  40277c:	41 54                	push   %r12
  40277e:	48 8d 84 24 48 40 00 	lea    0x4048(%rsp),%rax
  402785:	00 
  402786:	50                   	push   %rax
  402787:	4d 89 f9             	mov    %r15,%r9
  40278a:	4d 89 f0             	mov    %r14,%r8
  40278d:	b9 e8 36 40 00       	mov    $0x4036e8,%ecx
  402792:	ba 00 20 00 00       	mov    $0x2000,%edx
  402797:	be 01 00 00 00       	mov    $0x1,%esi
  40279c:	4c 89 ef             	mov    %r13,%rdi
  40279f:	b8 00 00 00 00       	mov    $0x0,%eax
  4027a4:	e8 d7 e6 ff ff       	callq  400e80 <__sprintf_chk@plt>
  4027a9:	b8 00 00 00 00       	mov    $0x0,%eax
  4027ae:	48 c7 c1 ff ff ff ff 	mov    $0xffffffffffffffff,%rcx
  4027b5:	4c 89 ef             	mov    %r13,%rdi
  4027b8:	f2 ae                	repnz scas %es:(%rdi),%al
  4027ba:	48 f7 d1             	not    %rcx
  4027bd:	48 8d 51 ff          	lea    -0x1(%rcx),%rdx
  4027c1:	4c 89 ee             	mov    %r13,%rsi
  4027c4:	89 ef                	mov    %ebp,%edi
  4027c6:	e8 b1 f9 ff ff       	callq  40217c <rio_writen>
  4027cb:	48 83 c4 10          	add    $0x10,%rsp
  4027cf:	48 85 c0             	test   %rax,%rax
  4027d2:	79 6e                	jns    402842 <submitr+0x428>
  4027d4:	48 b8 45 72 72 6f 72 	movabs $0x43203a726f727245,%rax
  4027db:	3a 20 43 
  4027de:	48 89 03             	mov    %rax,(%rbx)
  4027e1:	48 b8 6c 69 65 6e 74 	movabs $0x6e7520746e65696c,%rax
  4027e8:	20 75 6e 
  4027eb:	48 89 43 08          	mov    %rax,0x8(%rbx)
  4027ef:	48 b8 61 62 6c 65 20 	movabs $0x206f7420656c6261,%rax
  4027f6:	74 6f 20 
  4027f9:	48 89 43 10          	mov    %rax,0x10(%rbx)
  4027fd:	48 b8 77 72 69 74 65 	movabs $0x6f74206574697277,%rax
  402804:	20 74 6f 
  402807:	48 89 43 18          	mov    %rax,0x18(%rbx)
  40280b:	48 b8 20 74 68 65 20 	movabs $0x7365722065687420,%rax
  402812:	72 65 73 
  402815:	48 89 43 20          	mov    %rax,0x20(%rbx)
  402819:	48 b8 75 6c 74 20 73 	movabs $0x7672657320746c75,%rax
  402820:	65 72 76 
  402823:	48 89 43 28          	mov    %rax,0x28(%rbx)
  402827:	66 c7 43 30 65 72    	movw   $0x7265,0x30(%rbx)
  40282d:	c6 43 32 00          	movb   $0x0,0x32(%rbx)
  402831:	89 ef                	mov    %ebp,%edi
  402833:	e8 f8 e4 ff ff       	callq  400d30 <close@plt>
  402838:	b8 ff ff ff ff       	mov    $0xffffffff,%eax
  40283d:	e9 1e 03 00 00       	jmpq   402b60 <submitr+0x746>
  402842:	89 ee                	mov    %ebp,%esi
  402844:	48 8d 7c 24 30       	lea    0x30(%rsp),%rdi
  402849:	e8 ee f8 ff ff       	callq  40213c <rio_readinitb>
  40284e:	ba 00 20 00 00       	mov    $0x2000,%edx
  402853:	48 8d b4 24 40 20 00 	lea    0x2040(%rsp),%rsi
  40285a:	00 
  40285b:	48 8d 7c 24 30       	lea    0x30(%rsp),%rdi
  402860:	e8 fe f9 ff ff       	callq  402263 <rio_readlineb>
  402865:	48 85 c0             	test   %rax,%rax
  402868:	7f 7d                	jg     4028e7 <submitr+0x4cd>
  40286a:	48 b8 45 72 72 6f 72 	movabs $0x43203a726f727245,%rax
  402871:	3a 20 43 
  402874:	48 89 03             	mov    %rax,(%rbx)
  402877:	48 b8 6c 69 65 6e 74 	movabs $0x6e7520746e65696c,%rax
  40287e:	20 75 6e 
  402881:	48 89 43 08          	mov    %rax,0x8(%rbx)
  402885:	48 b8 61 62 6c 65 20 	movabs $0x206f7420656c6261,%rax
  40288c:	74 6f 20 
  40288f:	48 89 43 10          	mov    %rax,0x10(%rbx)
  402893:	48 b8 72 65 61 64 20 	movabs $0x7269662064616572,%rax
  40289a:	66 69 72 
  40289d:	48 89 43 18          	mov    %rax,0x18(%rbx)
  4028a1:	48 b8 73 74 20 68 65 	movabs $0x6564616568207473,%rax
  4028a8:	61 64 65 
  4028ab:	48 89 43 20          	mov    %rax,0x20(%rbx)
  4028af:	48 b8 72 20 66 72 6f 	movabs $0x72206d6f72662072,%rax
  4028b6:	6d 20 72 
  4028b9:	48 89 43 28          	mov    %rax,0x28(%rbx)
  4028bd:	48 b8 65 73 75 6c 74 	movabs $0x657320746c757365,%rax
  4028c4:	20 73 65 
  4028c7:	48 89 43 30          	mov    %rax,0x30(%rbx)
  4028cb:	c7 43 38 72 76 65 72 	movl   $0x72657672,0x38(%rbx)
  4028d2:	c6 43 3c 00          	movb   $0x0,0x3c(%rbx)
  4028d6:	89 ef                	mov    %ebp,%edi
  4028d8:	e8 53 e4 ff ff       	callq  400d30 <close@plt>
  4028dd:	b8 ff ff ff ff       	mov    $0xffffffff,%eax
  4028e2:	e9 79 02 00 00       	jmpq   402b60 <submitr+0x746>
  4028e7:	4c 8d 84 24 40 80 00 	lea    0x8040(%rsp),%r8
  4028ee:	00 
  4028ef:	48 8d 4c 24 1c       	lea    0x1c(%rsp),%rcx
  4028f4:	48 8d 94 24 40 60 00 	lea    0x6040(%rsp),%rdx
  4028fb:	00 
  4028fc:	be 5f 37 40 00       	mov    $0x40375f,%esi
  402901:	48 8d bc 24 40 20 00 	lea    0x2040(%rsp),%rdi
  402908:	00 
  402909:	b8 00 00 00 00       	mov    $0x0,%eax
  40290e:	e8 cd e4 ff ff       	callq  400de0 <__isoc99_sscanf@plt>
  402913:	e9 95 00 00 00       	jmpq   4029ad <submitr+0x593>
  402918:	ba 00 20 00 00       	mov    $0x2000,%edx
  40291d:	48 8d b4 24 40 20 00 	lea    0x2040(%rsp),%rsi
  402924:	00 
  402925:	48 8d 7c 24 30       	lea    0x30(%rsp),%rdi
  40292a:	e8 34 f9 ff ff       	callq  402263 <rio_readlineb>
  40292f:	48 85 c0             	test   %rax,%rax
  402932:	7f 79                	jg     4029ad <submitr+0x593>
  402934:	48 b8 45 72 72 6f 72 	movabs $0x43203a726f727245,%rax
  40293b:	3a 20 43 
  40293e:	48 89 03             	mov    %rax,(%rbx)
  402941:	48 b8 6c 69 65 6e 74 	movabs $0x6e7520746e65696c,%rax
  402948:	20 75 6e 
  40294b:	48 89 43 08          	mov    %rax,0x8(%rbx)
  40294f:	48 b8 61 62 6c 65 20 	movabs $0x206f7420656c6261,%rax
  402956:	74 6f 20 
  402959:	48 89 43 10          	mov    %rax,0x10(%rbx)
  40295d:	48 b8 72 65 61 64 20 	movabs $0x6165682064616572,%rax
  402964:	68 65 61 
  402967:	48 89 43 18          	mov    %rax,0x18(%rbx)
  40296b:	48 b8 64 65 72 73 20 	movabs $0x6f72662073726564,%rax
  402972:	66 72 6f 
  402975:	48 89 43 20          	mov    %rax,0x20(%rbx)
  402979:	48 b8 6d 20 74 68 65 	movabs $0x657220656874206d,%rax
  402980:	20 72 65 
  402983:	48 89 43 28          	mov    %rax,0x28(%rbx)
  402987:	48 b8 73 75 6c 74 20 	movabs $0x72657320746c7573,%rax
  40298e:	73 65 72 
  402991:	48 89 43 30          	mov    %rax,0x30(%rbx)
  402995:	c7 43 38 76 65 72 00 	movl   $0x726576,0x38(%rbx)
  40299c:	89 ef                	mov    %ebp,%edi
  40299e:	e8 8d e3 ff ff       	callq  400d30 <close@plt>
  4029a3:	b8 ff ff ff ff       	mov    $0xffffffff,%eax
  4029a8:	e9 b3 01 00 00       	jmpq   402b60 <submitr+0x746>
  4029ad:	0f b6 94 24 40 20 00 	movzbl 0x2040(%rsp),%edx
  4029b4:	00 
  4029b5:	b8 0d 00 00 00       	mov    $0xd,%eax
  4029ba:	29 d0                	sub    %edx,%eax
  4029bc:	75 1b                	jne    4029d9 <submitr+0x5bf>
  4029be:	0f b6 94 24 41 20 00 	movzbl 0x2041(%rsp),%edx
  4029c5:	00 
  4029c6:	b8 0a 00 00 00       	mov    $0xa,%eax
  4029cb:	29 d0                	sub    %edx,%eax
  4029cd:	75 0a                	jne    4029d9 <submitr+0x5bf>
  4029cf:	0f b6 84 24 42 20 00 	movzbl 0x2042(%rsp),%eax
  4029d6:	00 
  4029d7:	f7 d8                	neg    %eax
  4029d9:	85 c0                	test   %eax,%eax
  4029db:	0f 85 37 ff ff ff    	jne    402918 <submitr+0x4fe>
  4029e1:	ba 00 20 00 00       	mov    $0x2000,%edx
  4029e6:	48 8d b4 24 40 20 00 	lea    0x2040(%rsp),%rsi
  4029ed:	00 
  4029ee:	48 8d 7c 24 30       	lea    0x30(%rsp),%rdi
  4029f3:	e8 6b f8 ff ff       	callq  402263 <rio_readlineb>
  4029f8:	48 85 c0             	test   %rax,%rax
  4029fb:	0f 8f 83 00 00 00    	jg     402a84 <submitr+0x66a>
  402a01:	48 b8 45 72 72 6f 72 	movabs $0x43203a726f727245,%rax
  402a08:	3a 20 43 
  402a0b:	48 89 03             	mov    %rax,(%rbx)
  402a0e:	48 b8 6c 69 65 6e 74 	movabs $0x6e7520746e65696c,%rax
  402a15:	20 75 6e 
  402a18:	48 89 43 08          	mov    %rax,0x8(%rbx)
  402a1c:	48 b8 61 62 6c 65 20 	movabs $0x206f7420656c6261,%rax
  402a23:	74 6f 20 
  402a26:	48 89 43 10          	mov    %rax,0x10(%rbx)
  402a2a:	48 b8 72 65 61 64 20 	movabs $0x6174732064616572,%rax
  402a31:	73 74 61 
  402a34:	48 89 43 18          	mov    %rax,0x18(%rbx)
  402a38:	48 b8 74 75 73 20 6d 	movabs $0x7373656d20737574,%rax
  402a3f:	65 73 73 
  402a42:	48 89 43 20          	mov    %rax,0x20(%rbx)
  402a46:	48 b8 61 67 65 20 66 	movabs $0x6d6f726620656761,%rax
  402a4d:	72 6f 6d 
  402a50:	48 89 43 28          	mov    %rax,0x28(%rbx)
  402a54:	48 b8 20 72 65 73 75 	movabs $0x20746c7573657220,%rax
  402a5b:	6c 74 20 
  402a5e:	48 89 43 30          	mov    %rax,0x30(%rbx)
  402a62:	c7 43 38 73 65 72 76 	movl   $0x76726573,0x38(%rbx)
  402a69:	66 c7 43 3c 65 72    	movw   $0x7265,0x3c(%rbx)
  402a6f:	c6 43 3e 00          	movb   $0x0,0x3e(%rbx)
  402a73:	89 ef                	mov    %ebp,%edi
  402a75:	e8 b6 e2 ff ff       	callq  400d30 <close@plt>
  402a7a:	b8 ff ff ff ff       	mov    $0xffffffff,%eax
  402a7f:	e9 dc 00 00 00       	jmpq   402b60 <submitr+0x746>
  402a84:	44 8b 44 24 1c       	mov    0x1c(%rsp),%r8d
  402a89:	41 81 f8 c8 00 00 00 	cmp    $0xc8,%r8d
  402a90:	74 37                	je     402ac9 <submitr+0x6af>
  402a92:	4c 8d 8c 24 40 80 00 	lea    0x8040(%rsp),%r9
  402a99:	00 
  402a9a:	b9 28 37 40 00       	mov    $0x403728,%ecx
  402a9f:	48 c7 c2 ff ff ff ff 	mov    $0xffffffffffffffff,%rdx
  402aa6:	be 01 00 00 00       	mov    $0x1,%esi
  402aab:	48 89 df             	mov    %rbx,%rdi
  402aae:	b8 00 00 00 00       	mov    $0x0,%eax
  402ab3:	e8 c8 e3 ff ff       	callq  400e80 <__sprintf_chk@plt>
  402ab8:	89 ef                	mov    %ebp,%edi
  402aba:	e8 71 e2 ff ff       	callq  400d30 <close@plt>
  402abf:	b8 ff ff ff ff       	mov    $0xffffffff,%eax
  402ac4:	e9 97 00 00 00       	jmpq   402b60 <submitr+0x746>
  402ac9:	48 8d b4 24 40 20 00 	lea    0x2040(%rsp),%rsi
  402ad0:	00 
  402ad1:	48 89 df             	mov    %rbx,%rdi
  402ad4:	e8 e7 e1 ff ff       	callq  400cc0 <strcpy@plt>
  402ad9:	89 ef                	mov    %ebp,%edi
  402adb:	e8 50 e2 ff ff       	callq  400d30 <close@plt>
  402ae0:	0f b6 03             	movzbl (%rbx),%eax
  402ae3:	ba 4f 00 00 00       	mov    $0x4f,%edx
  402ae8:	29 c2                	sub    %eax,%edx
  402aea:	75 22                	jne    402b0e <submitr+0x6f4>
  402aec:	0f b6 4b 01          	movzbl 0x1(%rbx),%ecx
  402af0:	b8 4b 00 00 00       	mov    $0x4b,%eax
  402af5:	29 c8                	sub    %ecx,%eax
  402af7:	75 17                	jne    402b10 <submitr+0x6f6>
  402af9:	0f b6 4b 02          	movzbl 0x2(%rbx),%ecx
  402afd:	b8 0a 00 00 00       	mov    $0xa,%eax
  402b02:	29 c8                	sub    %ecx,%eax
  402b04:	75 0a                	jne    402b10 <submitr+0x6f6>
  402b06:	0f b6 43 03          	movzbl 0x3(%rbx),%eax
  402b0a:	f7 d8                	neg    %eax
  402b0c:	eb 02                	jmp    402b10 <submitr+0x6f6>
  402b0e:	89 d0                	mov    %edx,%eax
  402b10:	85 c0                	test   %eax,%eax
  402b12:	74 40                	je     402b54 <submitr+0x73a>
  402b14:	bf 70 37 40 00       	mov    $0x403770,%edi
  402b19:	b9 05 00 00 00       	mov    $0x5,%ecx
  402b1e:	48 89 de             	mov    %rbx,%rsi
  402b21:	f3 a6                	repz cmpsb %es:(%rdi),%ds:(%rsi)
  402b23:	0f 97 c0             	seta   %al
  402b26:	0f 92 c1             	setb   %cl
  402b29:	29 c8                	sub    %ecx,%eax
  402b2b:	0f be c0             	movsbl %al,%eax
  402b2e:	85 c0                	test   %eax,%eax
  402b30:	74 2e                	je     402b60 <submitr+0x746>
  402b32:	85 d2                	test   %edx,%edx
  402b34:	75 13                	jne    402b49 <submitr+0x72f>
  402b36:	0f b6 43 01          	movzbl 0x1(%rbx),%eax
  402b3a:	ba 4b 00 00 00       	mov    $0x4b,%edx
  402b3f:	29 c2                	sub    %eax,%edx
  402b41:	75 06                	jne    402b49 <submitr+0x72f>
  402b43:	0f b6 53 02          	movzbl 0x2(%rbx),%edx
  402b47:	f7 da                	neg    %edx
  402b49:	85 d2                	test   %edx,%edx
  402b4b:	75 0e                	jne    402b5b <submitr+0x741>
  402b4d:	b8 00 00 00 00       	mov    $0x0,%eax
  402b52:	eb 0c                	jmp    402b60 <submitr+0x746>
  402b54:	b8 00 00 00 00       	mov    $0x0,%eax
  402b59:	eb 05                	jmp    402b60 <submitr+0x746>
  402b5b:	b8 ff ff ff ff       	mov    $0xffffffff,%eax
  402b60:	48 8b 9c 24 48 a0 00 	mov    0xa048(%rsp),%rbx
  402b67:	00 
  402b68:	64 48 33 1c 25 28 00 	xor    %fs:0x28,%rbx
  402b6f:	00 00 
  402b71:	74 05                	je     402b78 <submitr+0x75e>
  402b73:	e8 78 e1 ff ff       	callq  400cf0 <__stack_chk_fail@plt>
  402b78:	48 81 c4 58 a0 00 00 	add    $0xa058,%rsp
  402b7f:	5b                   	pop    %rbx
  402b80:	5d                   	pop    %rbp
  402b81:	41 5c                	pop    %r12
  402b83:	41 5d                	pop    %r13
  402b85:	41 5e                	pop    %r14
  402b87:	41 5f                	pop    %r15
  402b89:	c3                   	retq   

0000000000402b8a <init_timeout>:
  402b8a:	85 ff                	test   %edi,%edi
  402b8c:	74 23                	je     402bb1 <init_timeout+0x27>
  402b8e:	53                   	push   %rbx
  402b8f:	89 fb                	mov    %edi,%ebx
  402b91:	85 ff                	test   %edi,%edi
  402b93:	79 05                	jns    402b9a <init_timeout+0x10>
  402b95:	bb 00 00 00 00       	mov    $0x0,%ebx
  402b9a:	be 4e 21 40 00       	mov    $0x40214e,%esi
  402b9f:	bf 0e 00 00 00       	mov    $0xe,%edi
  402ba4:	e8 b7 e1 ff ff       	callq  400d60 <signal@plt>
  402ba9:	89 df                	mov    %ebx,%edi
  402bab:	e8 70 e1 ff ff       	callq  400d20 <alarm@plt>
  402bb0:	5b                   	pop    %rbx
  402bb1:	f3 c3                	repz retq 

0000000000402bb3 <init_driver>:
  402bb3:	55                   	push   %rbp
  402bb4:	53                   	push   %rbx
  402bb5:	48 83 ec 28          	sub    $0x28,%rsp
  402bb9:	48 89 fd             	mov    %rdi,%rbp
  402bbc:	64 48 8b 04 25 28 00 	mov    %fs:0x28,%rax
  402bc3:	00 00 
  402bc5:	48 89 44 24 18       	mov    %rax,0x18(%rsp)
  402bca:	31 c0                	xor    %eax,%eax
  402bcc:	be 01 00 00 00       	mov    $0x1,%esi
  402bd1:	bf 0d 00 00 00       	mov    $0xd,%edi
  402bd6:	e8 85 e1 ff ff       	callq  400d60 <signal@plt>
  402bdb:	be 01 00 00 00       	mov    $0x1,%esi
  402be0:	bf 1d 00 00 00       	mov    $0x1d,%edi
  402be5:	e8 76 e1 ff ff       	callq  400d60 <signal@plt>
  402bea:	be 01 00 00 00       	mov    $0x1,%esi
  402bef:	bf 1d 00 00 00       	mov    $0x1d,%edi
  402bf4:	e8 67 e1 ff ff       	callq  400d60 <signal@plt>
  402bf9:	ba 00 00 00 00       	mov    $0x0,%edx
  402bfe:	be 01 00 00 00       	mov    $0x1,%esi
  402c03:	bf 02 00 00 00       	mov    $0x2,%edi
  402c08:	e8 83 e2 ff ff       	callq  400e90 <socket@plt>
  402c0d:	85 c0                	test   %eax,%eax
  402c0f:	79 4f                	jns    402c60 <init_driver+0xad>
  402c11:	48 b8 45 72 72 6f 72 	movabs $0x43203a726f727245,%rax
  402c18:	3a 20 43 
  402c1b:	48 89 45 00          	mov    %rax,0x0(%rbp)
  402c1f:	48 b8 6c 69 65 6e 74 	movabs $0x6e7520746e65696c,%rax
  402c26:	20 75 6e 
  402c29:	48 89 45 08          	mov    %rax,0x8(%rbp)
  402c2d:	48 b8 61 62 6c 65 20 	movabs $0x206f7420656c6261,%rax
  402c34:	74 6f 20 
  402c37:	48 89 45 10          	mov    %rax,0x10(%rbp)
  402c3b:	48 b8 63 72 65 61 74 	movabs $0x7320657461657263,%rax
  402c42:	65 20 73 
  402c45:	48 89 45 18          	mov    %rax,0x18(%rbp)
  402c49:	c7 45 20 6f 63 6b 65 	movl   $0x656b636f,0x20(%rbp)
  402c50:	66 c7 45 24 74 00    	movw   $0x74,0x24(%rbp)
  402c56:	b8 ff ff ff ff       	mov    $0xffffffff,%eax
  402c5b:	e9 2a 01 00 00       	jmpq   402d8a <init_driver+0x1d7>
  402c60:	89 c3                	mov    %eax,%ebx
  402c62:	bf 8c 32 40 00       	mov    $0x40328c,%edi
  402c67:	e8 04 e1 ff ff       	callq  400d70 <gethostbyname@plt>
  402c6c:	48 85 c0             	test   %rax,%rax
  402c6f:	75 68                	jne    402cd9 <init_driver+0x126>
  402c71:	48 b8 45 72 72 6f 72 	movabs $0x44203a726f727245,%rax
  402c78:	3a 20 44 
  402c7b:	48 89 45 00          	mov    %rax,0x0(%rbp)
  402c7f:	48 b8 4e 53 20 69 73 	movabs $0x6e7520736920534e,%rax
  402c86:	20 75 6e 
  402c89:	48 89 45 08          	mov    %rax,0x8(%rbp)
  402c8d:	48 b8 61 62 6c 65 20 	movabs $0x206f7420656c6261,%rax
  402c94:	74 6f 20 
  402c97:	48 89 45 10          	mov    %rax,0x10(%rbp)
  402c9b:	48 b8 72 65 73 6f 6c 	movabs $0x2065766c6f736572,%rax
  402ca2:	76 65 20 
  402ca5:	48 89 45 18          	mov    %rax,0x18(%rbp)
  402ca9:	48 b8 73 65 72 76 65 	movabs $0x6120726576726573,%rax
  402cb0:	72 20 61 
  402cb3:	48 89 45 20          	mov    %rax,0x20(%rbp)
  402cb7:	c7 45 28 64 64 72 65 	movl   $0x65726464,0x28(%rbp)
  402cbe:	66 c7 45 2c 73 73    	movw   $0x7373,0x2c(%rbp)
  402cc4:	c6 45 2e 00          	movb   $0x0,0x2e(%rbp)
  402cc8:	89 df                	mov    %ebx,%edi
  402cca:	e8 61 e0 ff ff       	callq  400d30 <close@plt>
  402ccf:	b8 ff ff ff ff       	mov    $0xffffffff,%eax
  402cd4:	e9 b1 00 00 00       	jmpq   402d8a <init_driver+0x1d7>
  402cd9:	48 c7 04 24 00 00 00 	movq   $0x0,(%rsp)
  402ce0:	00 
  402ce1:	48 c7 44 24 08 00 00 	movq   $0x0,0x8(%rsp)
  402ce8:	00 00 
  402cea:	66 c7 04 24 02 00    	movw   $0x2,(%rsp)
  402cf0:	48 63 50 14          	movslq 0x14(%rax),%rdx
  402cf4:	48 8b 40 18          	mov    0x18(%rax),%rax
  402cf8:	48 8b 30             	mov    (%rax),%rsi
  402cfb:	48 8d 7c 24 04       	lea    0x4(%rsp),%rdi
  402d00:	b9 0c 00 00 00       	mov    $0xc,%ecx
  402d05:	e8 76 e0 ff ff       	callq  400d80 <__memmove_chk@plt>
  402d0a:	66 c7 44 24 02 3c 9a 	movw   $0x9a3c,0x2(%rsp)
  402d11:	ba 10 00 00 00       	mov    $0x10,%edx
  402d16:	48 89 e6             	mov    %rsp,%rsi
  402d19:	89 df                	mov    %ebx,%edi
  402d1b:	e8 40 e1 ff ff       	callq  400e60 <connect@plt>
  402d20:	85 c0                	test   %eax,%eax
  402d22:	79 50                	jns    402d74 <init_driver+0x1c1>
  402d24:	48 b8 45 72 72 6f 72 	movabs $0x55203a726f727245,%rax
  402d2b:	3a 20 55 
  402d2e:	48 89 45 00          	mov    %rax,0x0(%rbp)
  402d32:	48 b8 6e 61 62 6c 65 	movabs $0x6f7420656c62616e,%rax
  402d39:	20 74 6f 
  402d3c:	48 89 45 08          	mov    %rax,0x8(%rbp)
  402d40:	48 b8 20 63 6f 6e 6e 	movabs $0x7463656e6e6f6320,%rax
  402d47:	65 63 74 
  402d4a:	48 89 45 10          	mov    %rax,0x10(%rbp)
  402d4e:	48 b8 20 74 6f 20 73 	movabs $0x76726573206f7420,%rax
  402d55:	65 72 76 
  402d58:	48 89 45 18          	mov    %rax,0x18(%rbp)
  402d5c:	66 c7 45 20 65 72    	movw   $0x7265,0x20(%rbp)
  402d62:	c6 45 22 00          	movb   $0x0,0x22(%rbp)
  402d66:	89 df                	mov    %ebx,%edi
  402d68:	e8 c3 df ff ff       	callq  400d30 <close@plt>
  402d6d:	b8 ff ff ff ff       	mov    $0xffffffff,%eax
  402d72:	eb 16                	jmp    402d8a <init_driver+0x1d7>
  402d74:	89 df                	mov    %ebx,%edi
  402d76:	e8 b5 df ff ff       	callq  400d30 <close@plt>
  402d7b:	66 c7 45 00 4f 4b    	movw   $0x4b4f,0x0(%rbp)
  402d81:	c6 45 02 00          	movb   $0x0,0x2(%rbp)
  402d85:	b8 00 00 00 00       	mov    $0x0,%eax
  402d8a:	48 8b 4c 24 18       	mov    0x18(%rsp),%rcx
  402d8f:	64 48 33 0c 25 28 00 	xor    %fs:0x28,%rcx
  402d96:	00 00 
  402d98:	74 05                	je     402d9f <init_driver+0x1ec>
  402d9a:	e8 51 df ff ff       	callq  400cf0 <__stack_chk_fail@plt>
  402d9f:	48 83 c4 28          	add    $0x28,%rsp
  402da3:	5b                   	pop    %rbx
  402da4:	5d                   	pop    %rbp
  402da5:	c3                   	retq   

0000000000402da6 <driver_post>:
  402da6:	53                   	push   %rbx
  402da7:	4c 89 cb             	mov    %r9,%rbx
  402daa:	45 85 c0             	test   %r8d,%r8d
  402dad:	74 27                	je     402dd6 <driver_post+0x30>
  402daf:	48 89 ca             	mov    %rcx,%rdx
  402db2:	be 75 37 40 00       	mov    $0x403775,%esi
  402db7:	bf 01 00 00 00       	mov    $0x1,%edi
  402dbc:	b8 00 00 00 00       	mov    $0x0,%eax
  402dc1:	e8 3a e0 ff ff       	callq  400e00 <__printf_chk@plt>
  402dc6:	66 c7 03 4f 4b       	movw   $0x4b4f,(%rbx)
  402dcb:	c6 43 02 00          	movb   $0x0,0x2(%rbx)
  402dcf:	b8 00 00 00 00       	mov    $0x0,%eax
  402dd4:	eb 3f                	jmp    402e15 <driver_post+0x6f>
  402dd6:	48 85 ff             	test   %rdi,%rdi
  402dd9:	74 2c                	je     402e07 <driver_post+0x61>
  402ddb:	80 3f 00             	cmpb   $0x0,(%rdi)
  402dde:	74 27                	je     402e07 <driver_post+0x61>
  402de0:	48 83 ec 08          	sub    $0x8,%rsp
  402de4:	41 51                	push   %r9
  402de6:	49 89 c9             	mov    %rcx,%r9
  402de9:	49 89 d0             	mov    %rdx,%r8
  402dec:	48 89 f9             	mov    %rdi,%rcx
  402def:	48 89 f2             	mov    %rsi,%rdx
  402df2:	be 9a 3c 00 00       	mov    $0x3c9a,%esi
  402df7:	bf 8c 32 40 00       	mov    $0x40328c,%edi
  402dfc:	e8 19 f6 ff ff       	callq  40241a <submitr>
  402e01:	48 83 c4 10          	add    $0x10,%rsp
  402e05:	eb 0e                	jmp    402e15 <driver_post+0x6f>
  402e07:	66 c7 03 4f 4b       	movw   $0x4b4f,(%rbx)
  402e0c:	c6 43 02 00          	movb   $0x0,0x2(%rbx)
  402e10:	b8 00 00 00 00       	mov    $0x0,%eax
  402e15:	5b                   	pop    %rbx
  402e16:	c3                   	retq   

0000000000402e17 <check>:
  402e17:	89 f8                	mov    %edi,%eax
  402e19:	c1 e8 1c             	shr    $0x1c,%eax
  402e1c:	85 c0                	test   %eax,%eax
  402e1e:	74 1d                	je     402e3d <check+0x26>
  402e20:	b9 00 00 00 00       	mov    $0x0,%ecx
  402e25:	eb 0b                	jmp    402e32 <check+0x1b>
  402e27:	89 f8                	mov    %edi,%eax
  402e29:	d3 e8                	shr    %cl,%eax
  402e2b:	3c 0a                	cmp    $0xa,%al
  402e2d:	74 14                	je     402e43 <check+0x2c>
  402e2f:	83 c1 08             	add    $0x8,%ecx
  402e32:	83 f9 1f             	cmp    $0x1f,%ecx
  402e35:	7e f0                	jle    402e27 <check+0x10>
  402e37:	b8 01 00 00 00       	mov    $0x1,%eax
  402e3c:	c3                   	retq   
  402e3d:	b8 00 00 00 00       	mov    $0x0,%eax
  402e42:	c3                   	retq   
  402e43:	b8 00 00 00 00       	mov    $0x0,%eax
  402e48:	c3                   	retq   

0000000000402e49 <gencookie>:
  402e49:	53                   	push   %rbx
  402e4a:	83 c7 01             	add    $0x1,%edi
  402e4d:	e8 4e de ff ff       	callq  400ca0 <srandom@plt>
  402e52:	e8 69 df ff ff       	callq  400dc0 <random@plt>
  402e57:	89 c3                	mov    %eax,%ebx
  402e59:	89 c7                	mov    %eax,%edi
  402e5b:	e8 b7 ff ff ff       	callq  402e17 <check>
  402e60:	85 c0                	test   %eax,%eax
  402e62:	74 ee                	je     402e52 <gencookie+0x9>
  402e64:	89 d8                	mov    %ebx,%eax
  402e66:	5b                   	pop    %rbx
  402e67:	c3                   	retq   
  402e68:	0f 1f 84 00 00 00 00 	nopl   0x0(%rax,%rax,1)
  402e6f:	00 

0000000000402e70 <__libc_csu_init>:
  402e70:	41 57                	push   %r15
  402e72:	41 56                	push   %r14
  402e74:	41 89 ff             	mov    %edi,%r15d
  402e77:	41 55                	push   %r13
  402e79:	41 54                	push   %r12
  402e7b:	4c 8d 25 8e 1f 20 00 	lea    0x201f8e(%rip),%r12        # 604e10 <__frame_dummy_init_array_entry>
  402e82:	55                   	push   %rbp
  402e83:	48 8d 2d 8e 1f 20 00 	lea    0x201f8e(%rip),%rbp        # 604e18 <__init_array_end>
  402e8a:	53                   	push   %rbx
  402e8b:	49 89 f6             	mov    %rsi,%r14
  402e8e:	49 89 d5             	mov    %rdx,%r13
  402e91:	4c 29 e5             	sub    %r12,%rbp
  402e94:	48 83 ec 08          	sub    $0x8,%rsp
  402e98:	48 c1 fd 03          	sar    $0x3,%rbp
  402e9c:	e8 a7 dd ff ff       	callq  400c48 <_init>
  402ea1:	48 85 ed             	test   %rbp,%rbp
  402ea4:	74 20                	je     402ec6 <__libc_csu_init+0x56>
  402ea6:	31 db                	xor    %ebx,%ebx
  402ea8:	0f 1f 84 00 00 00 00 	nopl   0x0(%rax,%rax,1)
  402eaf:	00 
  402eb0:	4c 89 ea             	mov    %r13,%rdx
  402eb3:	4c 89 f6             	mov    %r14,%rsi
  402eb6:	44 89 ff             	mov    %r15d,%edi
  402eb9:	41 ff 14 dc          	callq  *(%r12,%rbx,8)
  402ebd:	48 83 c3 01          	add    $0x1,%rbx
  402ec1:	48 39 eb             	cmp    %rbp,%rbx
  402ec4:	75 ea                	jne    402eb0 <__libc_csu_init+0x40>
  402ec6:	48 83 c4 08          	add    $0x8,%rsp
  402eca:	5b                   	pop    %rbx
  402ecb:	5d                   	pop    %rbp
  402ecc:	41 5c                	pop    %r12
  402ece:	41 5d                	pop    %r13
  402ed0:	41 5e                	pop    %r14
  402ed2:	41 5f                	pop    %r15
  402ed4:	c3                   	retq   
  402ed5:	90                   	nop
  402ed6:	66 2e 0f 1f 84 00 00 	nopw   %cs:0x0(%rax,%rax,1)
  402edd:	00 00 00 

0000000000402ee0 <__libc_csu_fini>:
  402ee0:	f3 c3                	repz retq 

Disassembly of section .fini:

0000000000402ee4 <_fini>:
  402ee4:	48 83 ec 08          	sub    $0x8,%rsp
  402ee8:	48 83 c4 08          	add    $0x8,%rsp
  402eec:	c3                   	retq   
