
rtarget:     file format elf64-x86-64


Disassembly of section .init:

0000000000400c48 <_init>:
  400c48:	48 83 ec 08          	sub    $0x8,%rsp
  400c4c:	48 8b 05 a5 43 20 00 	mov    0x2043a5(%rip),%rax        # 604ff8 <_DYNAMIC+0x1d0>
  400c53:	48 85 c0             	test   %rax,%rax
  400c56:	74 05                	je     400c5d <_init+0x15>
  400c58:	e8 43 02 00 00       	callq  400ea0 <socket@plt+0x10>
  400c5d:	48 83 c4 08          	add    $0x8,%rsp
  400c61:	c3                   	retq   

Disassembly of section .plt:

0000000000400c70 <strcasecmp@plt-0x10>:
  400c70:	ff 35 92 43 20 00    	pushq  0x204392(%rip)        # 605008 <_GLOBAL_OFFSET_TABLE_+0x8>
  400c76:	ff 25 94 43 20 00    	jmpq   *0x204394(%rip)        # 605010 <_GLOBAL_OFFSET_TABLE_+0x10>
  400c7c:	0f 1f 40 00          	nopl   0x0(%rax)

0000000000400c80 <strcasecmp@plt>:
  400c80:	ff 25 92 43 20 00    	jmpq   *0x204392(%rip)        # 605018 <_GLOBAL_OFFSET_TABLE_+0x18>
  400c86:	68 00 00 00 00       	pushq  $0x0
  400c8b:	e9 e0 ff ff ff       	jmpq   400c70 <_init+0x28>

0000000000400c90 <__errno_location@plt>:
  400c90:	ff 25 8a 43 20 00    	jmpq   *0x20438a(%rip)        # 605020 <_GLOBAL_OFFSET_TABLE_+0x20>
  400c96:	68 01 00 00 00       	pushq  $0x1
  400c9b:	e9 d0 ff ff ff       	jmpq   400c70 <_init+0x28>

0000000000400ca0 <srandom@plt>:
  400ca0:	ff 25 82 43 20 00    	jmpq   *0x204382(%rip)        # 605028 <_GLOBAL_OFFSET_TABLE_+0x28>
  400ca6:	68 02 00 00 00       	pushq  $0x2
  400cab:	e9 c0 ff ff ff       	jmpq   400c70 <_init+0x28>

0000000000400cb0 <strncmp@plt>:
  400cb0:	ff 25 7a 43 20 00    	jmpq   *0x20437a(%rip)        # 605030 <_GLOBAL_OFFSET_TABLE_+0x30>
  400cb6:	68 03 00 00 00       	pushq  $0x3
  400cbb:	e9 b0 ff ff ff       	jmpq   400c70 <_init+0x28>

0000000000400cc0 <strcpy@plt>:
  400cc0:	ff 25 72 43 20 00    	jmpq   *0x204372(%rip)        # 605038 <_GLOBAL_OFFSET_TABLE_+0x38>
  400cc6:	68 04 00 00 00       	pushq  $0x4
  400ccb:	e9 a0 ff ff ff       	jmpq   400c70 <_init+0x28>

0000000000400cd0 <puts@plt>:
  400cd0:	ff 25 6a 43 20 00    	jmpq   *0x20436a(%rip)        # 605040 <_GLOBAL_OFFSET_TABLE_+0x40>
  400cd6:	68 05 00 00 00       	pushq  $0x5
  400cdb:	e9 90 ff ff ff       	jmpq   400c70 <_init+0x28>

0000000000400ce0 <write@plt>:
  400ce0:	ff 25 62 43 20 00    	jmpq   *0x204362(%rip)        # 605048 <_GLOBAL_OFFSET_TABLE_+0x48>
  400ce6:	68 06 00 00 00       	pushq  $0x6
  400ceb:	e9 80 ff ff ff       	jmpq   400c70 <_init+0x28>

0000000000400cf0 <__stack_chk_fail@plt>:
  400cf0:	ff 25 5a 43 20 00    	jmpq   *0x20435a(%rip)        # 605050 <_GLOBAL_OFFSET_TABLE_+0x50>
  400cf6:	68 07 00 00 00       	pushq  $0x7
  400cfb:	e9 70 ff ff ff       	jmpq   400c70 <_init+0x28>

0000000000400d00 <mmap@plt>:
  400d00:	ff 25 52 43 20 00    	jmpq   *0x204352(%rip)        # 605058 <_GLOBAL_OFFSET_TABLE_+0x58>
  400d06:	68 08 00 00 00       	pushq  $0x8
  400d0b:	e9 60 ff ff ff       	jmpq   400c70 <_init+0x28>

0000000000400d10 <memset@plt>:
  400d10:	ff 25 4a 43 20 00    	jmpq   *0x20434a(%rip)        # 605060 <_GLOBAL_OFFSET_TABLE_+0x60>
  400d16:	68 09 00 00 00       	pushq  $0x9
  400d1b:	e9 50 ff ff ff       	jmpq   400c70 <_init+0x28>

0000000000400d20 <alarm@plt>:
  400d20:	ff 25 42 43 20 00    	jmpq   *0x204342(%rip)        # 605068 <_GLOBAL_OFFSET_TABLE_+0x68>
  400d26:	68 0a 00 00 00       	pushq  $0xa
  400d2b:	e9 40 ff ff ff       	jmpq   400c70 <_init+0x28>

0000000000400d30 <close@plt>:
  400d30:	ff 25 3a 43 20 00    	jmpq   *0x20433a(%rip)        # 605070 <_GLOBAL_OFFSET_TABLE_+0x70>
  400d36:	68 0b 00 00 00       	pushq  $0xb
  400d3b:	e9 30 ff ff ff       	jmpq   400c70 <_init+0x28>

0000000000400d40 <read@plt>:
  400d40:	ff 25 32 43 20 00    	jmpq   *0x204332(%rip)        # 605078 <_GLOBAL_OFFSET_TABLE_+0x78>
  400d46:	68 0c 00 00 00       	pushq  $0xc
  400d4b:	e9 20 ff ff ff       	jmpq   400c70 <_init+0x28>

0000000000400d50 <__libc_start_main@plt>:
  400d50:	ff 25 2a 43 20 00    	jmpq   *0x20432a(%rip)        # 605080 <_GLOBAL_OFFSET_TABLE_+0x80>
  400d56:	68 0d 00 00 00       	pushq  $0xd
  400d5b:	e9 10 ff ff ff       	jmpq   400c70 <_init+0x28>

0000000000400d60 <signal@plt>:
  400d60:	ff 25 22 43 20 00    	jmpq   *0x204322(%rip)        # 605088 <_GLOBAL_OFFSET_TABLE_+0x88>
  400d66:	68 0e 00 00 00       	pushq  $0xe
  400d6b:	e9 00 ff ff ff       	jmpq   400c70 <_init+0x28>

0000000000400d70 <gethostbyname@plt>:
  400d70:	ff 25 1a 43 20 00    	jmpq   *0x20431a(%rip)        # 605090 <_GLOBAL_OFFSET_TABLE_+0x90>
  400d76:	68 0f 00 00 00       	pushq  $0xf
  400d7b:	e9 f0 fe ff ff       	jmpq   400c70 <_init+0x28>

0000000000400d80 <__memmove_chk@plt>:
  400d80:	ff 25 12 43 20 00    	jmpq   *0x204312(%rip)        # 605098 <_GLOBAL_OFFSET_TABLE_+0x98>
  400d86:	68 10 00 00 00       	pushq  $0x10
  400d8b:	e9 e0 fe ff ff       	jmpq   400c70 <_init+0x28>

0000000000400d90 <strtol@plt>:
  400d90:	ff 25 0a 43 20 00    	jmpq   *0x20430a(%rip)        # 6050a0 <_GLOBAL_OFFSET_TABLE_+0xa0>
  400d96:	68 11 00 00 00       	pushq  $0x11
  400d9b:	e9 d0 fe ff ff       	jmpq   400c70 <_init+0x28>

0000000000400da0 <memcpy@plt>:
  400da0:	ff 25 02 43 20 00    	jmpq   *0x204302(%rip)        # 6050a8 <_GLOBAL_OFFSET_TABLE_+0xa8>
  400da6:	68 12 00 00 00       	pushq  $0x12
  400dab:	e9 c0 fe ff ff       	jmpq   400c70 <_init+0x28>

0000000000400db0 <time@plt>:
  400db0:	ff 25 fa 42 20 00    	jmpq   *0x2042fa(%rip)        # 6050b0 <_GLOBAL_OFFSET_TABLE_+0xb0>
  400db6:	68 13 00 00 00       	pushq  $0x13
  400dbb:	e9 b0 fe ff ff       	jmpq   400c70 <_init+0x28>

0000000000400dc0 <random@plt>:
  400dc0:	ff 25 f2 42 20 00    	jmpq   *0x2042f2(%rip)        # 6050b8 <_GLOBAL_OFFSET_TABLE_+0xb8>
  400dc6:	68 14 00 00 00       	pushq  $0x14
  400dcb:	e9 a0 fe ff ff       	jmpq   400c70 <_init+0x28>

0000000000400dd0 <_IO_getc@plt>:
  400dd0:	ff 25 ea 42 20 00    	jmpq   *0x2042ea(%rip)        # 6050c0 <_GLOBAL_OFFSET_TABLE_+0xc0>
  400dd6:	68 15 00 00 00       	pushq  $0x15
  400ddb:	e9 90 fe ff ff       	jmpq   400c70 <_init+0x28>

0000000000400de0 <__isoc99_sscanf@plt>:
  400de0:	ff 25 e2 42 20 00    	jmpq   *0x2042e2(%rip)        # 6050c8 <_GLOBAL_OFFSET_TABLE_+0xc8>
  400de6:	68 16 00 00 00       	pushq  $0x16
  400deb:	e9 80 fe ff ff       	jmpq   400c70 <_init+0x28>

0000000000400df0 <munmap@plt>:
  400df0:	ff 25 da 42 20 00    	jmpq   *0x2042da(%rip)        # 6050d0 <_GLOBAL_OFFSET_TABLE_+0xd0>
  400df6:	68 17 00 00 00       	pushq  $0x17
  400dfb:	e9 70 fe ff ff       	jmpq   400c70 <_init+0x28>

0000000000400e00 <__printf_chk@plt>:
  400e00:	ff 25 d2 42 20 00    	jmpq   *0x2042d2(%rip)        # 6050d8 <_GLOBAL_OFFSET_TABLE_+0xd8>
  400e06:	68 18 00 00 00       	pushq  $0x18
  400e0b:	e9 60 fe ff ff       	jmpq   400c70 <_init+0x28>

0000000000400e10 <fopen@plt>:
  400e10:	ff 25 ca 42 20 00    	jmpq   *0x2042ca(%rip)        # 6050e0 <_GLOBAL_OFFSET_TABLE_+0xe0>
  400e16:	68 19 00 00 00       	pushq  $0x19
  400e1b:	e9 50 fe ff ff       	jmpq   400c70 <_init+0x28>

0000000000400e20 <getopt@plt>:
  400e20:	ff 25 c2 42 20 00    	jmpq   *0x2042c2(%rip)        # 6050e8 <_GLOBAL_OFFSET_TABLE_+0xe8>
  400e26:	68 1a 00 00 00       	pushq  $0x1a
  400e2b:	e9 40 fe ff ff       	jmpq   400c70 <_init+0x28>

0000000000400e30 <strtoul@plt>:
  400e30:	ff 25 ba 42 20 00    	jmpq   *0x2042ba(%rip)        # 6050f0 <_GLOBAL_OFFSET_TABLE_+0xf0>
  400e36:	68 1b 00 00 00       	pushq  $0x1b
  400e3b:	e9 30 fe ff ff       	jmpq   400c70 <_init+0x28>

0000000000400e40 <gethostname@plt>:
  400e40:	ff 25 b2 42 20 00    	jmpq   *0x2042b2(%rip)        # 6050f8 <_GLOBAL_OFFSET_TABLE_+0xf8>
  400e46:	68 1c 00 00 00       	pushq  $0x1c
  400e4b:	e9 20 fe ff ff       	jmpq   400c70 <_init+0x28>

0000000000400e50 <exit@plt>:
  400e50:	ff 25 aa 42 20 00    	jmpq   *0x2042aa(%rip)        # 605100 <_GLOBAL_OFFSET_TABLE_+0x100>
  400e56:	68 1d 00 00 00       	pushq  $0x1d
  400e5b:	e9 10 fe ff ff       	jmpq   400c70 <_init+0x28>

0000000000400e60 <connect@plt>:
  400e60:	ff 25 a2 42 20 00    	jmpq   *0x2042a2(%rip)        # 605108 <_GLOBAL_OFFSET_TABLE_+0x108>
  400e66:	68 1e 00 00 00       	pushq  $0x1e
  400e6b:	e9 00 fe ff ff       	jmpq   400c70 <_init+0x28>

0000000000400e70 <__fprintf_chk@plt>:
  400e70:	ff 25 9a 42 20 00    	jmpq   *0x20429a(%rip)        # 605110 <_GLOBAL_OFFSET_TABLE_+0x110>
  400e76:	68 1f 00 00 00       	pushq  $0x1f
  400e7b:	e9 f0 fd ff ff       	jmpq   400c70 <_init+0x28>

0000000000400e80 <__sprintf_chk@plt>:
  400e80:	ff 25 92 42 20 00    	jmpq   *0x204292(%rip)        # 605118 <_GLOBAL_OFFSET_TABLE_+0x118>
  400e86:	68 20 00 00 00       	pushq  $0x20
  400e8b:	e9 e0 fd ff ff       	jmpq   400c70 <_init+0x28>

0000000000400e90 <socket@plt>:
  400e90:	ff 25 8a 42 20 00    	jmpq   *0x20428a(%rip)        # 605120 <_GLOBAL_OFFSET_TABLE_+0x120>
  400e96:	68 21 00 00 00       	pushq  $0x21
  400e9b:	e9 d0 fd ff ff       	jmpq   400c70 <_init+0x28>

Disassembly of section .plt.got:

0000000000400ea0 <.plt.got>:
  400ea0:	ff 25 52 41 20 00    	jmpq   *0x204152(%rip)        # 604ff8 <_DYNAMIC+0x1d0>
  400ea6:	66 90                	xchg   %ax,%ax

Disassembly of section .text:

0000000000400eb0 <_start>:
  400eb0:	31 ed                	xor    %ebp,%ebp
  400eb2:	49 89 d1             	mov    %rdx,%r9
  400eb5:	5e                   	pop    %rsi
  400eb6:	48 89 e2             	mov    %rsp,%rdx
  400eb9:	48 83 e4 f0          	and    $0xfffffffffffffff0,%rsp
  400ebd:	50                   	push   %rax
  400ebe:	54                   	push   %rsp
  400ebf:	49 c7 c0 00 30 40 00 	mov    $0x403000,%r8
  400ec6:	48 c7 c1 90 2f 40 00 	mov    $0x402f90,%rcx
  400ecd:	48 c7 c7 b5 11 40 00 	mov    $0x4011b5,%rdi
  400ed4:	e8 77 fe ff ff       	callq  400d50 <__libc_start_main@plt>
  400ed9:	f4                   	hlt    
  400eda:	66 0f 1f 44 00 00    	nopw   0x0(%rax,%rax,1)

0000000000400ee0 <deregister_tm_clones>:
  400ee0:	b8 b7 54 60 00       	mov    $0x6054b7,%eax
  400ee5:	55                   	push   %rbp
  400ee6:	48 2d b0 54 60 00    	sub    $0x6054b0,%rax
  400eec:	48 83 f8 0e          	cmp    $0xe,%rax
  400ef0:	48 89 e5             	mov    %rsp,%rbp
  400ef3:	76 1b                	jbe    400f10 <deregister_tm_clones+0x30>
  400ef5:	b8 00 00 00 00       	mov    $0x0,%eax
  400efa:	48 85 c0             	test   %rax,%rax
  400efd:	74 11                	je     400f10 <deregister_tm_clones+0x30>
  400eff:	5d                   	pop    %rbp
  400f00:	bf b0 54 60 00       	mov    $0x6054b0,%edi
  400f05:	ff e0                	jmpq   *%rax
  400f07:	66 0f 1f 84 00 00 00 	nopw   0x0(%rax,%rax,1)
  400f0e:	00 00 
  400f10:	5d                   	pop    %rbp
  400f11:	c3                   	retq   
  400f12:	0f 1f 40 00          	nopl   0x0(%rax)
  400f16:	66 2e 0f 1f 84 00 00 	nopw   %cs:0x0(%rax,%rax,1)
  400f1d:	00 00 00 

0000000000400f20 <register_tm_clones>:
  400f20:	be b0 54 60 00       	mov    $0x6054b0,%esi
  400f25:	55                   	push   %rbp
  400f26:	48 81 ee b0 54 60 00 	sub    $0x6054b0,%rsi
  400f2d:	48 c1 fe 03          	sar    $0x3,%rsi
  400f31:	48 89 e5             	mov    %rsp,%rbp
  400f34:	48 89 f0             	mov    %rsi,%rax
  400f37:	48 c1 e8 3f          	shr    $0x3f,%rax
  400f3b:	48 01 c6             	add    %rax,%rsi
  400f3e:	48 d1 fe             	sar    %rsi
  400f41:	74 15                	je     400f58 <register_tm_clones+0x38>
  400f43:	b8 00 00 00 00       	mov    $0x0,%eax
  400f48:	48 85 c0             	test   %rax,%rax
  400f4b:	74 0b                	je     400f58 <register_tm_clones+0x38>
  400f4d:	5d                   	pop    %rbp
  400f4e:	bf b0 54 60 00       	mov    $0x6054b0,%edi
  400f53:	ff e0                	jmpq   *%rax
  400f55:	0f 1f 00             	nopl   (%rax)
  400f58:	5d                   	pop    %rbp
  400f59:	c3                   	retq   
  400f5a:	66 0f 1f 44 00 00    	nopw   0x0(%rax,%rax,1)

0000000000400f60 <__do_global_dtors_aux>:
  400f60:	80 3d 81 45 20 00 00 	cmpb   $0x0,0x204581(%rip)        # 6054e8 <completed.7585>
  400f67:	75 11                	jne    400f7a <__do_global_dtors_aux+0x1a>
  400f69:	55                   	push   %rbp
  400f6a:	48 89 e5             	mov    %rsp,%rbp
  400f6d:	e8 6e ff ff ff       	callq  400ee0 <deregister_tm_clones>
  400f72:	5d                   	pop    %rbp
  400f73:	c6 05 6e 45 20 00 01 	movb   $0x1,0x20456e(%rip)        # 6054e8 <completed.7585>
  400f7a:	f3 c3                	repz retq 
  400f7c:	0f 1f 40 00          	nopl   0x0(%rax)

0000000000400f80 <frame_dummy>:
  400f80:	bf 20 4e 60 00       	mov    $0x604e20,%edi
  400f85:	48 83 3f 00          	cmpq   $0x0,(%rdi)
  400f89:	75 05                	jne    400f90 <frame_dummy+0x10>
  400f8b:	eb 93                	jmp    400f20 <register_tm_clones>
  400f8d:	0f 1f 00             	nopl   (%rax)
  400f90:	b8 00 00 00 00       	mov    $0x0,%eax
  400f95:	48 85 c0             	test   %rax,%rax
  400f98:	74 f1                	je     400f8b <frame_dummy+0xb>
  400f9a:	55                   	push   %rbp
  400f9b:	48 89 e5             	mov    %rsp,%rbp
  400f9e:	ff d0                	callq  *%rax
  400fa0:	5d                   	pop    %rbp
  400fa1:	e9 7a ff ff ff       	jmpq   400f20 <register_tm_clones>

0000000000400fa6 <usage>:
  400fa6:	48 83 ec 08          	sub    $0x8,%rsp
  400faa:	48 89 fa             	mov    %rdi,%rdx
  400fad:	83 3d 74 45 20 00 00 	cmpl   $0x0,0x204574(%rip)        # 605528 <is_checker>
  400fb4:	74 3e                	je     400ff4 <usage+0x4e>
  400fb6:	be 18 30 40 00       	mov    $0x403018,%esi
  400fbb:	bf 01 00 00 00       	mov    $0x1,%edi
  400fc0:	b8 00 00 00 00       	mov    $0x0,%eax
  400fc5:	e8 36 fe ff ff       	callq  400e00 <__printf_chk@plt>
  400fca:	bf 50 30 40 00       	mov    $0x403050,%edi
  400fcf:	e8 fc fc ff ff       	callq  400cd0 <puts@plt>
  400fd4:	bf c8 31 40 00       	mov    $0x4031c8,%edi
  400fd9:	e8 f2 fc ff ff       	callq  400cd0 <puts@plt>
  400fde:	bf 78 30 40 00       	mov    $0x403078,%edi
  400fe3:	e8 e8 fc ff ff       	callq  400cd0 <puts@plt>
  400fe8:	bf e2 31 40 00       	mov    $0x4031e2,%edi
  400fed:	e8 de fc ff ff       	callq  400cd0 <puts@plt>
  400ff2:	eb 32                	jmp    401026 <usage+0x80>
  400ff4:	be fe 31 40 00       	mov    $0x4031fe,%esi
  400ff9:	bf 01 00 00 00       	mov    $0x1,%edi
  400ffe:	b8 00 00 00 00       	mov    $0x0,%eax
  401003:	e8 f8 fd ff ff       	callq  400e00 <__printf_chk@plt>
  401008:	bf a0 30 40 00       	mov    $0x4030a0,%edi
  40100d:	e8 be fc ff ff       	callq  400cd0 <puts@plt>
  401012:	bf c8 30 40 00       	mov    $0x4030c8,%edi
  401017:	e8 b4 fc ff ff       	callq  400cd0 <puts@plt>
  40101c:	bf 1c 32 40 00       	mov    $0x40321c,%edi
  401021:	e8 aa fc ff ff       	callq  400cd0 <puts@plt>
  401026:	bf 00 00 00 00       	mov    $0x0,%edi
  40102b:	e8 20 fe ff ff       	callq  400e50 <exit@plt>

0000000000401030 <initialize_target>:
  401030:	55                   	push   %rbp
  401031:	53                   	push   %rbx
  401032:	48 81 ec 18 21 00 00 	sub    $0x2118,%rsp
  401039:	89 f5                	mov    %esi,%ebp
  40103b:	64 48 8b 04 25 28 00 	mov    %fs:0x28,%rax
  401042:	00 00 
  401044:	48 89 84 24 08 21 00 	mov    %rax,0x2108(%rsp)
  40104b:	00 
  40104c:	31 c0                	xor    %eax,%eax
  40104e:	89 3d c4 44 20 00    	mov    %edi,0x2044c4(%rip)        # 605518 <check_level>
  401054:	8b 3d 0e 41 20 00    	mov    0x20410e(%rip),%edi        # 605168 <target_id>
  40105a:	e8 0d 1f 00 00       	callq  402f6c <gencookie>
  40105f:	89 05 bf 44 20 00    	mov    %eax,0x2044bf(%rip)        # 605524 <cookie>
  401065:	89 c7                	mov    %eax,%edi
  401067:	e8 00 1f 00 00       	callq  402f6c <gencookie>
  40106c:	89 05 ae 44 20 00    	mov    %eax,0x2044ae(%rip)        # 605520 <authkey>
  401072:	8b 05 f0 40 20 00    	mov    0x2040f0(%rip),%eax        # 605168 <target_id>
  401078:	8d 78 01             	lea    0x1(%rax),%edi
  40107b:	e8 20 fc ff ff       	callq  400ca0 <srandom@plt>
  401080:	e8 3b fd ff ff       	callq  400dc0 <random@plt>
  401085:	89 c7                	mov    %eax,%edi
  401087:	e8 03 03 00 00       	callq  40138f <scramble>
  40108c:	89 c3                	mov    %eax,%ebx
  40108e:	85 ed                	test   %ebp,%ebp
  401090:	74 18                	je     4010aa <initialize_target+0x7a>
  401092:	bf 00 00 00 00       	mov    $0x0,%edi
  401097:	e8 14 fd ff ff       	callq  400db0 <time@plt>
  40109c:	89 c7                	mov    %eax,%edi
  40109e:	e8 fd fb ff ff       	callq  400ca0 <srandom@plt>
  4010a3:	e8 18 fd ff ff       	callq  400dc0 <random@plt>
  4010a8:	eb 05                	jmp    4010af <initialize_target+0x7f>
  4010aa:	b8 00 00 00 00       	mov    $0x0,%eax
  4010af:	01 c3                	add    %eax,%ebx
  4010b1:	0f b7 db             	movzwl %bx,%ebx
  4010b4:	8d 04 dd 00 01 00 00 	lea    0x100(,%rbx,8),%eax
  4010bb:	89 c0                	mov    %eax,%eax
  4010bd:	48 89 05 dc 43 20 00 	mov    %rax,0x2043dc(%rip)        # 6054a0 <buf_offset>
  4010c4:	c6 05 7d 50 20 00 72 	movb   $0x72,0x20507d(%rip)        # 606148 <target_prefix>
  4010cb:	83 3d d6 43 20 00 00 	cmpl   $0x0,0x2043d6(%rip)        # 6054a8 <notify>
  4010d2:	0f 84 bb 00 00 00    	je     401193 <initialize_target+0x163>
  4010d8:	83 3d 49 44 20 00 00 	cmpl   $0x0,0x204449(%rip)        # 605528 <is_checker>
  4010df:	0f 85 ae 00 00 00    	jne    401193 <initialize_target+0x163>
  4010e5:	be 00 01 00 00       	mov    $0x100,%esi
  4010ea:	48 89 e7             	mov    %rsp,%rdi
  4010ed:	e8 4e fd ff ff       	callq  400e40 <gethostname@plt>
  4010f2:	85 c0                	test   %eax,%eax
  4010f4:	74 25                	je     40111b <initialize_target+0xeb>
  4010f6:	bf f8 30 40 00       	mov    $0x4030f8,%edi
  4010fb:	e8 d0 fb ff ff       	callq  400cd0 <puts@plt>
  401100:	bf 08 00 00 00       	mov    $0x8,%edi
  401105:	e8 46 fd ff ff       	callq  400e50 <exit@plt>
  40110a:	48 89 e6             	mov    %rsp,%rsi
  40110d:	e8 6e fb ff ff       	callq  400c80 <strcasecmp@plt>
  401112:	85 c0                	test   %eax,%eax
  401114:	74 21                	je     401137 <initialize_target+0x107>
  401116:	83 c3 01             	add    $0x1,%ebx
  401119:	eb 05                	jmp    401120 <initialize_target+0xf0>
  40111b:	bb 00 00 00 00       	mov    $0x0,%ebx
  401120:	48 63 c3             	movslq %ebx,%rax
  401123:	48 8b 3c c5 80 51 60 	mov    0x605180(,%rax,8),%rdi
  40112a:	00 
  40112b:	48 85 ff             	test   %rdi,%rdi
  40112e:	75 da                	jne    40110a <initialize_target+0xda>
  401130:	b8 00 00 00 00       	mov    $0x0,%eax
  401135:	eb 05                	jmp    40113c <initialize_target+0x10c>
  401137:	b8 01 00 00 00       	mov    $0x1,%eax
  40113c:	85 c0                	test   %eax,%eax
  40113e:	75 1c                	jne    40115c <initialize_target+0x12c>
  401140:	48 89 e2             	mov    %rsp,%rdx
  401143:	be 30 31 40 00       	mov    $0x403130,%esi
  401148:	bf 01 00 00 00       	mov    $0x1,%edi
  40114d:	e8 ae fc ff ff       	callq  400e00 <__printf_chk@plt>
  401152:	bf 08 00 00 00       	mov    $0x8,%edi
  401157:	e8 f4 fc ff ff       	callq  400e50 <exit@plt>
  40115c:	48 8d bc 24 00 01 00 	lea    0x100(%rsp),%rdi
  401163:	00 
  401164:	e8 6d 1b 00 00       	callq  402cd6 <init_driver>
  401169:	85 c0                	test   %eax,%eax
  40116b:	79 26                	jns    401193 <initialize_target+0x163>
  40116d:	48 8d 94 24 00 01 00 	lea    0x100(%rsp),%rdx
  401174:	00 
  401175:	be 70 31 40 00       	mov    $0x403170,%esi
  40117a:	bf 01 00 00 00       	mov    $0x1,%edi
  40117f:	b8 00 00 00 00       	mov    $0x0,%eax
  401184:	e8 77 fc ff ff       	callq  400e00 <__printf_chk@plt>
  401189:	bf 08 00 00 00       	mov    $0x8,%edi
  40118e:	e8 bd fc ff ff       	callq  400e50 <exit@plt>
  401193:	48 8b 84 24 08 21 00 	mov    0x2108(%rsp),%rax
  40119a:	00 
  40119b:	64 48 33 04 25 28 00 	xor    %fs:0x28,%rax
  4011a2:	00 00 
  4011a4:	74 05                	je     4011ab <initialize_target+0x17b>
  4011a6:	e8 45 fb ff ff       	callq  400cf0 <__stack_chk_fail@plt>
  4011ab:	48 81 c4 18 21 00 00 	add    $0x2118,%rsp
  4011b2:	5b                   	pop    %rbx
  4011b3:	5d                   	pop    %rbp
  4011b4:	c3                   	retq   

00000000004011b5 <main>:
  4011b5:	41 56                	push   %r14
  4011b7:	41 55                	push   %r13
  4011b9:	41 54                	push   %r12
  4011bb:	55                   	push   %rbp
  4011bc:	53                   	push   %rbx
  4011bd:	41 89 fc             	mov    %edi,%r12d
  4011c0:	48 89 f3             	mov    %rsi,%rbx
  4011c3:	be 11 20 40 00       	mov    $0x402011,%esi
  4011c8:	bf 0b 00 00 00       	mov    $0xb,%edi
  4011cd:	e8 8e fb ff ff       	callq  400d60 <signal@plt>
  4011d2:	be c3 1f 40 00       	mov    $0x401fc3,%esi
  4011d7:	bf 07 00 00 00       	mov    $0x7,%edi
  4011dc:	e8 7f fb ff ff       	callq  400d60 <signal@plt>
  4011e1:	be 5f 20 40 00       	mov    $0x40205f,%esi
  4011e6:	bf 04 00 00 00       	mov    $0x4,%edi
  4011eb:	e8 70 fb ff ff       	callq  400d60 <signal@plt>
  4011f0:	83 3d 31 43 20 00 00 	cmpl   $0x0,0x204331(%rip)        # 605528 <is_checker>
  4011f7:	74 20                	je     401219 <main+0x64>
  4011f9:	be ad 20 40 00       	mov    $0x4020ad,%esi
  4011fe:	bf 0e 00 00 00       	mov    $0xe,%edi
  401203:	e8 58 fb ff ff       	callq  400d60 <signal@plt>
  401208:	bf 05 00 00 00       	mov    $0x5,%edi
  40120d:	e8 0e fb ff ff       	callq  400d20 <alarm@plt>
  401212:	bd 3a 32 40 00       	mov    $0x40323a,%ebp
  401217:	eb 05                	jmp    40121e <main+0x69>
  401219:	bd 35 32 40 00       	mov    $0x403235,%ebp
  40121e:	48 8b 05 9b 42 20 00 	mov    0x20429b(%rip),%rax        # 6054c0 <stdin@@GLIBC_2.2.5>
  401225:	48 89 05 e4 42 20 00 	mov    %rax,0x2042e4(%rip)        # 605510 <infile>
  40122c:	41 bd 00 00 00 00    	mov    $0x0,%r13d
  401232:	41 be 00 00 00 00    	mov    $0x0,%r14d
  401238:	e9 c6 00 00 00       	jmpq   401303 <main+0x14e>
  40123d:	83 e8 61             	sub    $0x61,%eax
  401240:	3c 10                	cmp    $0x10,%al
  401242:	0f 87 9c 00 00 00    	ja     4012e4 <main+0x12f>
  401248:	0f b6 c0             	movzbl %al,%eax
  40124b:	ff 24 c5 80 32 40 00 	jmpq   *0x403280(,%rax,8)
  401252:	48 8b 3b             	mov    (%rbx),%rdi
  401255:	e8 4c fd ff ff       	callq  400fa6 <usage>
  40125a:	be e3 33 40 00       	mov    $0x4033e3,%esi
  40125f:	48 8b 3d 62 42 20 00 	mov    0x204262(%rip),%rdi        # 6054c8 <optarg@@GLIBC_2.2.5>
  401266:	e8 a5 fb ff ff       	callq  400e10 <fopen@plt>
  40126b:	48 89 05 9e 42 20 00 	mov    %rax,0x20429e(%rip)        # 605510 <infile>
  401272:	48 85 c0             	test   %rax,%rax
  401275:	0f 85 88 00 00 00    	jne    401303 <main+0x14e>
  40127b:	48 8b 0d 46 42 20 00 	mov    0x204246(%rip),%rcx        # 6054c8 <optarg@@GLIBC_2.2.5>
  401282:	ba 42 32 40 00       	mov    $0x403242,%edx
  401287:	be 01 00 00 00       	mov    $0x1,%esi
  40128c:	48 8b 3d 4d 42 20 00 	mov    0x20424d(%rip),%rdi        # 6054e0 <stderr@@GLIBC_2.2.5>
  401293:	e8 d8 fb ff ff       	callq  400e70 <__fprintf_chk@plt>
  401298:	b8 01 00 00 00       	mov    $0x1,%eax
  40129d:	e9 e4 00 00 00       	jmpq   401386 <main+0x1d1>
  4012a2:	ba 10 00 00 00       	mov    $0x10,%edx
  4012a7:	be 00 00 00 00       	mov    $0x0,%esi
  4012ac:	48 8b 3d 15 42 20 00 	mov    0x204215(%rip),%rdi        # 6054c8 <optarg@@GLIBC_2.2.5>
  4012b3:	e8 78 fb ff ff       	callq  400e30 <strtoul@plt>
  4012b8:	41 89 c6             	mov    %eax,%r14d
  4012bb:	eb 46                	jmp    401303 <main+0x14e>
  4012bd:	ba 0a 00 00 00       	mov    $0xa,%edx
  4012c2:	be 00 00 00 00       	mov    $0x0,%esi
  4012c7:	48 8b 3d fa 41 20 00 	mov    0x2041fa(%rip),%rdi        # 6054c8 <optarg@@GLIBC_2.2.5>
  4012ce:	e8 bd fa ff ff       	callq  400d90 <strtol@plt>
  4012d3:	41 89 c5             	mov    %eax,%r13d
  4012d6:	eb 2b                	jmp    401303 <main+0x14e>
  4012d8:	c7 05 c6 41 20 00 00 	movl   $0x0,0x2041c6(%rip)        # 6054a8 <notify>
  4012df:	00 00 00 
  4012e2:	eb 1f                	jmp    401303 <main+0x14e>
  4012e4:	0f be d2             	movsbl %dl,%edx
  4012e7:	be 5f 32 40 00       	mov    $0x40325f,%esi
  4012ec:	bf 01 00 00 00       	mov    $0x1,%edi
  4012f1:	b8 00 00 00 00       	mov    $0x0,%eax
  4012f6:	e8 05 fb ff ff       	callq  400e00 <__printf_chk@plt>
  4012fb:	48 8b 3b             	mov    (%rbx),%rdi
  4012fe:	e8 a3 fc ff ff       	callq  400fa6 <usage>
  401303:	48 89 ea             	mov    %rbp,%rdx
  401306:	48 89 de             	mov    %rbx,%rsi
  401309:	44 89 e7             	mov    %r12d,%edi
  40130c:	e8 0f fb ff ff       	callq  400e20 <getopt@plt>
  401311:	89 c2                	mov    %eax,%edx
  401313:	3c ff                	cmp    $0xff,%al
  401315:	0f 85 22 ff ff ff    	jne    40123d <main+0x88>
  40131b:	be 01 00 00 00       	mov    $0x1,%esi
  401320:	44 89 ef             	mov    %r13d,%edi
  401323:	e8 08 fd ff ff       	callq  401030 <initialize_target>
  401328:	83 3d f9 41 20 00 00 	cmpl   $0x0,0x2041f9(%rip)        # 605528 <is_checker>
  40132f:	74 2a                	je     40135b <main+0x1a6>
  401331:	44 3b 35 e8 41 20 00 	cmp    0x2041e8(%rip),%r14d        # 605520 <authkey>
  401338:	74 21                	je     40135b <main+0x1a6>
  40133a:	44 89 f2             	mov    %r14d,%edx
  40133d:	be 98 31 40 00       	mov    $0x403198,%esi
  401342:	bf 01 00 00 00       	mov    $0x1,%edi
  401347:	b8 00 00 00 00       	mov    $0x0,%eax
  40134c:	e8 af fa ff ff       	callq  400e00 <__printf_chk@plt>
  401351:	b8 00 00 00 00       	mov    $0x0,%eax
  401356:	e8 04 09 00 00       	callq  401c5f <check_fail>
  40135b:	8b 15 c3 41 20 00    	mov    0x2041c3(%rip),%edx        # 605524 <cookie>
  401361:	be 72 32 40 00       	mov    $0x403272,%esi
  401366:	bf 01 00 00 00       	mov    $0x1,%edi
  40136b:	b8 00 00 00 00       	mov    $0x0,%eax
  401370:	e8 8b fa ff ff       	callq  400e00 <__printf_chk@plt>
  401375:	48 8b 3d 24 41 20 00 	mov    0x204124(%rip),%rdi        # 6054a0 <buf_offset>
  40137c:	e8 7f 0d 00 00       	callq  402100 <launch>
  401381:	b8 00 00 00 00       	mov    $0x0,%eax
  401386:	5b                   	pop    %rbx
  401387:	5d                   	pop    %rbp
  401388:	41 5c                	pop    %r12
  40138a:	41 5d                	pop    %r13
  40138c:	41 5e                	pop    %r14
  40138e:	c3                   	retq   

000000000040138f <scramble>:
  40138f:	48 83 ec 38          	sub    $0x38,%rsp
  401393:	64 48 8b 04 25 28 00 	mov    %fs:0x28,%rax
  40139a:	00 00 
  40139c:	48 89 44 24 28       	mov    %rax,0x28(%rsp)
  4013a1:	31 c0                	xor    %eax,%eax
  4013a3:	eb 10                	jmp    4013b5 <scramble+0x26>
  4013a5:	69 d0 f7 81 00 00    	imul   $0x81f7,%eax,%edx
  4013ab:	01 fa                	add    %edi,%edx
  4013ad:	89 c1                	mov    %eax,%ecx
  4013af:	89 14 8c             	mov    %edx,(%rsp,%rcx,4)
  4013b2:	83 c0 01             	add    $0x1,%eax
  4013b5:	83 f8 09             	cmp    $0x9,%eax
  4013b8:	76 eb                	jbe    4013a5 <scramble+0x16>
  4013ba:	8b 44 24 14          	mov    0x14(%rsp),%eax
  4013be:	69 c0 70 c7 00 00    	imul   $0xc770,%eax,%eax
  4013c4:	89 44 24 14          	mov    %eax,0x14(%rsp)
  4013c8:	8b 44 24 1c          	mov    0x1c(%rsp),%eax
  4013cc:	69 c0 f9 37 00 00    	imul   $0x37f9,%eax,%eax
  4013d2:	89 44 24 1c          	mov    %eax,0x1c(%rsp)
  4013d6:	8b 44 24 08          	mov    0x8(%rsp),%eax
  4013da:	69 c0 33 01 00 00    	imul   $0x133,%eax,%eax
  4013e0:	89 44 24 08          	mov    %eax,0x8(%rsp)
  4013e4:	8b 44 24 0c          	mov    0xc(%rsp),%eax
  4013e8:	69 c0 97 af 00 00    	imul   $0xaf97,%eax,%eax
  4013ee:	89 44 24 0c          	mov    %eax,0xc(%rsp)
  4013f2:	8b 44 24 04          	mov    0x4(%rsp),%eax
  4013f6:	69 c0 af 97 00 00    	imul   $0x97af,%eax,%eax
  4013fc:	89 44 24 04          	mov    %eax,0x4(%rsp)
  401400:	8b 44 24 14          	mov    0x14(%rsp),%eax
  401404:	69 c0 44 4e 00 00    	imul   $0x4e44,%eax,%eax
  40140a:	89 44 24 14          	mov    %eax,0x14(%rsp)
  40140e:	8b 44 24 24          	mov    0x24(%rsp),%eax
  401412:	69 c0 20 52 00 00    	imul   $0x5220,%eax,%eax
  401418:	89 44 24 24          	mov    %eax,0x24(%rsp)
  40141c:	8b 44 24 14          	mov    0x14(%rsp),%eax
  401420:	69 c0 17 3e 00 00    	imul   $0x3e17,%eax,%eax
  401426:	89 44 24 14          	mov    %eax,0x14(%rsp)
  40142a:	8b 44 24 10          	mov    0x10(%rsp),%eax
  40142e:	69 c0 39 86 00 00    	imul   $0x8639,%eax,%eax
  401434:	89 44 24 10          	mov    %eax,0x10(%rsp)
  401438:	8b 44 24 10          	mov    0x10(%rsp),%eax
  40143c:	69 c0 40 64 00 00    	imul   $0x6440,%eax,%eax
  401442:	89 44 24 10          	mov    %eax,0x10(%rsp)
  401446:	8b 44 24 1c          	mov    0x1c(%rsp),%eax
  40144a:	69 c0 79 58 00 00    	imul   $0x5879,%eax,%eax
  401450:	89 44 24 1c          	mov    %eax,0x1c(%rsp)
  401454:	8b 44 24 04          	mov    0x4(%rsp),%eax
  401458:	69 c0 69 34 00 00    	imul   $0x3469,%eax,%eax
  40145e:	89 44 24 04          	mov    %eax,0x4(%rsp)
  401462:	8b 44 24 1c          	mov    0x1c(%rsp),%eax
  401466:	69 c0 68 30 00 00    	imul   $0x3068,%eax,%eax
  40146c:	89 44 24 1c          	mov    %eax,0x1c(%rsp)
  401470:	8b 44 24 0c          	mov    0xc(%rsp),%eax
  401474:	69 c0 e3 eb 00 00    	imul   $0xebe3,%eax,%eax
  40147a:	89 44 24 0c          	mov    %eax,0xc(%rsp)
  40147e:	8b 04 24             	mov    (%rsp),%eax
  401481:	69 c0 e8 c8 00 00    	imul   $0xc8e8,%eax,%eax
  401487:	89 04 24             	mov    %eax,(%rsp)
  40148a:	8b 44 24 10          	mov    0x10(%rsp),%eax
  40148e:	69 c0 6e f3 00 00    	imul   $0xf36e,%eax,%eax
  401494:	89 44 24 10          	mov    %eax,0x10(%rsp)
  401498:	8b 44 24 24          	mov    0x24(%rsp),%eax
  40149c:	69 c0 30 b8 00 00    	imul   $0xb830,%eax,%eax
  4014a2:	89 44 24 24          	mov    %eax,0x24(%rsp)
  4014a6:	8b 44 24 24          	mov    0x24(%rsp),%eax
  4014aa:	69 c0 bf 88 00 00    	imul   $0x88bf,%eax,%eax
  4014b0:	89 44 24 24          	mov    %eax,0x24(%rsp)
  4014b4:	8b 44 24 20          	mov    0x20(%rsp),%eax
  4014b8:	69 c0 5c fb 00 00    	imul   $0xfb5c,%eax,%eax
  4014be:	89 44 24 20          	mov    %eax,0x20(%rsp)
  4014c2:	8b 44 24 24          	mov    0x24(%rsp),%eax
  4014c6:	69 c0 2f a4 00 00    	imul   $0xa42f,%eax,%eax
  4014cc:	89 44 24 24          	mov    %eax,0x24(%rsp)
  4014d0:	8b 44 24 14          	mov    0x14(%rsp),%eax
  4014d4:	69 c0 12 f5 00 00    	imul   $0xf512,%eax,%eax
  4014da:	89 44 24 14          	mov    %eax,0x14(%rsp)
  4014de:	8b 44 24 18          	mov    0x18(%rsp),%eax
  4014e2:	69 c0 56 d0 00 00    	imul   $0xd056,%eax,%eax
  4014e8:	89 44 24 18          	mov    %eax,0x18(%rsp)
  4014ec:	8b 44 24 10          	mov    0x10(%rsp),%eax
  4014f0:	69 c0 40 0f 00 00    	imul   $0xf40,%eax,%eax
  4014f6:	89 44 24 10          	mov    %eax,0x10(%rsp)
  4014fa:	8b 44 24 1c          	mov    0x1c(%rsp),%eax
  4014fe:	69 c0 b3 a4 00 00    	imul   $0xa4b3,%eax,%eax
  401504:	89 44 24 1c          	mov    %eax,0x1c(%rsp)
  401508:	8b 04 24             	mov    (%rsp),%eax
  40150b:	89 c2                	mov    %eax,%edx
  40150d:	c1 e2 0a             	shl    $0xa,%edx
  401510:	c1 e0 0d             	shl    $0xd,%eax
  401513:	29 d0                	sub    %edx,%eax
  401515:	89 04 24             	mov    %eax,(%rsp)
  401518:	8b 44 24 1c          	mov    0x1c(%rsp),%eax
  40151c:	69 c0 33 f1 00 00    	imul   $0xf133,%eax,%eax
  401522:	89 44 24 1c          	mov    %eax,0x1c(%rsp)
  401526:	8b 44 24 1c          	mov    0x1c(%rsp),%eax
  40152a:	69 c0 7f fa 00 00    	imul   $0xfa7f,%eax,%eax
  401530:	89 44 24 1c          	mov    %eax,0x1c(%rsp)
  401534:	8b 44 24 08          	mov    0x8(%rsp),%eax
  401538:	69 c0 1e 17 00 00    	imul   $0x171e,%eax,%eax
  40153e:	89 44 24 08          	mov    %eax,0x8(%rsp)
  401542:	8b 44 24 24          	mov    0x24(%rsp),%eax
  401546:	69 c0 06 1e 00 00    	imul   $0x1e06,%eax,%eax
  40154c:	89 44 24 24          	mov    %eax,0x24(%rsp)
  401550:	8b 04 24             	mov    (%rsp),%eax
  401553:	69 c0 5f 9c 00 00    	imul   $0x9c5f,%eax,%eax
  401559:	89 04 24             	mov    %eax,(%rsp)
  40155c:	8b 44 24 14          	mov    0x14(%rsp),%eax
  401560:	69 c0 41 42 00 00    	imul   $0x4241,%eax,%eax
  401566:	89 44 24 14          	mov    %eax,0x14(%rsp)
  40156a:	8b 44 24 14          	mov    0x14(%rsp),%eax
  40156e:	69 c0 46 77 00 00    	imul   $0x7746,%eax,%eax
  401574:	89 44 24 14          	mov    %eax,0x14(%rsp)
  401578:	8b 44 24 1c          	mov    0x1c(%rsp),%eax
  40157c:	69 c0 35 bb 00 00    	imul   $0xbb35,%eax,%eax
  401582:	89 44 24 1c          	mov    %eax,0x1c(%rsp)
  401586:	8b 44 24 24          	mov    0x24(%rsp),%eax
  40158a:	69 c0 d5 b3 00 00    	imul   $0xb3d5,%eax,%eax
  401590:	89 44 24 24          	mov    %eax,0x24(%rsp)
  401594:	8b 04 24             	mov    (%rsp),%eax
  401597:	69 c0 5c 38 00 00    	imul   $0x385c,%eax,%eax
  40159d:	89 04 24             	mov    %eax,(%rsp)
  4015a0:	8b 44 24 20          	mov    0x20(%rsp),%eax
  4015a4:	69 c0 9c 49 00 00    	imul   $0x499c,%eax,%eax
  4015aa:	89 44 24 20          	mov    %eax,0x20(%rsp)
  4015ae:	8b 44 24 24          	mov    0x24(%rsp),%eax
  4015b2:	69 c0 77 4a 00 00    	imul   $0x4a77,%eax,%eax
  4015b8:	89 44 24 24          	mov    %eax,0x24(%rsp)
  4015bc:	8b 44 24 04          	mov    0x4(%rsp),%eax
  4015c0:	69 c0 a0 74 00 00    	imul   $0x74a0,%eax,%eax
  4015c6:	89 44 24 04          	mov    %eax,0x4(%rsp)
  4015ca:	8b 44 24 24          	mov    0x24(%rsp),%eax
  4015ce:	69 c0 61 28 00 00    	imul   $0x2861,%eax,%eax
  4015d4:	89 44 24 24          	mov    %eax,0x24(%rsp)
  4015d8:	8b 44 24 14          	mov    0x14(%rsp),%eax
  4015dc:	69 c0 30 ef 00 00    	imul   $0xef30,%eax,%eax
  4015e2:	89 44 24 14          	mov    %eax,0x14(%rsp)
  4015e6:	8b 44 24 10          	mov    0x10(%rsp),%eax
  4015ea:	69 c0 47 22 00 00    	imul   $0x2247,%eax,%eax
  4015f0:	89 44 24 10          	mov    %eax,0x10(%rsp)
  4015f4:	8b 44 24 24          	mov    0x24(%rsp),%eax
  4015f8:	69 c0 da b8 00 00    	imul   $0xb8da,%eax,%eax
  4015fe:	89 44 24 24          	mov    %eax,0x24(%rsp)
  401602:	8b 44 24 10          	mov    0x10(%rsp),%eax
  401606:	69 c0 01 06 00 00    	imul   $0x601,%eax,%eax
  40160c:	89 44 24 10          	mov    %eax,0x10(%rsp)
  401610:	8b 44 24 1c          	mov    0x1c(%rsp),%eax
  401614:	69 c0 af 47 00 00    	imul   $0x47af,%eax,%eax
  40161a:	89 44 24 1c          	mov    %eax,0x1c(%rsp)
  40161e:	8b 04 24             	mov    (%rsp),%eax
  401621:	69 c0 f9 d2 00 00    	imul   $0xd2f9,%eax,%eax
  401627:	89 04 24             	mov    %eax,(%rsp)
  40162a:	8b 44 24 08          	mov    0x8(%rsp),%eax
  40162e:	69 c0 f6 0a 00 00    	imul   $0xaf6,%eax,%eax
  401634:	89 44 24 08          	mov    %eax,0x8(%rsp)
  401638:	8b 44 24 10          	mov    0x10(%rsp),%eax
  40163c:	69 c0 db 73 00 00    	imul   $0x73db,%eax,%eax
  401642:	89 44 24 10          	mov    %eax,0x10(%rsp)
  401646:	8b 44 24 08          	mov    0x8(%rsp),%eax
  40164a:	69 c0 ac 0f 00 00    	imul   $0xfac,%eax,%eax
  401650:	89 44 24 08          	mov    %eax,0x8(%rsp)
  401654:	8b 44 24 1c          	mov    0x1c(%rsp),%eax
  401658:	69 c0 42 82 00 00    	imul   $0x8242,%eax,%eax
  40165e:	89 44 24 1c          	mov    %eax,0x1c(%rsp)
  401662:	8b 04 24             	mov    (%rsp),%eax
  401665:	69 c0 a1 e5 00 00    	imul   $0xe5a1,%eax,%eax
  40166b:	89 04 24             	mov    %eax,(%rsp)
  40166e:	8b 44 24 18          	mov    0x18(%rsp),%eax
  401672:	69 c0 85 1b 00 00    	imul   $0x1b85,%eax,%eax
  401678:	89 44 24 18          	mov    %eax,0x18(%rsp)
  40167c:	8b 44 24 10          	mov    0x10(%rsp),%eax
  401680:	69 c0 0c e8 00 00    	imul   $0xe80c,%eax,%eax
  401686:	89 44 24 10          	mov    %eax,0x10(%rsp)
  40168a:	8b 44 24 18          	mov    0x18(%rsp),%eax
  40168e:	69 c0 31 49 00 00    	imul   $0x4931,%eax,%eax
  401694:	89 44 24 18          	mov    %eax,0x18(%rsp)
  401698:	8b 04 24             	mov    (%rsp),%eax
  40169b:	69 c0 b3 bf 00 00    	imul   $0xbfb3,%eax,%eax
  4016a1:	89 04 24             	mov    %eax,(%rsp)
  4016a4:	8b 44 24 24          	mov    0x24(%rsp),%eax
  4016a8:	69 c0 ff 75 00 00    	imul   $0x75ff,%eax,%eax
  4016ae:	89 44 24 24          	mov    %eax,0x24(%rsp)
  4016b2:	8b 44 24 1c          	mov    0x1c(%rsp),%eax
  4016b6:	69 c0 f3 b5 00 00    	imul   $0xb5f3,%eax,%eax
  4016bc:	89 44 24 1c          	mov    %eax,0x1c(%rsp)
  4016c0:	8b 44 24 24          	mov    0x24(%rsp),%eax
  4016c4:	69 c0 47 8f 00 00    	imul   $0x8f47,%eax,%eax
  4016ca:	89 44 24 24          	mov    %eax,0x24(%rsp)
  4016ce:	8b 44 24 18          	mov    0x18(%rsp),%eax
  4016d2:	69 c0 0e b5 00 00    	imul   $0xb50e,%eax,%eax
  4016d8:	89 44 24 18          	mov    %eax,0x18(%rsp)
  4016dc:	8b 44 24 0c          	mov    0xc(%rsp),%eax
  4016e0:	69 c0 c5 3e 00 00    	imul   $0x3ec5,%eax,%eax
  4016e6:	89 44 24 0c          	mov    %eax,0xc(%rsp)
  4016ea:	8b 44 24 20          	mov    0x20(%rsp),%eax
  4016ee:	69 c0 50 b9 00 00    	imul   $0xb950,%eax,%eax
  4016f4:	89 44 24 20          	mov    %eax,0x20(%rsp)
  4016f8:	8b 44 24 18          	mov    0x18(%rsp),%eax
  4016fc:	69 c0 cb e0 00 00    	imul   $0xe0cb,%eax,%eax
  401702:	89 44 24 18          	mov    %eax,0x18(%rsp)
  401706:	8b 44 24 08          	mov    0x8(%rsp),%eax
  40170a:	69 c0 f8 26 00 00    	imul   $0x26f8,%eax,%eax
  401710:	89 44 24 08          	mov    %eax,0x8(%rsp)
  401714:	8b 44 24 08          	mov    0x8(%rsp),%eax
  401718:	69 c0 82 46 00 00    	imul   $0x4682,%eax,%eax
  40171e:	89 44 24 08          	mov    %eax,0x8(%rsp)
  401722:	8b 44 24 10          	mov    0x10(%rsp),%eax
  401726:	69 c0 b7 83 00 00    	imul   $0x83b7,%eax,%eax
  40172c:	89 44 24 10          	mov    %eax,0x10(%rsp)
  401730:	8b 04 24             	mov    (%rsp),%eax
  401733:	69 c0 25 fa 00 00    	imul   $0xfa25,%eax,%eax
  401739:	89 04 24             	mov    %eax,(%rsp)
  40173c:	8b 44 24 20          	mov    0x20(%rsp),%eax
  401740:	69 c0 62 83 00 00    	imul   $0x8362,%eax,%eax
  401746:	89 44 24 20          	mov    %eax,0x20(%rsp)
  40174a:	8b 44 24 18          	mov    0x18(%rsp),%eax
  40174e:	69 c0 96 98 00 00    	imul   $0x9896,%eax,%eax
  401754:	89 44 24 18          	mov    %eax,0x18(%rsp)
  401758:	8b 44 24 0c          	mov    0xc(%rsp),%eax
  40175c:	69 c0 a6 7b 00 00    	imul   $0x7ba6,%eax,%eax
  401762:	89 44 24 0c          	mov    %eax,0xc(%rsp)
  401766:	8b 44 24 0c          	mov    0xc(%rsp),%eax
  40176a:	69 c0 1a c8 00 00    	imul   $0xc81a,%eax,%eax
  401770:	89 44 24 0c          	mov    %eax,0xc(%rsp)
  401774:	8b 44 24 08          	mov    0x8(%rsp),%eax
  401778:	69 c0 59 53 00 00    	imul   $0x5359,%eax,%eax
  40177e:	89 44 24 08          	mov    %eax,0x8(%rsp)
  401782:	8b 44 24 20          	mov    0x20(%rsp),%eax
  401786:	69 c0 3d ea 00 00    	imul   $0xea3d,%eax,%eax
  40178c:	89 44 24 20          	mov    %eax,0x20(%rsp)
  401790:	8b 44 24 20          	mov    0x20(%rsp),%eax
  401794:	69 c0 61 d6 00 00    	imul   $0xd661,%eax,%eax
  40179a:	89 44 24 20          	mov    %eax,0x20(%rsp)
  40179e:	8b 44 24 24          	mov    0x24(%rsp),%eax
  4017a2:	69 c0 19 78 00 00    	imul   $0x7819,%eax,%eax
  4017a8:	89 44 24 24          	mov    %eax,0x24(%rsp)
  4017ac:	8b 44 24 10          	mov    0x10(%rsp),%eax
  4017b0:	69 c0 cd 0e 00 00    	imul   $0xecd,%eax,%eax
  4017b6:	89 44 24 10          	mov    %eax,0x10(%rsp)
  4017ba:	8b 44 24 0c          	mov    0xc(%rsp),%eax
  4017be:	69 c0 2c 88 00 00    	imul   $0x882c,%eax,%eax
  4017c4:	89 44 24 0c          	mov    %eax,0xc(%rsp)
  4017c8:	8b 44 24 24          	mov    0x24(%rsp),%eax
  4017cc:	69 c0 9c c8 00 00    	imul   $0xc89c,%eax,%eax
  4017d2:	89 44 24 24          	mov    %eax,0x24(%rsp)
  4017d6:	8b 44 24 24          	mov    0x24(%rsp),%eax
  4017da:	69 c0 63 8c 00 00    	imul   $0x8c63,%eax,%eax
  4017e0:	89 44 24 24          	mov    %eax,0x24(%rsp)
  4017e4:	8b 44 24 24          	mov    0x24(%rsp),%eax
  4017e8:	69 c0 9d bd 00 00    	imul   $0xbd9d,%eax,%eax
  4017ee:	89 44 24 24          	mov    %eax,0x24(%rsp)
  4017f2:	8b 44 24 20          	mov    0x20(%rsp),%eax
  4017f6:	69 c0 39 26 00 00    	imul   $0x2639,%eax,%eax
  4017fc:	89 44 24 20          	mov    %eax,0x20(%rsp)
  401800:	8b 44 24 0c          	mov    0xc(%rsp),%eax
  401804:	69 c0 aa 9b 00 00    	imul   $0x9baa,%eax,%eax
  40180a:	89 44 24 0c          	mov    %eax,0xc(%rsp)
  40180e:	8b 44 24 10          	mov    0x10(%rsp),%eax
  401812:	69 c0 ad aa 00 00    	imul   $0xaaad,%eax,%eax
  401818:	89 44 24 10          	mov    %eax,0x10(%rsp)
  40181c:	8b 44 24 24          	mov    0x24(%rsp),%eax
  401820:	69 c0 09 36 00 00    	imul   $0x3609,%eax,%eax
  401826:	89 44 24 24          	mov    %eax,0x24(%rsp)
  40182a:	8b 04 24             	mov    (%rsp),%eax
  40182d:	69 c0 7b 8a 00 00    	imul   $0x8a7b,%eax,%eax
  401833:	89 04 24             	mov    %eax,(%rsp)
  401836:	8b 44 24 1c          	mov    0x1c(%rsp),%eax
  40183a:	69 c0 0b 25 00 00    	imul   $0x250b,%eax,%eax
  401840:	89 44 24 1c          	mov    %eax,0x1c(%rsp)
  401844:	8b 44 24 20          	mov    0x20(%rsp),%eax
  401848:	69 c0 09 ed 00 00    	imul   $0xed09,%eax,%eax
  40184e:	89 44 24 20          	mov    %eax,0x20(%rsp)
  401852:	8b 44 24 20          	mov    0x20(%rsp),%eax
  401856:	69 c0 af 90 00 00    	imul   $0x90af,%eax,%eax
  40185c:	89 44 24 20          	mov    %eax,0x20(%rsp)
  401860:	8b 04 24             	mov    (%rsp),%eax
  401863:	69 c0 b1 81 00 00    	imul   $0x81b1,%eax,%eax
  401869:	89 04 24             	mov    %eax,(%rsp)
  40186c:	8b 44 24 20          	mov    0x20(%rsp),%eax
  401870:	69 c0 cb 50 00 00    	imul   $0x50cb,%eax,%eax
  401876:	89 44 24 20          	mov    %eax,0x20(%rsp)
  40187a:	8b 44 24 18          	mov    0x18(%rsp),%eax
  40187e:	69 c0 7f f2 00 00    	imul   $0xf27f,%eax,%eax
  401884:	89 44 24 18          	mov    %eax,0x18(%rsp)
  401888:	8b 44 24 14          	mov    0x14(%rsp),%eax
  40188c:	69 c0 a9 b0 00 00    	imul   $0xb0a9,%eax,%eax
  401892:	89 44 24 14          	mov    %eax,0x14(%rsp)
  401896:	8b 44 24 04          	mov    0x4(%rsp),%eax
  40189a:	69 c0 b5 27 00 00    	imul   $0x27b5,%eax,%eax
  4018a0:	89 44 24 04          	mov    %eax,0x4(%rsp)
  4018a4:	8b 44 24 20          	mov    0x20(%rsp),%eax
  4018a8:	69 c0 a2 e3 00 00    	imul   $0xe3a2,%eax,%eax
  4018ae:	89 44 24 20          	mov    %eax,0x20(%rsp)
  4018b2:	ba 00 00 00 00       	mov    $0x0,%edx
  4018b7:	b8 00 00 00 00       	mov    $0x0,%eax
  4018bc:	eb 0a                	jmp    4018c8 <scramble+0x539>
  4018be:	89 d1                	mov    %edx,%ecx
  4018c0:	8b 0c 8c             	mov    (%rsp,%rcx,4),%ecx
  4018c3:	01 c8                	add    %ecx,%eax
  4018c5:	83 c2 01             	add    $0x1,%edx
  4018c8:	83 fa 09             	cmp    $0x9,%edx
  4018cb:	76 f1                	jbe    4018be <scramble+0x52f>
  4018cd:	48 8b 74 24 28       	mov    0x28(%rsp),%rsi
  4018d2:	64 48 33 34 25 28 00 	xor    %fs:0x28,%rsi
  4018d9:	00 00 
  4018db:	74 05                	je     4018e2 <scramble+0x553>
  4018dd:	e8 0e f4 ff ff       	callq  400cf0 <__stack_chk_fail@plt>
  4018e2:	48 83 c4 38          	add    $0x38,%rsp
  4018e6:	c3                   	retq   

00000000004018e7 <getbuf>:
  4018e7:	48 83 ec 18          	sub    $0x18,%rsp
  4018eb:	48 89 e7             	mov    %rsp,%rdi
  4018ee:	e8 a1 03 00 00       	callq  401c94 <Gets>
  4018f3:	b8 01 00 00 00       	mov    $0x1,%eax
  4018f8:	48 83 c4 18          	add    $0x18,%rsp
  4018fc:	c3                   	retq   

00000000004018fd <touch1>:
  4018fd:	48 83 ec 08          	sub    $0x8,%rsp
  401901:	c7 05 11 3c 20 00 01 	movl   $0x1,0x203c11(%rip)        # 60551c <vlevel>
  401908:	00 00 00 
  40190b:	bf ec 33 40 00       	mov    $0x4033ec,%edi
  401910:	e8 bb f3 ff ff       	callq  400cd0 <puts@plt>
  401915:	bf 01 00 00 00       	mov    $0x1,%edi
  40191a:	e8 ba 05 00 00       	callq  401ed9 <validate>
  40191f:	bf 00 00 00 00       	mov    $0x0,%edi
  401924:	e8 27 f5 ff ff       	callq  400e50 <exit@plt>

0000000000401929 <touch2>:
  401929:	48 83 ec 08          	sub    $0x8,%rsp
  40192d:	89 fa                	mov    %edi,%edx
  40192f:	c7 05 e3 3b 20 00 02 	movl   $0x2,0x203be3(%rip)        # 60551c <vlevel>
  401936:	00 00 00 
  401939:	39 3d e5 3b 20 00    	cmp    %edi,0x203be5(%rip)        # 605524 <cookie>
  40193f:	75 20                	jne    401961 <touch2+0x38>
  401941:	be 10 34 40 00       	mov    $0x403410,%esi
  401946:	bf 01 00 00 00       	mov    $0x1,%edi
  40194b:	b8 00 00 00 00       	mov    $0x0,%eax
  401950:	e8 ab f4 ff ff       	callq  400e00 <__printf_chk@plt>
  401955:	bf 02 00 00 00       	mov    $0x2,%edi
  40195a:	e8 7a 05 00 00       	callq  401ed9 <validate>
  40195f:	eb 1e                	jmp    40197f <touch2+0x56>
  401961:	be 38 34 40 00       	mov    $0x403438,%esi
  401966:	bf 01 00 00 00       	mov    $0x1,%edi
  40196b:	b8 00 00 00 00       	mov    $0x0,%eax
  401970:	e8 8b f4 ff ff       	callq  400e00 <__printf_chk@plt>
  401975:	bf 02 00 00 00       	mov    $0x2,%edi
  40197a:	e8 1c 06 00 00       	callq  401f9b <fail>
  40197f:	bf 00 00 00 00       	mov    $0x0,%edi
  401984:	e8 c7 f4 ff ff       	callq  400e50 <exit@plt>

0000000000401989 <hexmatch>:
  401989:	41 54                	push   %r12
  40198b:	55                   	push   %rbp
  40198c:	53                   	push   %rbx
  40198d:	48 83 c4 80          	add    $0xffffffffffffff80,%rsp
  401991:	89 fd                	mov    %edi,%ebp
  401993:	48 89 f3             	mov    %rsi,%rbx
  401996:	64 48 8b 04 25 28 00 	mov    %fs:0x28,%rax
  40199d:	00 00 
  40199f:	48 89 44 24 78       	mov    %rax,0x78(%rsp)
  4019a4:	31 c0                	xor    %eax,%eax
  4019a6:	e8 15 f4 ff ff       	callq  400dc0 <random@plt>
  4019ab:	48 89 c1             	mov    %rax,%rcx
  4019ae:	48 ba 0b d7 a3 70 3d 	movabs $0xa3d70a3d70a3d70b,%rdx
  4019b5:	0a d7 a3 
  4019b8:	48 f7 ea             	imul   %rdx
  4019bb:	48 01 ca             	add    %rcx,%rdx
  4019be:	48 c1 fa 06          	sar    $0x6,%rdx
  4019c2:	48 89 c8             	mov    %rcx,%rax
  4019c5:	48 c1 f8 3f          	sar    $0x3f,%rax
  4019c9:	48 29 c2             	sub    %rax,%rdx
  4019cc:	48 8d 04 92          	lea    (%rdx,%rdx,4),%rax
  4019d0:	48 8d 14 80          	lea    (%rax,%rax,4),%rdx
  4019d4:	48 8d 04 95 00 00 00 	lea    0x0(,%rdx,4),%rax
  4019db:	00 
  4019dc:	48 29 c1             	sub    %rax,%rcx
  4019df:	4c 8d 24 0c          	lea    (%rsp,%rcx,1),%r12
  4019e3:	41 89 e8             	mov    %ebp,%r8d
  4019e6:	b9 09 34 40 00       	mov    $0x403409,%ecx
  4019eb:	48 c7 c2 ff ff ff ff 	mov    $0xffffffffffffffff,%rdx
  4019f2:	be 01 00 00 00       	mov    $0x1,%esi
  4019f7:	4c 89 e7             	mov    %r12,%rdi
  4019fa:	b8 00 00 00 00       	mov    $0x0,%eax
  4019ff:	e8 7c f4 ff ff       	callq  400e80 <__sprintf_chk@plt>
  401a04:	ba 09 00 00 00       	mov    $0x9,%edx
  401a09:	4c 89 e6             	mov    %r12,%rsi
  401a0c:	48 89 df             	mov    %rbx,%rdi
  401a0f:	e8 9c f2 ff ff       	callq  400cb0 <strncmp@plt>
  401a14:	85 c0                	test   %eax,%eax
  401a16:	0f 94 c0             	sete   %al
  401a19:	48 8b 5c 24 78       	mov    0x78(%rsp),%rbx
  401a1e:	64 48 33 1c 25 28 00 	xor    %fs:0x28,%rbx
  401a25:	00 00 
  401a27:	74 05                	je     401a2e <hexmatch+0xa5>
  401a29:	e8 c2 f2 ff ff       	callq  400cf0 <__stack_chk_fail@plt>
  401a2e:	0f b6 c0             	movzbl %al,%eax
  401a31:	48 83 ec 80          	sub    $0xffffffffffffff80,%rsp
  401a35:	5b                   	pop    %rbx
  401a36:	5d                   	pop    %rbp
  401a37:	41 5c                	pop    %r12
  401a39:	c3                   	retq   

0000000000401a3a <touch3>:
  401a3a:	53                   	push   %rbx
  401a3b:	48 89 fb             	mov    %rdi,%rbx
  401a3e:	c7 05 d4 3a 20 00 03 	movl   $0x3,0x203ad4(%rip)        # 60551c <vlevel>
  401a45:	00 00 00 
  401a48:	48 89 fe             	mov    %rdi,%rsi
  401a4b:	8b 3d d3 3a 20 00    	mov    0x203ad3(%rip),%edi        # 605524 <cookie>
  401a51:	e8 33 ff ff ff       	callq  401989 <hexmatch>
  401a56:	85 c0                	test   %eax,%eax
  401a58:	74 23                	je     401a7d <touch3+0x43>
  401a5a:	48 89 da             	mov    %rbx,%rdx
  401a5d:	be 60 34 40 00       	mov    $0x403460,%esi
  401a62:	bf 01 00 00 00       	mov    $0x1,%edi
  401a67:	b8 00 00 00 00       	mov    $0x0,%eax
  401a6c:	e8 8f f3 ff ff       	callq  400e00 <__printf_chk@plt>
  401a71:	bf 03 00 00 00       	mov    $0x3,%edi
  401a76:	e8 5e 04 00 00       	callq  401ed9 <validate>
  401a7b:	eb 21                	jmp    401a9e <touch3+0x64>
  401a7d:	48 89 da             	mov    %rbx,%rdx
  401a80:	be 88 34 40 00       	mov    $0x403488,%esi
  401a85:	bf 01 00 00 00       	mov    $0x1,%edi
  401a8a:	b8 00 00 00 00       	mov    $0x0,%eax
  401a8f:	e8 6c f3 ff ff       	callq  400e00 <__printf_chk@plt>
  401a94:	bf 03 00 00 00       	mov    $0x3,%edi
  401a99:	e8 fd 04 00 00       	callq  401f9b <fail>
  401a9e:	bf 00 00 00 00       	mov    $0x0,%edi
  401aa3:	e8 a8 f3 ff ff       	callq  400e50 <exit@plt>

0000000000401aa8 <test>:
  401aa8:	48 83 ec 08          	sub    $0x8,%rsp
  401aac:	b8 00 00 00 00       	mov    $0x0,%eax
  401ab1:	e8 31 fe ff ff       	callq  4018e7 <getbuf>
  401ab6:	89 c2                	mov    %eax,%edx
  401ab8:	be b0 34 40 00       	mov    $0x4034b0,%esi
  401abd:	bf 01 00 00 00       	mov    $0x1,%edi
  401ac2:	b8 00 00 00 00       	mov    $0x0,%eax
  401ac7:	e8 34 f3 ff ff       	callq  400e00 <__printf_chk@plt>
  401acc:	48 83 c4 08          	add    $0x8,%rsp
  401ad0:	c3                   	retq   

0000000000401ad1 <start_farm>:
  401ad1:	b8 01 00 00 00       	mov    $0x1,%eax
  401ad6:	c3                   	retq   

0000000000401ad7 <getval_209>:
  401ad7:	b8 48 89 c7 c7       	mov    $0xc7c78948,%eax
  401adc:	c3                   	retq   

0000000000401add <getval_452>:
  401add:	b8 48 89 c7 90       	mov    $0x90c78948,%eax
  401ae2:	c3                   	retq   

0000000000401ae3 <setval_177>:
  401ae3:	c7 07 58 90 90 c3    	movl   $0xc3909058,(%rdi)
  401ae9:	c3                   	retq   

0000000000401aea <addval_179>:
  401aea:	8d 87 48 90 90 c3    	lea    -0x3c6f6fb8(%rdi),%eax
  401af0:	c3                   	retq   

0000000000401af1 <setval_451>:
  401af1:	c7 07 48 89 c7 c3    	movl   $0xc3c78948,(%rdi)
  401af7:	c3                   	retq   

0000000000401af8 <setval_326>:
  401af8:	c7 07 48 89 c7 92    	movl   $0x92c78948,(%rdi)
  401afe:	c3                   	retq   

0000000000401aff <addval_487>:
  401aff:	8d 87 50 90 90 c3    	lea    -0x3c6f6fb0(%rdi),%eax
  401b05:	c3                   	retq   

0000000000401b06 <setval_367>:
  401b06:	c7 07 06 20 58 90    	movl   $0x90582006,(%rdi)
  401b0c:	c3                   	retq   

0000000000401b0d <mid_farm>:
  401b0d:	b8 01 00 00 00       	mov    $0x1,%eax
  401b12:	c3                   	retq   

0000000000401b13 <add_xy>:
  401b13:	48 8d 04 37          	lea    (%rdi,%rsi,1),%rax
  401b17:	c3                   	retq   

0000000000401b18 <getval_401>:
  401b18:	b8 48 89 e0 c3       	mov    $0xc3e08948,%eax
  401b1d:	c3                   	retq   

0000000000401b1e <setval_427>:
  401b1e:	c7 07 89 d6 08 c0    	movl   $0xc008d689,(%rdi)
  401b24:	c3                   	retq   

0000000000401b25 <getval_299>:
  401b25:	b8 89 c1 08 c0       	mov    $0xc008c189,%eax
  401b2a:	c3                   	retq   

0000000000401b2b <getval_428>:
  401b2b:	b8 58 89 e0 c3       	mov    $0xc3e08958,%eax
  401b30:	c3                   	retq   

0000000000401b31 <getval_431>:
  401b31:	b8 4f 89 c1 c3       	mov    $0xc3c1894f,%eax
  401b36:	c3                   	retq   

0000000000401b37 <addval_463>:
  401b37:	8d 87 97 48 89 e0    	lea    -0x1f76b769(%rdi),%eax
  401b3d:	c3                   	retq   

0000000000401b3e <addval_234>:
  401b3e:	8d 87 8b c1 84 db    	lea    -0x247b3e75(%rdi),%eax
  401b44:	c3                   	retq   

0000000000401b45 <setval_255>:
  401b45:	c7 07 8d c1 38 db    	movl   $0xdb38c18d,(%rdi)
  401b4b:	c3                   	retq   

0000000000401b4c <setval_373>:
  401b4c:	c7 07 48 89 e0 94    	movl   $0x94e08948,(%rdi)
  401b52:	c3                   	retq   

0000000000401b53 <setval_126>:
  401b53:	c7 07 a9 c1 c3 fb    	movl   $0xfbc3c1a9,(%rdi)
  401b59:	c3                   	retq   

0000000000401b5a <addval_192>:
  401b5a:	8d 87 c9 ca c3 0f    	lea    0xfc3cac9(%rdi),%eax
  401b60:	c3                   	retq   

0000000000401b61 <setval_453>:
  401b61:	c7 07 a9 ca 38 c9    	movl   $0xc938caa9,(%rdi)
  401b67:	c3                   	retq   

0000000000401b68 <setval_180>:
  401b68:	c7 07 09 c1 c3 ce    	movl   $0xcec3c109,(%rdi)
  401b6e:	c3                   	retq   

0000000000401b6f <setval_319>:
  401b6f:	c7 07 48 89 e0 c2    	movl   $0xc2e08948,(%rdi)
  401b75:	c3                   	retq   

0000000000401b76 <addval_247>:
  401b76:	8d 87 8d ca 90 c3    	lea    -0x3c6f3573(%rdi),%eax
  401b7c:	c3                   	retq   

0000000000401b7d <setval_205>:
  401b7d:	c7 07 89 ca a4 c0    	movl   $0xc0a4ca89,(%rdi)
  401b83:	c3                   	retq   

0000000000401b84 <addval_462>:
  401b84:	8d 87 09 c1 20 c0    	lea    -0x3fdf3ef7(%rdi),%eax
  401b8a:	c3                   	retq   

0000000000401b8b <getval_494>:
  401b8b:	b8 09 ca 90 90       	mov    $0x9090ca09,%eax
  401b90:	c3                   	retq   

0000000000401b91 <getval_413>:
  401b91:	b8 89 d6 38 c0       	mov    $0xc038d689,%eax
  401b96:	c3                   	retq   

0000000000401b97 <getval_269>:
  401b97:	b8 aa 8d d6 c3       	mov    $0xc3d68daa,%eax
  401b9c:	c3                   	retq   

0000000000401b9d <setval_232>:
  401b9d:	c7 07 89 ca 38 c9    	movl   $0xc938ca89,(%rdi)
  401ba3:	c3                   	retq   

0000000000401ba4 <setval_351>:
  401ba4:	c7 07 89 d6 18 c9    	movl   $0xc918d689,(%rdi)
  401baa:	c3                   	retq   

0000000000401bab <setval_330>:
  401bab:	c7 07 15 89 d6 92    	movl   $0x92d68915,(%rdi)
  401bb1:	c3                   	retq   

0000000000401bb2 <addval_345>:
  401bb2:	8d 87 89 ca 18 d2    	lea    -0x2de73577(%rdi),%eax
  401bb8:	c3                   	retq   

0000000000401bb9 <setval_201>:
  401bb9:	c7 07 58 89 e0 c3    	movl   $0xc3e08958,(%rdi)
  401bbf:	c3                   	retq   

0000000000401bc0 <setval_130>:
  401bc0:	c7 07 2d b3 89 ca    	movl   $0xca89b32d,(%rdi)
  401bc6:	c3                   	retq   

0000000000401bc7 <getval_120>:
  401bc7:	b8 48 89 e0 c1       	mov    $0xc1e08948,%eax
  401bcc:	c3                   	retq   

0000000000401bcd <addval_206>:
  401bcd:	8d 87 89 d6 78 c0    	lea    -0x3f872977(%rdi),%eax
  401bd3:	c3                   	retq   

0000000000401bd4 <getval_481>:
  401bd4:	b8 c9 c1 20 db       	mov    $0xdb20c1c9,%eax
  401bd9:	c3                   	retq   

0000000000401bda <setval_357>:
  401bda:	c7 07 89 d6 18 d2    	movl   $0xd218d689,(%rdi)
  401be0:	c3                   	retq   

0000000000401be1 <getval_220>:
  401be1:	b8 48 89 e0 c7       	mov    $0xc7e08948,%eax
  401be6:	c3                   	retq   

0000000000401be7 <addval_228>:
  401be7:	8d 87 8d d6 38 db    	lea    -0x24c72973(%rdi),%eax
  401bed:	c3                   	retq   

0000000000401bee <end_farm>:
  401bee:	b8 01 00 00 00       	mov    $0x1,%eax
  401bf3:	c3                   	retq   

0000000000401bf4 <save_char>:
  401bf4:	8b 05 4a 45 20 00    	mov    0x20454a(%rip),%eax        # 606144 <gets_cnt>
  401bfa:	3d ff 03 00 00       	cmp    $0x3ff,%eax
  401bff:	7f 49                	jg     401c4a <save_char+0x56>
  401c01:	8d 14 40             	lea    (%rax,%rax,2),%edx
  401c04:	89 f9                	mov    %edi,%ecx
  401c06:	c0 e9 04             	shr    $0x4,%cl
  401c09:	83 e1 0f             	and    $0xf,%ecx
  401c0c:	0f b6 b1 d0 37 40 00 	movzbl 0x4037d0(%rcx),%esi
  401c13:	48 63 ca             	movslq %edx,%rcx
  401c16:	40 88 b1 40 55 60 00 	mov    %sil,0x605540(%rcx)
  401c1d:	8d 4a 01             	lea    0x1(%rdx),%ecx
  401c20:	83 e7 0f             	and    $0xf,%edi
  401c23:	0f b6 b7 d0 37 40 00 	movzbl 0x4037d0(%rdi),%esi
  401c2a:	48 63 c9             	movslq %ecx,%rcx
  401c2d:	40 88 b1 40 55 60 00 	mov    %sil,0x605540(%rcx)
  401c34:	83 c2 02             	add    $0x2,%edx
  401c37:	48 63 d2             	movslq %edx,%rdx
  401c3a:	c6 82 40 55 60 00 20 	movb   $0x20,0x605540(%rdx)
  401c41:	83 c0 01             	add    $0x1,%eax
  401c44:	89 05 fa 44 20 00    	mov    %eax,0x2044fa(%rip)        # 606144 <gets_cnt>
  401c4a:	f3 c3                	repz retq 

0000000000401c4c <save_term>:
  401c4c:	8b 05 f2 44 20 00    	mov    0x2044f2(%rip),%eax        # 606144 <gets_cnt>
  401c52:	8d 04 40             	lea    (%rax,%rax,2),%eax
  401c55:	48 98                	cltq   
  401c57:	c6 80 40 55 60 00 00 	movb   $0x0,0x605540(%rax)
  401c5e:	c3                   	retq   

0000000000401c5f <check_fail>:
  401c5f:	48 83 ec 08          	sub    $0x8,%rsp
  401c63:	0f be 15 de 44 20 00 	movsbl 0x2044de(%rip),%edx        # 606148 <target_prefix>
  401c6a:	41 b8 40 55 60 00    	mov    $0x605540,%r8d
  401c70:	8b 0d a2 38 20 00    	mov    0x2038a2(%rip),%ecx        # 605518 <check_level>
  401c76:	be d3 34 40 00       	mov    $0x4034d3,%esi
  401c7b:	bf 01 00 00 00       	mov    $0x1,%edi
  401c80:	b8 00 00 00 00       	mov    $0x0,%eax
  401c85:	e8 76 f1 ff ff       	callq  400e00 <__printf_chk@plt>
  401c8a:	bf 01 00 00 00       	mov    $0x1,%edi
  401c8f:	e8 bc f1 ff ff       	callq  400e50 <exit@plt>

0000000000401c94 <Gets>:
  401c94:	41 54                	push   %r12
  401c96:	55                   	push   %rbp
  401c97:	53                   	push   %rbx
  401c98:	49 89 fc             	mov    %rdi,%r12
  401c9b:	c7 05 9f 44 20 00 00 	movl   $0x0,0x20449f(%rip)        # 606144 <gets_cnt>
  401ca2:	00 00 00 
  401ca5:	48 89 fb             	mov    %rdi,%rbx
  401ca8:	eb 11                	jmp    401cbb <Gets+0x27>
  401caa:	48 8d 6b 01          	lea    0x1(%rbx),%rbp
  401cae:	88 03                	mov    %al,(%rbx)
  401cb0:	0f b6 f8             	movzbl %al,%edi
  401cb3:	e8 3c ff ff ff       	callq  401bf4 <save_char>
  401cb8:	48 89 eb             	mov    %rbp,%rbx
  401cbb:	48 8b 3d 4e 38 20 00 	mov    0x20384e(%rip),%rdi        # 605510 <infile>
  401cc2:	e8 09 f1 ff ff       	callq  400dd0 <_IO_getc@plt>
  401cc7:	83 f8 ff             	cmp    $0xffffffff,%eax
  401cca:	74 05                	je     401cd1 <Gets+0x3d>
  401ccc:	83 f8 0a             	cmp    $0xa,%eax
  401ccf:	75 d9                	jne    401caa <Gets+0x16>
  401cd1:	c6 03 00             	movb   $0x0,(%rbx)
  401cd4:	b8 00 00 00 00       	mov    $0x0,%eax
  401cd9:	e8 6e ff ff ff       	callq  401c4c <save_term>
  401cde:	4c 89 e0             	mov    %r12,%rax
  401ce1:	5b                   	pop    %rbx
  401ce2:	5d                   	pop    %rbp
  401ce3:	41 5c                	pop    %r12
  401ce5:	c3                   	retq   

0000000000401ce6 <notify_server>:
  401ce6:	53                   	push   %rbx
  401ce7:	48 81 ec 10 40 00 00 	sub    $0x4010,%rsp
  401cee:	64 48 8b 04 25 28 00 	mov    %fs:0x28,%rax
  401cf5:	00 00 
  401cf7:	48 89 84 24 08 40 00 	mov    %rax,0x4008(%rsp)
  401cfe:	00 
  401cff:	31 c0                	xor    %eax,%eax
  401d01:	83 3d 20 38 20 00 00 	cmpl   $0x0,0x203820(%rip)        # 605528 <is_checker>
  401d08:	0f 85 aa 01 00 00    	jne    401eb8 <notify_server+0x1d2>
  401d0e:	89 fb                	mov    %edi,%ebx
  401d10:	8b 05 2e 44 20 00    	mov    0x20442e(%rip),%eax        # 606144 <gets_cnt>
  401d16:	83 c0 64             	add    $0x64,%eax
  401d19:	3d 00 20 00 00       	cmp    $0x2000,%eax
  401d1e:	7e 1e                	jle    401d3e <notify_server+0x58>
  401d20:	be 08 36 40 00       	mov    $0x403608,%esi
  401d25:	bf 01 00 00 00       	mov    $0x1,%edi
  401d2a:	b8 00 00 00 00       	mov    $0x0,%eax
  401d2f:	e8 cc f0 ff ff       	callq  400e00 <__printf_chk@plt>
  401d34:	bf 01 00 00 00       	mov    $0x1,%edi
  401d39:	e8 12 f1 ff ff       	callq  400e50 <exit@plt>
  401d3e:	0f be 05 03 44 20 00 	movsbl 0x204403(%rip),%eax        # 606148 <target_prefix>
  401d45:	83 3d 5c 37 20 00 00 	cmpl   $0x0,0x20375c(%rip)        # 6054a8 <notify>
  401d4c:	74 08                	je     401d56 <notify_server+0x70>
  401d4e:	8b 15 cc 37 20 00    	mov    0x2037cc(%rip),%edx        # 605520 <authkey>
  401d54:	eb 05                	jmp    401d5b <notify_server+0x75>
  401d56:	ba ff ff ff ff       	mov    $0xffffffff,%edx
  401d5b:	85 db                	test   %ebx,%ebx
  401d5d:	74 08                	je     401d67 <notify_server+0x81>
  401d5f:	41 b9 e9 34 40 00    	mov    $0x4034e9,%r9d
  401d65:	eb 06                	jmp    401d6d <notify_server+0x87>
  401d67:	41 b9 ee 34 40 00    	mov    $0x4034ee,%r9d
  401d6d:	68 40 55 60 00       	pushq  $0x605540
  401d72:	56                   	push   %rsi
  401d73:	50                   	push   %rax
  401d74:	52                   	push   %rdx
  401d75:	44 8b 05 ec 33 20 00 	mov    0x2033ec(%rip),%r8d        # 605168 <target_id>
  401d7c:	b9 f3 34 40 00       	mov    $0x4034f3,%ecx
  401d81:	ba 00 20 00 00       	mov    $0x2000,%edx
  401d86:	be 01 00 00 00       	mov    $0x1,%esi
  401d8b:	48 8d 7c 24 20       	lea    0x20(%rsp),%rdi
  401d90:	b8 00 00 00 00       	mov    $0x0,%eax
  401d95:	e8 e6 f0 ff ff       	callq  400e80 <__sprintf_chk@plt>
  401d9a:	48 83 c4 20          	add    $0x20,%rsp
  401d9e:	83 3d 03 37 20 00 00 	cmpl   $0x0,0x203703(%rip)        # 6054a8 <notify>
  401da5:	0f 84 81 00 00 00    	je     401e2c <notify_server+0x146>
  401dab:	85 db                	test   %ebx,%ebx
  401dad:	74 6e                	je     401e1d <notify_server+0x137>
  401daf:	4c 8d 8c 24 00 20 00 	lea    0x2000(%rsp),%r9
  401db6:	00 
  401db7:	41 b8 00 00 00 00    	mov    $0x0,%r8d
  401dbd:	48 89 e1             	mov    %rsp,%rcx
  401dc0:	48 8b 15 a9 33 20 00 	mov    0x2033a9(%rip),%rdx        # 605170 <lab>
  401dc7:	48 8b 35 aa 33 20 00 	mov    0x2033aa(%rip),%rsi        # 605178 <course>
  401dce:	48 8b 3d 8b 33 20 00 	mov    0x20338b(%rip),%rdi        # 605160 <user_id>
  401dd5:	e8 ef 10 00 00       	callq  402ec9 <driver_post>
  401dda:	85 c0                	test   %eax,%eax
  401ddc:	79 26                	jns    401e04 <notify_server+0x11e>
  401dde:	48 8d 94 24 00 20 00 	lea    0x2000(%rsp),%rdx
  401de5:	00 
  401de6:	be 0f 35 40 00       	mov    $0x40350f,%esi
  401deb:	bf 01 00 00 00       	mov    $0x1,%edi
  401df0:	b8 00 00 00 00       	mov    $0x0,%eax
  401df5:	e8 06 f0 ff ff       	callq  400e00 <__printf_chk@plt>
  401dfa:	bf 01 00 00 00       	mov    $0x1,%edi
  401dff:	e8 4c f0 ff ff       	callq  400e50 <exit@plt>
  401e04:	bf 38 36 40 00       	mov    $0x403638,%edi
  401e09:	e8 c2 ee ff ff       	callq  400cd0 <puts@plt>
  401e0e:	bf 1b 35 40 00       	mov    $0x40351b,%edi
  401e13:	e8 b8 ee ff ff       	callq  400cd0 <puts@plt>
  401e18:	e9 9b 00 00 00       	jmpq   401eb8 <notify_server+0x1d2>
  401e1d:	bf 25 35 40 00       	mov    $0x403525,%edi
  401e22:	e8 a9 ee ff ff       	callq  400cd0 <puts@plt>
  401e27:	e9 8c 00 00 00       	jmpq   401eb8 <notify_server+0x1d2>
  401e2c:	85 db                	test   %ebx,%ebx
  401e2e:	74 07                	je     401e37 <notify_server+0x151>
  401e30:	ba e9 34 40 00       	mov    $0x4034e9,%edx
  401e35:	eb 05                	jmp    401e3c <notify_server+0x156>
  401e37:	ba ee 34 40 00       	mov    $0x4034ee,%edx
  401e3c:	be 70 36 40 00       	mov    $0x403670,%esi
  401e41:	bf 01 00 00 00       	mov    $0x1,%edi
  401e46:	b8 00 00 00 00       	mov    $0x0,%eax
  401e4b:	e8 b0 ef ff ff       	callq  400e00 <__printf_chk@plt>
  401e50:	48 8b 15 09 33 20 00 	mov    0x203309(%rip),%rdx        # 605160 <user_id>
  401e57:	be 2c 35 40 00       	mov    $0x40352c,%esi
  401e5c:	bf 01 00 00 00       	mov    $0x1,%edi
  401e61:	b8 00 00 00 00       	mov    $0x0,%eax
  401e66:	e8 95 ef ff ff       	callq  400e00 <__printf_chk@plt>
  401e6b:	48 8b 15 06 33 20 00 	mov    0x203306(%rip),%rdx        # 605178 <course>
  401e72:	be 39 35 40 00       	mov    $0x403539,%esi
  401e77:	bf 01 00 00 00       	mov    $0x1,%edi
  401e7c:	b8 00 00 00 00       	mov    $0x0,%eax
  401e81:	e8 7a ef ff ff       	callq  400e00 <__printf_chk@plt>
  401e86:	48 8b 15 e3 32 20 00 	mov    0x2032e3(%rip),%rdx        # 605170 <lab>
  401e8d:	be 45 35 40 00       	mov    $0x403545,%esi
  401e92:	bf 01 00 00 00       	mov    $0x1,%edi
  401e97:	b8 00 00 00 00       	mov    $0x0,%eax
  401e9c:	e8 5f ef ff ff       	callq  400e00 <__printf_chk@plt>
  401ea1:	48 89 e2             	mov    %rsp,%rdx
  401ea4:	be 4e 35 40 00       	mov    $0x40354e,%esi
  401ea9:	bf 01 00 00 00       	mov    $0x1,%edi
  401eae:	b8 00 00 00 00       	mov    $0x0,%eax
  401eb3:	e8 48 ef ff ff       	callq  400e00 <__printf_chk@plt>
  401eb8:	48 8b 84 24 08 40 00 	mov    0x4008(%rsp),%rax
  401ebf:	00 
  401ec0:	64 48 33 04 25 28 00 	xor    %fs:0x28,%rax
  401ec7:	00 00 
  401ec9:	74 05                	je     401ed0 <notify_server+0x1ea>
  401ecb:	e8 20 ee ff ff       	callq  400cf0 <__stack_chk_fail@plt>
  401ed0:	48 81 c4 10 40 00 00 	add    $0x4010,%rsp
  401ed7:	5b                   	pop    %rbx
  401ed8:	c3                   	retq   

0000000000401ed9 <validate>:
  401ed9:	53                   	push   %rbx
  401eda:	89 fb                	mov    %edi,%ebx
  401edc:	83 3d 45 36 20 00 00 	cmpl   $0x0,0x203645(%rip)        # 605528 <is_checker>
  401ee3:	74 6b                	je     401f50 <validate+0x77>
  401ee5:	39 3d 31 36 20 00    	cmp    %edi,0x203631(%rip)        # 60551c <vlevel>
  401eeb:	74 14                	je     401f01 <validate+0x28>
  401eed:	bf 5a 35 40 00       	mov    $0x40355a,%edi
  401ef2:	e8 d9 ed ff ff       	callq  400cd0 <puts@plt>
  401ef7:	b8 00 00 00 00       	mov    $0x0,%eax
  401efc:	e8 5e fd ff ff       	callq  401c5f <check_fail>
  401f01:	8b 15 11 36 20 00    	mov    0x203611(%rip),%edx        # 605518 <check_level>
  401f07:	39 d7                	cmp    %edx,%edi
  401f09:	74 20                	je     401f2b <validate+0x52>
  401f0b:	89 f9                	mov    %edi,%ecx
  401f0d:	be 98 36 40 00       	mov    $0x403698,%esi
  401f12:	bf 01 00 00 00       	mov    $0x1,%edi
  401f17:	b8 00 00 00 00       	mov    $0x0,%eax
  401f1c:	e8 df ee ff ff       	callq  400e00 <__printf_chk@plt>
  401f21:	b8 00 00 00 00       	mov    $0x0,%eax
  401f26:	e8 34 fd ff ff       	callq  401c5f <check_fail>
  401f2b:	0f be 15 16 42 20 00 	movsbl 0x204216(%rip),%edx        # 606148 <target_prefix>
  401f32:	41 b8 40 55 60 00    	mov    $0x605540,%r8d
  401f38:	89 f9                	mov    %edi,%ecx
  401f3a:	be 78 35 40 00       	mov    $0x403578,%esi
  401f3f:	bf 01 00 00 00       	mov    $0x1,%edi
  401f44:	b8 00 00 00 00       	mov    $0x0,%eax
  401f49:	e8 b2 ee ff ff       	callq  400e00 <__printf_chk@plt>
  401f4e:	eb 49                	jmp    401f99 <validate+0xc0>
  401f50:	3b 3d c6 35 20 00    	cmp    0x2035c6(%rip),%edi        # 60551c <vlevel>
  401f56:	74 18                	je     401f70 <validate+0x97>
  401f58:	bf 5a 35 40 00       	mov    $0x40355a,%edi
  401f5d:	e8 6e ed ff ff       	callq  400cd0 <puts@plt>
  401f62:	89 de                	mov    %ebx,%esi
  401f64:	bf 00 00 00 00       	mov    $0x0,%edi
  401f69:	e8 78 fd ff ff       	callq  401ce6 <notify_server>
  401f6e:	eb 29                	jmp    401f99 <validate+0xc0>
  401f70:	0f be 0d d1 41 20 00 	movsbl 0x2041d1(%rip),%ecx        # 606148 <target_prefix>
  401f77:	89 fa                	mov    %edi,%edx
  401f79:	be c0 36 40 00       	mov    $0x4036c0,%esi
  401f7e:	bf 01 00 00 00       	mov    $0x1,%edi
  401f83:	b8 00 00 00 00       	mov    $0x0,%eax
  401f88:	e8 73 ee ff ff       	callq  400e00 <__printf_chk@plt>
  401f8d:	89 de                	mov    %ebx,%esi
  401f8f:	bf 01 00 00 00       	mov    $0x1,%edi
  401f94:	e8 4d fd ff ff       	callq  401ce6 <notify_server>
  401f99:	5b                   	pop    %rbx
  401f9a:	c3                   	retq   

0000000000401f9b <fail>:
  401f9b:	48 83 ec 08          	sub    $0x8,%rsp
  401f9f:	83 3d 82 35 20 00 00 	cmpl   $0x0,0x203582(%rip)        # 605528 <is_checker>
  401fa6:	74 0a                	je     401fb2 <fail+0x17>
  401fa8:	b8 00 00 00 00       	mov    $0x0,%eax
  401fad:	e8 ad fc ff ff       	callq  401c5f <check_fail>
  401fb2:	89 fe                	mov    %edi,%esi
  401fb4:	bf 00 00 00 00       	mov    $0x0,%edi
  401fb9:	e8 28 fd ff ff       	callq  401ce6 <notify_server>
  401fbe:	48 83 c4 08          	add    $0x8,%rsp
  401fc2:	c3                   	retq   

0000000000401fc3 <bushandler>:
  401fc3:	48 83 ec 08          	sub    $0x8,%rsp
  401fc7:	83 3d 5a 35 20 00 00 	cmpl   $0x0,0x20355a(%rip)        # 605528 <is_checker>
  401fce:	74 14                	je     401fe4 <bushandler+0x21>
  401fd0:	bf 8d 35 40 00       	mov    $0x40358d,%edi
  401fd5:	e8 f6 ec ff ff       	callq  400cd0 <puts@plt>
  401fda:	b8 00 00 00 00       	mov    $0x0,%eax
  401fdf:	e8 7b fc ff ff       	callq  401c5f <check_fail>
  401fe4:	bf f8 36 40 00       	mov    $0x4036f8,%edi
  401fe9:	e8 e2 ec ff ff       	callq  400cd0 <puts@plt>
  401fee:	bf 97 35 40 00       	mov    $0x403597,%edi
  401ff3:	e8 d8 ec ff ff       	callq  400cd0 <puts@plt>
  401ff8:	be 00 00 00 00       	mov    $0x0,%esi
  401ffd:	bf 00 00 00 00       	mov    $0x0,%edi
  402002:	e8 df fc ff ff       	callq  401ce6 <notify_server>
  402007:	bf 01 00 00 00       	mov    $0x1,%edi
  40200c:	e8 3f ee ff ff       	callq  400e50 <exit@plt>

0000000000402011 <seghandler>:
  402011:	48 83 ec 08          	sub    $0x8,%rsp
  402015:	83 3d 0c 35 20 00 00 	cmpl   $0x0,0x20350c(%rip)        # 605528 <is_checker>
  40201c:	74 14                	je     402032 <seghandler+0x21>
  40201e:	bf ad 35 40 00       	mov    $0x4035ad,%edi
  402023:	e8 a8 ec ff ff       	callq  400cd0 <puts@plt>
  402028:	b8 00 00 00 00       	mov    $0x0,%eax
  40202d:	e8 2d fc ff ff       	callq  401c5f <check_fail>
  402032:	bf 18 37 40 00       	mov    $0x403718,%edi
  402037:	e8 94 ec ff ff       	callq  400cd0 <puts@plt>
  40203c:	bf 97 35 40 00       	mov    $0x403597,%edi
  402041:	e8 8a ec ff ff       	callq  400cd0 <puts@plt>
  402046:	be 00 00 00 00       	mov    $0x0,%esi
  40204b:	bf 00 00 00 00       	mov    $0x0,%edi
  402050:	e8 91 fc ff ff       	callq  401ce6 <notify_server>
  402055:	bf 01 00 00 00       	mov    $0x1,%edi
  40205a:	e8 f1 ed ff ff       	callq  400e50 <exit@plt>

000000000040205f <illegalhandler>:
  40205f:	48 83 ec 08          	sub    $0x8,%rsp
  402063:	83 3d be 34 20 00 00 	cmpl   $0x0,0x2034be(%rip)        # 605528 <is_checker>
  40206a:	74 14                	je     402080 <illegalhandler+0x21>
  40206c:	bf c0 35 40 00       	mov    $0x4035c0,%edi
  402071:	e8 5a ec ff ff       	callq  400cd0 <puts@plt>
  402076:	b8 00 00 00 00       	mov    $0x0,%eax
  40207b:	e8 df fb ff ff       	callq  401c5f <check_fail>
  402080:	bf 40 37 40 00       	mov    $0x403740,%edi
  402085:	e8 46 ec ff ff       	callq  400cd0 <puts@plt>
  40208a:	bf 97 35 40 00       	mov    $0x403597,%edi
  40208f:	e8 3c ec ff ff       	callq  400cd0 <puts@plt>
  402094:	be 00 00 00 00       	mov    $0x0,%esi
  402099:	bf 00 00 00 00       	mov    $0x0,%edi
  40209e:	e8 43 fc ff ff       	callq  401ce6 <notify_server>
  4020a3:	bf 01 00 00 00       	mov    $0x1,%edi
  4020a8:	e8 a3 ed ff ff       	callq  400e50 <exit@plt>

00000000004020ad <sigalrmhandler>:
  4020ad:	48 83 ec 08          	sub    $0x8,%rsp
  4020b1:	83 3d 70 34 20 00 00 	cmpl   $0x0,0x203470(%rip)        # 605528 <is_checker>
  4020b8:	74 14                	je     4020ce <sigalrmhandler+0x21>
  4020ba:	bf d4 35 40 00       	mov    $0x4035d4,%edi
  4020bf:	e8 0c ec ff ff       	callq  400cd0 <puts@plt>
  4020c4:	b8 00 00 00 00       	mov    $0x0,%eax
  4020c9:	e8 91 fb ff ff       	callq  401c5f <check_fail>
  4020ce:	ba 05 00 00 00       	mov    $0x5,%edx
  4020d3:	be 70 37 40 00       	mov    $0x403770,%esi
  4020d8:	bf 01 00 00 00       	mov    $0x1,%edi
  4020dd:	b8 00 00 00 00       	mov    $0x0,%eax
  4020e2:	e8 19 ed ff ff       	callq  400e00 <__printf_chk@plt>
  4020e7:	be 00 00 00 00       	mov    $0x0,%esi
  4020ec:	bf 00 00 00 00       	mov    $0x0,%edi
  4020f1:	e8 f0 fb ff ff       	callq  401ce6 <notify_server>
  4020f6:	bf 01 00 00 00       	mov    $0x1,%edi
  4020fb:	e8 50 ed ff ff       	callq  400e50 <exit@plt>

0000000000402100 <launch>:
  402100:	55                   	push   %rbp
  402101:	48 89 e5             	mov    %rsp,%rbp
  402104:	48 83 ec 10          	sub    $0x10,%rsp
  402108:	48 89 fa             	mov    %rdi,%rdx
  40210b:	64 48 8b 04 25 28 00 	mov    %fs:0x28,%rax
  402112:	00 00 
  402114:	48 89 45 f8          	mov    %rax,-0x8(%rbp)
  402118:	31 c0                	xor    %eax,%eax
  40211a:	48 8d 47 1e          	lea    0x1e(%rdi),%rax
  40211e:	48 83 e0 f0          	and    $0xfffffffffffffff0,%rax
  402122:	48 29 c4             	sub    %rax,%rsp
  402125:	48 8d 7c 24 0f       	lea    0xf(%rsp),%rdi
  40212a:	48 83 e7 f0          	and    $0xfffffffffffffff0,%rdi
  40212e:	be f4 00 00 00       	mov    $0xf4,%esi
  402133:	e8 d8 eb ff ff       	callq  400d10 <memset@plt>
  402138:	48 8b 05 81 33 20 00 	mov    0x203381(%rip),%rax        # 6054c0 <stdin@@GLIBC_2.2.5>
  40213f:	48 39 05 ca 33 20 00 	cmp    %rax,0x2033ca(%rip)        # 605510 <infile>
  402146:	75 14                	jne    40215c <launch+0x5c>
  402148:	be dc 35 40 00       	mov    $0x4035dc,%esi
  40214d:	bf 01 00 00 00       	mov    $0x1,%edi
  402152:	b8 00 00 00 00       	mov    $0x0,%eax
  402157:	e8 a4 ec ff ff       	callq  400e00 <__printf_chk@plt>
  40215c:	c7 05 b6 33 20 00 00 	movl   $0x0,0x2033b6(%rip)        # 60551c <vlevel>
  402163:	00 00 00 
  402166:	b8 00 00 00 00       	mov    $0x0,%eax
  40216b:	e8 38 f9 ff ff       	callq  401aa8 <test>
  402170:	83 3d b1 33 20 00 00 	cmpl   $0x0,0x2033b1(%rip)        # 605528 <is_checker>
  402177:	74 14                	je     40218d <launch+0x8d>
  402179:	bf e9 35 40 00       	mov    $0x4035e9,%edi
  40217e:	e8 4d eb ff ff       	callq  400cd0 <puts@plt>
  402183:	b8 00 00 00 00       	mov    $0x0,%eax
  402188:	e8 d2 fa ff ff       	callq  401c5f <check_fail>
  40218d:	bf f4 35 40 00       	mov    $0x4035f4,%edi
  402192:	e8 39 eb ff ff       	callq  400cd0 <puts@plt>
  402197:	48 8b 45 f8          	mov    -0x8(%rbp),%rax
  40219b:	64 48 33 04 25 28 00 	xor    %fs:0x28,%rax
  4021a2:	00 00 
  4021a4:	74 05                	je     4021ab <launch+0xab>
  4021a6:	e8 45 eb ff ff       	callq  400cf0 <__stack_chk_fail@plt>
  4021ab:	c9                   	leaveq 
  4021ac:	c3                   	retq   

00000000004021ad <stable_launch>:
  4021ad:	53                   	push   %rbx
  4021ae:	48 89 3d 53 33 20 00 	mov    %rdi,0x203353(%rip)        # 605508 <global_offset>
  4021b5:	41 b9 00 00 00 00    	mov    $0x0,%r9d
  4021bb:	41 b8 00 00 00 00    	mov    $0x0,%r8d
  4021c1:	b9 32 01 00 00       	mov    $0x132,%ecx
  4021c6:	ba 07 00 00 00       	mov    $0x7,%edx
  4021cb:	be 00 00 10 00       	mov    $0x100000,%esi
  4021d0:	bf 00 60 58 55       	mov    $0x55586000,%edi
  4021d5:	e8 26 eb ff ff       	callq  400d00 <mmap@plt>
  4021da:	48 89 c3             	mov    %rax,%rbx
  4021dd:	48 3d 00 60 58 55    	cmp    $0x55586000,%rax
  4021e3:	74 37                	je     40221c <stable_launch+0x6f>
  4021e5:	be 00 00 10 00       	mov    $0x100000,%esi
  4021ea:	48 89 c7             	mov    %rax,%rdi
  4021ed:	e8 fe eb ff ff       	callq  400df0 <munmap@plt>
  4021f2:	b9 00 60 58 55       	mov    $0x55586000,%ecx
  4021f7:	ba a8 37 40 00       	mov    $0x4037a8,%edx
  4021fc:	be 01 00 00 00       	mov    $0x1,%esi
  402201:	48 8b 3d d8 32 20 00 	mov    0x2032d8(%rip),%rdi        # 6054e0 <stderr@@GLIBC_2.2.5>
  402208:	b8 00 00 00 00       	mov    $0x0,%eax
  40220d:	e8 5e ec ff ff       	callq  400e70 <__fprintf_chk@plt>
  402212:	bf 01 00 00 00       	mov    $0x1,%edi
  402217:	e8 34 ec ff ff       	callq  400e50 <exit@plt>
  40221c:	48 8d 90 f8 ff 0f 00 	lea    0xffff8(%rax),%rdx
  402223:	48 89 15 26 3f 20 00 	mov    %rdx,0x203f26(%rip)        # 606150 <stack_top>
  40222a:	48 89 e0             	mov    %rsp,%rax
  40222d:	48 89 d4             	mov    %rdx,%rsp
  402230:	48 89 c2             	mov    %rax,%rdx
  402233:	48 89 15 c6 32 20 00 	mov    %rdx,0x2032c6(%rip)        # 605500 <global_save_stack>
  40223a:	48 8b 3d c7 32 20 00 	mov    0x2032c7(%rip),%rdi        # 605508 <global_offset>
  402241:	e8 ba fe ff ff       	callq  402100 <launch>
  402246:	48 8b 05 b3 32 20 00 	mov    0x2032b3(%rip),%rax        # 605500 <global_save_stack>
  40224d:	48 89 c4             	mov    %rax,%rsp
  402250:	be 00 00 10 00       	mov    $0x100000,%esi
  402255:	48 89 df             	mov    %rbx,%rdi
  402258:	e8 93 eb ff ff       	callq  400df0 <munmap@plt>
  40225d:	5b                   	pop    %rbx
  40225e:	c3                   	retq   

000000000040225f <rio_readinitb>:
  40225f:	89 37                	mov    %esi,(%rdi)
  402261:	c7 47 04 00 00 00 00 	movl   $0x0,0x4(%rdi)
  402268:	48 8d 47 10          	lea    0x10(%rdi),%rax
  40226c:	48 89 47 08          	mov    %rax,0x8(%rdi)
  402270:	c3                   	retq   

0000000000402271 <sigalrm_handler>:
  402271:	48 83 ec 08          	sub    $0x8,%rsp
  402275:	b9 00 00 00 00       	mov    $0x0,%ecx
  40227a:	ba e0 37 40 00       	mov    $0x4037e0,%edx
  40227f:	be 01 00 00 00       	mov    $0x1,%esi
  402284:	48 8b 3d 55 32 20 00 	mov    0x203255(%rip),%rdi        # 6054e0 <stderr@@GLIBC_2.2.5>
  40228b:	b8 00 00 00 00       	mov    $0x0,%eax
  402290:	e8 db eb ff ff       	callq  400e70 <__fprintf_chk@plt>
  402295:	bf 01 00 00 00       	mov    $0x1,%edi
  40229a:	e8 b1 eb ff ff       	callq  400e50 <exit@plt>

000000000040229f <rio_writen>:
  40229f:	41 55                	push   %r13
  4022a1:	41 54                	push   %r12
  4022a3:	55                   	push   %rbp
  4022a4:	53                   	push   %rbx
  4022a5:	48 83 ec 08          	sub    $0x8,%rsp
  4022a9:	41 89 fc             	mov    %edi,%r12d
  4022ac:	48 89 f5             	mov    %rsi,%rbp
  4022af:	49 89 d5             	mov    %rdx,%r13
  4022b2:	48 89 d3             	mov    %rdx,%rbx
  4022b5:	eb 28                	jmp    4022df <rio_writen+0x40>
  4022b7:	48 89 da             	mov    %rbx,%rdx
  4022ba:	48 89 ee             	mov    %rbp,%rsi
  4022bd:	44 89 e7             	mov    %r12d,%edi
  4022c0:	e8 1b ea ff ff       	callq  400ce0 <write@plt>
  4022c5:	48 85 c0             	test   %rax,%rax
  4022c8:	7f 0f                	jg     4022d9 <rio_writen+0x3a>
  4022ca:	e8 c1 e9 ff ff       	callq  400c90 <__errno_location@plt>
  4022cf:	83 38 04             	cmpl   $0x4,(%rax)
  4022d2:	75 15                	jne    4022e9 <rio_writen+0x4a>
  4022d4:	b8 00 00 00 00       	mov    $0x0,%eax
  4022d9:	48 29 c3             	sub    %rax,%rbx
  4022dc:	48 01 c5             	add    %rax,%rbp
  4022df:	48 85 db             	test   %rbx,%rbx
  4022e2:	75 d3                	jne    4022b7 <rio_writen+0x18>
  4022e4:	4c 89 e8             	mov    %r13,%rax
  4022e7:	eb 07                	jmp    4022f0 <rio_writen+0x51>
  4022e9:	48 c7 c0 ff ff ff ff 	mov    $0xffffffffffffffff,%rax
  4022f0:	48 83 c4 08          	add    $0x8,%rsp
  4022f4:	5b                   	pop    %rbx
  4022f5:	5d                   	pop    %rbp
  4022f6:	41 5c                	pop    %r12
  4022f8:	41 5d                	pop    %r13
  4022fa:	c3                   	retq   

00000000004022fb <rio_read>:
  4022fb:	41 55                	push   %r13
  4022fd:	41 54                	push   %r12
  4022ff:	55                   	push   %rbp
  402300:	53                   	push   %rbx
  402301:	48 83 ec 08          	sub    $0x8,%rsp
  402305:	48 89 fb             	mov    %rdi,%rbx
  402308:	49 89 f5             	mov    %rsi,%r13
  40230b:	49 89 d4             	mov    %rdx,%r12
  40230e:	eb 2e                	jmp    40233e <rio_read+0x43>
  402310:	48 8d 6b 10          	lea    0x10(%rbx),%rbp
  402314:	8b 3b                	mov    (%rbx),%edi
  402316:	ba 00 20 00 00       	mov    $0x2000,%edx
  40231b:	48 89 ee             	mov    %rbp,%rsi
  40231e:	e8 1d ea ff ff       	callq  400d40 <read@plt>
  402323:	89 43 04             	mov    %eax,0x4(%rbx)
  402326:	85 c0                	test   %eax,%eax
  402328:	79 0c                	jns    402336 <rio_read+0x3b>
  40232a:	e8 61 e9 ff ff       	callq  400c90 <__errno_location@plt>
  40232f:	83 38 04             	cmpl   $0x4,(%rax)
  402332:	74 0a                	je     40233e <rio_read+0x43>
  402334:	eb 37                	jmp    40236d <rio_read+0x72>
  402336:	85 c0                	test   %eax,%eax
  402338:	74 3c                	je     402376 <rio_read+0x7b>
  40233a:	48 89 6b 08          	mov    %rbp,0x8(%rbx)
  40233e:	8b 6b 04             	mov    0x4(%rbx),%ebp
  402341:	85 ed                	test   %ebp,%ebp
  402343:	7e cb                	jle    402310 <rio_read+0x15>
  402345:	89 e8                	mov    %ebp,%eax
  402347:	49 39 c4             	cmp    %rax,%r12
  40234a:	77 03                	ja     40234f <rio_read+0x54>
  40234c:	44 89 e5             	mov    %r12d,%ebp
  40234f:	4c 63 e5             	movslq %ebp,%r12
  402352:	48 8b 73 08          	mov    0x8(%rbx),%rsi
  402356:	4c 89 e2             	mov    %r12,%rdx
  402359:	4c 89 ef             	mov    %r13,%rdi
  40235c:	e8 3f ea ff ff       	callq  400da0 <memcpy@plt>
  402361:	4c 01 63 08          	add    %r12,0x8(%rbx)
  402365:	29 6b 04             	sub    %ebp,0x4(%rbx)
  402368:	4c 89 e0             	mov    %r12,%rax
  40236b:	eb 0e                	jmp    40237b <rio_read+0x80>
  40236d:	48 c7 c0 ff ff ff ff 	mov    $0xffffffffffffffff,%rax
  402374:	eb 05                	jmp    40237b <rio_read+0x80>
  402376:	b8 00 00 00 00       	mov    $0x0,%eax
  40237b:	48 83 c4 08          	add    $0x8,%rsp
  40237f:	5b                   	pop    %rbx
  402380:	5d                   	pop    %rbp
  402381:	41 5c                	pop    %r12
  402383:	41 5d                	pop    %r13
  402385:	c3                   	retq   

0000000000402386 <rio_readlineb>:
  402386:	41 55                	push   %r13
  402388:	41 54                	push   %r12
  40238a:	55                   	push   %rbp
  40238b:	53                   	push   %rbx
  40238c:	48 83 ec 18          	sub    $0x18,%rsp
  402390:	49 89 fd             	mov    %rdi,%r13
  402393:	48 89 f5             	mov    %rsi,%rbp
  402396:	49 89 d4             	mov    %rdx,%r12
  402399:	64 48 8b 04 25 28 00 	mov    %fs:0x28,%rax
  4023a0:	00 00 
  4023a2:	48 89 44 24 08       	mov    %rax,0x8(%rsp)
  4023a7:	31 c0                	xor    %eax,%eax
  4023a9:	bb 01 00 00 00       	mov    $0x1,%ebx
  4023ae:	eb 3f                	jmp    4023ef <rio_readlineb+0x69>
  4023b0:	ba 01 00 00 00       	mov    $0x1,%edx
  4023b5:	48 8d 74 24 07       	lea    0x7(%rsp),%rsi
  4023ba:	4c 89 ef             	mov    %r13,%rdi
  4023bd:	e8 39 ff ff ff       	callq  4022fb <rio_read>
  4023c2:	83 f8 01             	cmp    $0x1,%eax
  4023c5:	75 15                	jne    4023dc <rio_readlineb+0x56>
  4023c7:	48 8d 45 01          	lea    0x1(%rbp),%rax
  4023cb:	0f b6 54 24 07       	movzbl 0x7(%rsp),%edx
  4023d0:	88 55 00             	mov    %dl,0x0(%rbp)
  4023d3:	80 7c 24 07 0a       	cmpb   $0xa,0x7(%rsp)
  4023d8:	75 0e                	jne    4023e8 <rio_readlineb+0x62>
  4023da:	eb 1a                	jmp    4023f6 <rio_readlineb+0x70>
  4023dc:	85 c0                	test   %eax,%eax
  4023de:	75 22                	jne    402402 <rio_readlineb+0x7c>
  4023e0:	48 83 fb 01          	cmp    $0x1,%rbx
  4023e4:	75 13                	jne    4023f9 <rio_readlineb+0x73>
  4023e6:	eb 23                	jmp    40240b <rio_readlineb+0x85>
  4023e8:	48 83 c3 01          	add    $0x1,%rbx
  4023ec:	48 89 c5             	mov    %rax,%rbp
  4023ef:	4c 39 e3             	cmp    %r12,%rbx
  4023f2:	72 bc                	jb     4023b0 <rio_readlineb+0x2a>
  4023f4:	eb 03                	jmp    4023f9 <rio_readlineb+0x73>
  4023f6:	48 89 c5             	mov    %rax,%rbp
  4023f9:	c6 45 00 00          	movb   $0x0,0x0(%rbp)
  4023fd:	48 89 d8             	mov    %rbx,%rax
  402400:	eb 0e                	jmp    402410 <rio_readlineb+0x8a>
  402402:	48 c7 c0 ff ff ff ff 	mov    $0xffffffffffffffff,%rax
  402409:	eb 05                	jmp    402410 <rio_readlineb+0x8a>
  40240b:	b8 00 00 00 00       	mov    $0x0,%eax
  402410:	48 8b 4c 24 08       	mov    0x8(%rsp),%rcx
  402415:	64 48 33 0c 25 28 00 	xor    %fs:0x28,%rcx
  40241c:	00 00 
  40241e:	74 05                	je     402425 <rio_readlineb+0x9f>
  402420:	e8 cb e8 ff ff       	callq  400cf0 <__stack_chk_fail@plt>
  402425:	48 83 c4 18          	add    $0x18,%rsp
  402429:	5b                   	pop    %rbx
  40242a:	5d                   	pop    %rbp
  40242b:	41 5c                	pop    %r12
  40242d:	41 5d                	pop    %r13
  40242f:	c3                   	retq   

0000000000402430 <urlencode>:
  402430:	41 54                	push   %r12
  402432:	55                   	push   %rbp
  402433:	53                   	push   %rbx
  402434:	48 83 ec 10          	sub    $0x10,%rsp
  402438:	48 89 fb             	mov    %rdi,%rbx
  40243b:	48 89 f5             	mov    %rsi,%rbp
  40243e:	64 48 8b 04 25 28 00 	mov    %fs:0x28,%rax
  402445:	00 00 
  402447:	48 89 44 24 08       	mov    %rax,0x8(%rsp)
  40244c:	31 c0                	xor    %eax,%eax
  40244e:	48 c7 c1 ff ff ff ff 	mov    $0xffffffffffffffff,%rcx
  402455:	f2 ae                	repnz scas %es:(%rdi),%al
  402457:	48 f7 d1             	not    %rcx
  40245a:	8d 41 ff             	lea    -0x1(%rcx),%eax
  40245d:	e9 aa 00 00 00       	jmpq   40250c <urlencode+0xdc>
  402462:	44 0f b6 03          	movzbl (%rbx),%r8d
  402466:	41 80 f8 2a          	cmp    $0x2a,%r8b
  40246a:	0f 94 c2             	sete   %dl
  40246d:	41 80 f8 2d          	cmp    $0x2d,%r8b
  402471:	0f 94 c0             	sete   %al
  402474:	08 c2                	or     %al,%dl
  402476:	75 24                	jne    40249c <urlencode+0x6c>
  402478:	41 80 f8 2e          	cmp    $0x2e,%r8b
  40247c:	74 1e                	je     40249c <urlencode+0x6c>
  40247e:	41 80 f8 5f          	cmp    $0x5f,%r8b
  402482:	74 18                	je     40249c <urlencode+0x6c>
  402484:	41 8d 40 d0          	lea    -0x30(%r8),%eax
  402488:	3c 09                	cmp    $0x9,%al
  40248a:	76 10                	jbe    40249c <urlencode+0x6c>
  40248c:	41 8d 40 bf          	lea    -0x41(%r8),%eax
  402490:	3c 19                	cmp    $0x19,%al
  402492:	76 08                	jbe    40249c <urlencode+0x6c>
  402494:	41 8d 40 9f          	lea    -0x61(%r8),%eax
  402498:	3c 19                	cmp    $0x19,%al
  40249a:	77 0a                	ja     4024a6 <urlencode+0x76>
  40249c:	44 88 45 00          	mov    %r8b,0x0(%rbp)
  4024a0:	48 8d 6d 01          	lea    0x1(%rbp),%rbp
  4024a4:	eb 5f                	jmp    402505 <urlencode+0xd5>
  4024a6:	41 80 f8 20          	cmp    $0x20,%r8b
  4024aa:	75 0a                	jne    4024b6 <urlencode+0x86>
  4024ac:	c6 45 00 2b          	movb   $0x2b,0x0(%rbp)
  4024b0:	48 8d 6d 01          	lea    0x1(%rbp),%rbp
  4024b4:	eb 4f                	jmp    402505 <urlencode+0xd5>
  4024b6:	41 8d 40 e0          	lea    -0x20(%r8),%eax
  4024ba:	3c 5f                	cmp    $0x5f,%al
  4024bc:	0f 96 c2             	setbe  %dl
  4024bf:	41 80 f8 09          	cmp    $0x9,%r8b
  4024c3:	0f 94 c0             	sete   %al
  4024c6:	08 c2                	or     %al,%dl
  4024c8:	74 50                	je     40251a <urlencode+0xea>
  4024ca:	45 0f b6 c0          	movzbl %r8b,%r8d
  4024ce:	b9 78 38 40 00       	mov    $0x403878,%ecx
  4024d3:	ba 08 00 00 00       	mov    $0x8,%edx
  4024d8:	be 01 00 00 00       	mov    $0x1,%esi
  4024dd:	48 89 e7             	mov    %rsp,%rdi
  4024e0:	b8 00 00 00 00       	mov    $0x0,%eax
  4024e5:	e8 96 e9 ff ff       	callq  400e80 <__sprintf_chk@plt>
  4024ea:	0f b6 04 24          	movzbl (%rsp),%eax
  4024ee:	88 45 00             	mov    %al,0x0(%rbp)
  4024f1:	0f b6 44 24 01       	movzbl 0x1(%rsp),%eax
  4024f6:	88 45 01             	mov    %al,0x1(%rbp)
  4024f9:	0f b6 44 24 02       	movzbl 0x2(%rsp),%eax
  4024fe:	88 45 02             	mov    %al,0x2(%rbp)
  402501:	48 8d 6d 03          	lea    0x3(%rbp),%rbp
  402505:	48 83 c3 01          	add    $0x1,%rbx
  402509:	44 89 e0             	mov    %r12d,%eax
  40250c:	44 8d 60 ff          	lea    -0x1(%rax),%r12d
  402510:	85 c0                	test   %eax,%eax
  402512:	0f 85 4a ff ff ff    	jne    402462 <urlencode+0x32>
  402518:	eb 05                	jmp    40251f <urlencode+0xef>
  40251a:	b8 ff ff ff ff       	mov    $0xffffffff,%eax
  40251f:	48 8b 74 24 08       	mov    0x8(%rsp),%rsi
  402524:	64 48 33 34 25 28 00 	xor    %fs:0x28,%rsi
  40252b:	00 00 
  40252d:	74 05                	je     402534 <urlencode+0x104>
  40252f:	e8 bc e7 ff ff       	callq  400cf0 <__stack_chk_fail@plt>
  402534:	48 83 c4 10          	add    $0x10,%rsp
  402538:	5b                   	pop    %rbx
  402539:	5d                   	pop    %rbp
  40253a:	41 5c                	pop    %r12
  40253c:	c3                   	retq   

000000000040253d <submitr>:
  40253d:	41 57                	push   %r15
  40253f:	41 56                	push   %r14
  402541:	41 55                	push   %r13
  402543:	41 54                	push   %r12
  402545:	55                   	push   %rbp
  402546:	53                   	push   %rbx
  402547:	48 81 ec 58 a0 00 00 	sub    $0xa058,%rsp
  40254e:	49 89 fc             	mov    %rdi,%r12
  402551:	89 74 24 04          	mov    %esi,0x4(%rsp)
  402555:	49 89 d7             	mov    %rdx,%r15
  402558:	49 89 ce             	mov    %rcx,%r14
  40255b:	4c 89 44 24 08       	mov    %r8,0x8(%rsp)
  402560:	4d 89 cd             	mov    %r9,%r13
  402563:	48 8b 9c 24 90 a0 00 	mov    0xa090(%rsp),%rbx
  40256a:	00 
  40256b:	64 48 8b 04 25 28 00 	mov    %fs:0x28,%rax
  402572:	00 00 
  402574:	48 89 84 24 48 a0 00 	mov    %rax,0xa048(%rsp)
  40257b:	00 
  40257c:	31 c0                	xor    %eax,%eax
  40257e:	c7 44 24 1c 00 00 00 	movl   $0x0,0x1c(%rsp)
  402585:	00 
  402586:	ba 00 00 00 00       	mov    $0x0,%edx
  40258b:	be 01 00 00 00       	mov    $0x1,%esi
  402590:	bf 02 00 00 00       	mov    $0x2,%edi
  402595:	e8 f6 e8 ff ff       	callq  400e90 <socket@plt>
  40259a:	85 c0                	test   %eax,%eax
  40259c:	79 4e                	jns    4025ec <submitr+0xaf>
  40259e:	48 b8 45 72 72 6f 72 	movabs $0x43203a726f727245,%rax
  4025a5:	3a 20 43 
  4025a8:	48 89 03             	mov    %rax,(%rbx)
  4025ab:	48 b8 6c 69 65 6e 74 	movabs $0x6e7520746e65696c,%rax
  4025b2:	20 75 6e 
  4025b5:	48 89 43 08          	mov    %rax,0x8(%rbx)
  4025b9:	48 b8 61 62 6c 65 20 	movabs $0x206f7420656c6261,%rax
  4025c0:	74 6f 20 
  4025c3:	48 89 43 10          	mov    %rax,0x10(%rbx)
  4025c7:	48 b8 63 72 65 61 74 	movabs $0x7320657461657263,%rax
  4025ce:	65 20 73 
  4025d1:	48 89 43 18          	mov    %rax,0x18(%rbx)
  4025d5:	c7 43 20 6f 63 6b 65 	movl   $0x656b636f,0x20(%rbx)
  4025dc:	66 c7 43 24 74 00    	movw   $0x74,0x24(%rbx)
  4025e2:	b8 ff ff ff ff       	mov    $0xffffffff,%eax
  4025e7:	e9 97 06 00 00       	jmpq   402c83 <submitr+0x746>
  4025ec:	89 c5                	mov    %eax,%ebp
  4025ee:	4c 89 e7             	mov    %r12,%rdi
  4025f1:	e8 7a e7 ff ff       	callq  400d70 <gethostbyname@plt>
  4025f6:	48 85 c0             	test   %rax,%rax
  4025f9:	75 67                	jne    402662 <submitr+0x125>
  4025fb:	48 b8 45 72 72 6f 72 	movabs $0x44203a726f727245,%rax
  402602:	3a 20 44 
  402605:	48 89 03             	mov    %rax,(%rbx)
  402608:	48 b8 4e 53 20 69 73 	movabs $0x6e7520736920534e,%rax
  40260f:	20 75 6e 
  402612:	48 89 43 08          	mov    %rax,0x8(%rbx)
  402616:	48 b8 61 62 6c 65 20 	movabs $0x206f7420656c6261,%rax
  40261d:	74 6f 20 
  402620:	48 89 43 10          	mov    %rax,0x10(%rbx)
  402624:	48 b8 72 65 73 6f 6c 	movabs $0x2065766c6f736572,%rax
  40262b:	76 65 20 
  40262e:	48 89 43 18          	mov    %rax,0x18(%rbx)
  402632:	48 b8 73 65 72 76 65 	movabs $0x6120726576726573,%rax
  402639:	72 20 61 
  40263c:	48 89 43 20          	mov    %rax,0x20(%rbx)
  402640:	c7 43 28 64 64 72 65 	movl   $0x65726464,0x28(%rbx)
  402647:	66 c7 43 2c 73 73    	movw   $0x7373,0x2c(%rbx)
  40264d:	c6 43 2e 00          	movb   $0x0,0x2e(%rbx)
  402651:	89 ef                	mov    %ebp,%edi
  402653:	e8 d8 e6 ff ff       	callq  400d30 <close@plt>
  402658:	b8 ff ff ff ff       	mov    $0xffffffff,%eax
  40265d:	e9 21 06 00 00       	jmpq   402c83 <submitr+0x746>
  402662:	48 c7 44 24 20 00 00 	movq   $0x0,0x20(%rsp)
  402669:	00 00 
  40266b:	48 c7 44 24 28 00 00 	movq   $0x0,0x28(%rsp)
  402672:	00 00 
  402674:	66 c7 44 24 20 02 00 	movw   $0x2,0x20(%rsp)
  40267b:	48 63 50 14          	movslq 0x14(%rax),%rdx
  40267f:	48 8b 40 18          	mov    0x18(%rax),%rax
  402683:	48 8b 30             	mov    (%rax),%rsi
  402686:	48 8d 7c 24 24       	lea    0x24(%rsp),%rdi
  40268b:	b9 0c 00 00 00       	mov    $0xc,%ecx
  402690:	e8 eb e6 ff ff       	callq  400d80 <__memmove_chk@plt>
  402695:	0f b7 44 24 04       	movzwl 0x4(%rsp),%eax
  40269a:	66 c1 c8 08          	ror    $0x8,%ax
  40269e:	66 89 44 24 22       	mov    %ax,0x22(%rsp)
  4026a3:	ba 10 00 00 00       	mov    $0x10,%edx
  4026a8:	48 8d 74 24 20       	lea    0x20(%rsp),%rsi
  4026ad:	89 ef                	mov    %ebp,%edi
  4026af:	e8 ac e7 ff ff       	callq  400e60 <connect@plt>
  4026b4:	85 c0                	test   %eax,%eax
  4026b6:	79 59                	jns    402711 <submitr+0x1d4>
  4026b8:	48 b8 45 72 72 6f 72 	movabs $0x55203a726f727245,%rax
  4026bf:	3a 20 55 
  4026c2:	48 89 03             	mov    %rax,(%rbx)
  4026c5:	48 b8 6e 61 62 6c 65 	movabs $0x6f7420656c62616e,%rax
  4026cc:	20 74 6f 
  4026cf:	48 89 43 08          	mov    %rax,0x8(%rbx)
  4026d3:	48 b8 20 63 6f 6e 6e 	movabs $0x7463656e6e6f6320,%rax
  4026da:	65 63 74 
  4026dd:	48 89 43 10          	mov    %rax,0x10(%rbx)
  4026e1:	48 b8 20 74 6f 20 74 	movabs $0x20656874206f7420,%rax
  4026e8:	68 65 20 
  4026eb:	48 89 43 18          	mov    %rax,0x18(%rbx)
  4026ef:	c7 43 20 73 65 72 76 	movl   $0x76726573,0x20(%rbx)
  4026f6:	66 c7 43 24 65 72    	movw   $0x7265,0x24(%rbx)
  4026fc:	c6 43 26 00          	movb   $0x0,0x26(%rbx)
  402700:	89 ef                	mov    %ebp,%edi
  402702:	e8 29 e6 ff ff       	callq  400d30 <close@plt>
  402707:	b8 ff ff ff ff       	mov    $0xffffffff,%eax
  40270c:	e9 72 05 00 00       	jmpq   402c83 <submitr+0x746>
  402711:	48 c7 c6 ff ff ff ff 	mov    $0xffffffffffffffff,%rsi
  402718:	b8 00 00 00 00       	mov    $0x0,%eax
  40271d:	48 89 f1             	mov    %rsi,%rcx
  402720:	4c 89 ef             	mov    %r13,%rdi
  402723:	f2 ae                	repnz scas %es:(%rdi),%al
  402725:	48 f7 d1             	not    %rcx
  402728:	48 89 ca             	mov    %rcx,%rdx
  40272b:	48 89 f1             	mov    %rsi,%rcx
  40272e:	4c 89 ff             	mov    %r15,%rdi
  402731:	f2 ae                	repnz scas %es:(%rdi),%al
  402733:	48 f7 d1             	not    %rcx
  402736:	49 89 c8             	mov    %rcx,%r8
  402739:	48 89 f1             	mov    %rsi,%rcx
  40273c:	4c 89 f7             	mov    %r14,%rdi
  40273f:	f2 ae                	repnz scas %es:(%rdi),%al
  402741:	48 f7 d1             	not    %rcx
  402744:	4d 8d 44 08 fe       	lea    -0x2(%r8,%rcx,1),%r8
  402749:	48 89 f1             	mov    %rsi,%rcx
  40274c:	48 8b 7c 24 08       	mov    0x8(%rsp),%rdi
  402751:	f2 ae                	repnz scas %es:(%rdi),%al
  402753:	48 89 c8             	mov    %rcx,%rax
  402756:	48 f7 d0             	not    %rax
  402759:	49 8d 4c 00 ff       	lea    -0x1(%r8,%rax,1),%rcx
  40275e:	48 8d 44 52 fd       	lea    -0x3(%rdx,%rdx,2),%rax
  402763:	48 8d 84 01 80 00 00 	lea    0x80(%rcx,%rax,1),%rax
  40276a:	00 
  40276b:	48 3d 00 20 00 00    	cmp    $0x2000,%rax
  402771:	76 72                	jbe    4027e5 <submitr+0x2a8>
  402773:	48 b8 45 72 72 6f 72 	movabs $0x52203a726f727245,%rax
  40277a:	3a 20 52 
  40277d:	48 89 03             	mov    %rax,(%rbx)
  402780:	48 b8 65 73 75 6c 74 	movabs $0x747320746c757365,%rax
  402787:	20 73 74 
  40278a:	48 89 43 08          	mov    %rax,0x8(%rbx)
  40278e:	48 b8 72 69 6e 67 20 	movabs $0x6f6f7420676e6972,%rax
  402795:	74 6f 6f 
  402798:	48 89 43 10          	mov    %rax,0x10(%rbx)
  40279c:	48 b8 20 6c 61 72 67 	movabs $0x202e656772616c20,%rax
  4027a3:	65 2e 20 
  4027a6:	48 89 43 18          	mov    %rax,0x18(%rbx)
  4027aa:	48 b8 49 6e 63 72 65 	movabs $0x6573616572636e49,%rax
  4027b1:	61 73 65 
  4027b4:	48 89 43 20          	mov    %rax,0x20(%rbx)
  4027b8:	48 b8 20 53 55 42 4d 	movabs $0x5254494d42555320,%rax
  4027bf:	49 54 52 
  4027c2:	48 89 43 28          	mov    %rax,0x28(%rbx)
  4027c6:	48 b8 5f 4d 41 58 42 	movabs $0x46554258414d5f,%rax
  4027cd:	55 46 00 
  4027d0:	48 89 43 30          	mov    %rax,0x30(%rbx)
  4027d4:	89 ef                	mov    %ebp,%edi
  4027d6:	e8 55 e5 ff ff       	callq  400d30 <close@plt>
  4027db:	b8 ff ff ff ff       	mov    $0xffffffff,%eax
  4027e0:	e9 9e 04 00 00       	jmpq   402c83 <submitr+0x746>
  4027e5:	48 8d b4 24 40 40 00 	lea    0x4040(%rsp),%rsi
  4027ec:	00 
  4027ed:	b9 00 04 00 00       	mov    $0x400,%ecx
  4027f2:	b8 00 00 00 00       	mov    $0x0,%eax
  4027f7:	48 89 f7             	mov    %rsi,%rdi
  4027fa:	f3 48 ab             	rep stos %rax,%es:(%rdi)
  4027fd:	4c 89 ef             	mov    %r13,%rdi
  402800:	e8 2b fc ff ff       	callq  402430 <urlencode>
  402805:	85 c0                	test   %eax,%eax
  402807:	0f 89 8a 00 00 00    	jns    402897 <submitr+0x35a>
  40280d:	48 b8 45 72 72 6f 72 	movabs $0x52203a726f727245,%rax
  402814:	3a 20 52 
  402817:	48 89 03             	mov    %rax,(%rbx)
  40281a:	48 b8 65 73 75 6c 74 	movabs $0x747320746c757365,%rax
  402821:	20 73 74 
  402824:	48 89 43 08          	mov    %rax,0x8(%rbx)
  402828:	48 b8 72 69 6e 67 20 	movabs $0x6e6f6320676e6972,%rax
  40282f:	63 6f 6e 
  402832:	48 89 43 10          	mov    %rax,0x10(%rbx)
  402836:	48 b8 74 61 69 6e 73 	movabs $0x6e6120736e696174,%rax
  40283d:	20 61 6e 
  402840:	48 89 43 18          	mov    %rax,0x18(%rbx)
  402844:	48 b8 20 69 6c 6c 65 	movabs $0x6c6167656c6c6920,%rax
  40284b:	67 61 6c 
  40284e:	48 89 43 20          	mov    %rax,0x20(%rbx)
  402852:	48 b8 20 6f 72 20 75 	movabs $0x72706e7520726f20,%rax
  402859:	6e 70 72 
  40285c:	48 89 43 28          	mov    %rax,0x28(%rbx)
  402860:	48 b8 69 6e 74 61 62 	movabs $0x20656c6261746e69,%rax
  402867:	6c 65 20 
  40286a:	48 89 43 30          	mov    %rax,0x30(%rbx)
  40286e:	48 b8 63 68 61 72 61 	movabs $0x6574636172616863,%rax
  402875:	63 74 65 
  402878:	48 89 43 38          	mov    %rax,0x38(%rbx)
  40287c:	66 c7 43 40 72 2e    	movw   $0x2e72,0x40(%rbx)
  402882:	c6 43 42 00          	movb   $0x0,0x42(%rbx)
  402886:	89 ef                	mov    %ebp,%edi
  402888:	e8 a3 e4 ff ff       	callq  400d30 <close@plt>
  40288d:	b8 ff ff ff ff       	mov    $0xffffffff,%eax
  402892:	e9 ec 03 00 00       	jmpq   402c83 <submitr+0x746>
  402897:	4c 8d ac 24 40 20 00 	lea    0x2040(%rsp),%r13
  40289e:	00 
  40289f:	41 54                	push   %r12
  4028a1:	48 8d 84 24 48 40 00 	lea    0x4048(%rsp),%rax
  4028a8:	00 
  4028a9:	50                   	push   %rax
  4028aa:	4d 89 f9             	mov    %r15,%r9
  4028ad:	4d 89 f0             	mov    %r14,%r8
  4028b0:	b9 08 38 40 00       	mov    $0x403808,%ecx
  4028b5:	ba 00 20 00 00       	mov    $0x2000,%edx
  4028ba:	be 01 00 00 00       	mov    $0x1,%esi
  4028bf:	4c 89 ef             	mov    %r13,%rdi
  4028c2:	b8 00 00 00 00       	mov    $0x0,%eax
  4028c7:	e8 b4 e5 ff ff       	callq  400e80 <__sprintf_chk@plt>
  4028cc:	b8 00 00 00 00       	mov    $0x0,%eax
  4028d1:	48 c7 c1 ff ff ff ff 	mov    $0xffffffffffffffff,%rcx
  4028d8:	4c 89 ef             	mov    %r13,%rdi
  4028db:	f2 ae                	repnz scas %es:(%rdi),%al
  4028dd:	48 f7 d1             	not    %rcx
  4028e0:	48 8d 51 ff          	lea    -0x1(%rcx),%rdx
  4028e4:	4c 89 ee             	mov    %r13,%rsi
  4028e7:	89 ef                	mov    %ebp,%edi
  4028e9:	e8 b1 f9 ff ff       	callq  40229f <rio_writen>
  4028ee:	48 83 c4 10          	add    $0x10,%rsp
  4028f2:	48 85 c0             	test   %rax,%rax
  4028f5:	79 6e                	jns    402965 <submitr+0x428>
  4028f7:	48 b8 45 72 72 6f 72 	movabs $0x43203a726f727245,%rax
  4028fe:	3a 20 43 
  402901:	48 89 03             	mov    %rax,(%rbx)
  402904:	48 b8 6c 69 65 6e 74 	movabs $0x6e7520746e65696c,%rax
  40290b:	20 75 6e 
  40290e:	48 89 43 08          	mov    %rax,0x8(%rbx)
  402912:	48 b8 61 62 6c 65 20 	movabs $0x206f7420656c6261,%rax
  402919:	74 6f 20 
  40291c:	48 89 43 10          	mov    %rax,0x10(%rbx)
  402920:	48 b8 77 72 69 74 65 	movabs $0x6f74206574697277,%rax
  402927:	20 74 6f 
  40292a:	48 89 43 18          	mov    %rax,0x18(%rbx)
  40292e:	48 b8 20 74 68 65 20 	movabs $0x7365722065687420,%rax
  402935:	72 65 73 
  402938:	48 89 43 20          	mov    %rax,0x20(%rbx)
  40293c:	48 b8 75 6c 74 20 73 	movabs $0x7672657320746c75,%rax
  402943:	65 72 76 
  402946:	48 89 43 28          	mov    %rax,0x28(%rbx)
  40294a:	66 c7 43 30 65 72    	movw   $0x7265,0x30(%rbx)
  402950:	c6 43 32 00          	movb   $0x0,0x32(%rbx)
  402954:	89 ef                	mov    %ebp,%edi
  402956:	e8 d5 e3 ff ff       	callq  400d30 <close@plt>
  40295b:	b8 ff ff ff ff       	mov    $0xffffffff,%eax
  402960:	e9 1e 03 00 00       	jmpq   402c83 <submitr+0x746>
  402965:	89 ee                	mov    %ebp,%esi
  402967:	48 8d 7c 24 30       	lea    0x30(%rsp),%rdi
  40296c:	e8 ee f8 ff ff       	callq  40225f <rio_readinitb>
  402971:	ba 00 20 00 00       	mov    $0x2000,%edx
  402976:	48 8d b4 24 40 20 00 	lea    0x2040(%rsp),%rsi
  40297d:	00 
  40297e:	48 8d 7c 24 30       	lea    0x30(%rsp),%rdi
  402983:	e8 fe f9 ff ff       	callq  402386 <rio_readlineb>
  402988:	48 85 c0             	test   %rax,%rax
  40298b:	7f 7d                	jg     402a0a <submitr+0x4cd>
  40298d:	48 b8 45 72 72 6f 72 	movabs $0x43203a726f727245,%rax
  402994:	3a 20 43 
  402997:	48 89 03             	mov    %rax,(%rbx)
  40299a:	48 b8 6c 69 65 6e 74 	movabs $0x6e7520746e65696c,%rax
  4029a1:	20 75 6e 
  4029a4:	48 89 43 08          	mov    %rax,0x8(%rbx)
  4029a8:	48 b8 61 62 6c 65 20 	movabs $0x206f7420656c6261,%rax
  4029af:	74 6f 20 
  4029b2:	48 89 43 10          	mov    %rax,0x10(%rbx)
  4029b6:	48 b8 72 65 61 64 20 	movabs $0x7269662064616572,%rax
  4029bd:	66 69 72 
  4029c0:	48 89 43 18          	mov    %rax,0x18(%rbx)
  4029c4:	48 b8 73 74 20 68 65 	movabs $0x6564616568207473,%rax
  4029cb:	61 64 65 
  4029ce:	48 89 43 20          	mov    %rax,0x20(%rbx)
  4029d2:	48 b8 72 20 66 72 6f 	movabs $0x72206d6f72662072,%rax
  4029d9:	6d 20 72 
  4029dc:	48 89 43 28          	mov    %rax,0x28(%rbx)
  4029e0:	48 b8 65 73 75 6c 74 	movabs $0x657320746c757365,%rax
  4029e7:	20 73 65 
  4029ea:	48 89 43 30          	mov    %rax,0x30(%rbx)
  4029ee:	c7 43 38 72 76 65 72 	movl   $0x72657672,0x38(%rbx)
  4029f5:	c6 43 3c 00          	movb   $0x0,0x3c(%rbx)
  4029f9:	89 ef                	mov    %ebp,%edi
  4029fb:	e8 30 e3 ff ff       	callq  400d30 <close@plt>
  402a00:	b8 ff ff ff ff       	mov    $0xffffffff,%eax
  402a05:	e9 79 02 00 00       	jmpq   402c83 <submitr+0x746>
  402a0a:	4c 8d 84 24 40 80 00 	lea    0x8040(%rsp),%r8
  402a11:	00 
  402a12:	48 8d 4c 24 1c       	lea    0x1c(%rsp),%rcx
  402a17:	48 8d 94 24 40 60 00 	lea    0x6040(%rsp),%rdx
  402a1e:	00 
  402a1f:	be 7f 38 40 00       	mov    $0x40387f,%esi
  402a24:	48 8d bc 24 40 20 00 	lea    0x2040(%rsp),%rdi
  402a2b:	00 
  402a2c:	b8 00 00 00 00       	mov    $0x0,%eax
  402a31:	e8 aa e3 ff ff       	callq  400de0 <__isoc99_sscanf@plt>
  402a36:	e9 95 00 00 00       	jmpq   402ad0 <submitr+0x593>
  402a3b:	ba 00 20 00 00       	mov    $0x2000,%edx
  402a40:	48 8d b4 24 40 20 00 	lea    0x2040(%rsp),%rsi
  402a47:	00 
  402a48:	48 8d 7c 24 30       	lea    0x30(%rsp),%rdi
  402a4d:	e8 34 f9 ff ff       	callq  402386 <rio_readlineb>
  402a52:	48 85 c0             	test   %rax,%rax
  402a55:	7f 79                	jg     402ad0 <submitr+0x593>
  402a57:	48 b8 45 72 72 6f 72 	movabs $0x43203a726f727245,%rax
  402a5e:	3a 20 43 
  402a61:	48 89 03             	mov    %rax,(%rbx)
  402a64:	48 b8 6c 69 65 6e 74 	movabs $0x6e7520746e65696c,%rax
  402a6b:	20 75 6e 
  402a6e:	48 89 43 08          	mov    %rax,0x8(%rbx)
  402a72:	48 b8 61 62 6c 65 20 	movabs $0x206f7420656c6261,%rax
  402a79:	74 6f 20 
  402a7c:	48 89 43 10          	mov    %rax,0x10(%rbx)
  402a80:	48 b8 72 65 61 64 20 	movabs $0x6165682064616572,%rax
  402a87:	68 65 61 
  402a8a:	48 89 43 18          	mov    %rax,0x18(%rbx)
  402a8e:	48 b8 64 65 72 73 20 	movabs $0x6f72662073726564,%rax
  402a95:	66 72 6f 
  402a98:	48 89 43 20          	mov    %rax,0x20(%rbx)
  402a9c:	48 b8 6d 20 74 68 65 	movabs $0x657220656874206d,%rax
  402aa3:	20 72 65 
  402aa6:	48 89 43 28          	mov    %rax,0x28(%rbx)
  402aaa:	48 b8 73 75 6c 74 20 	movabs $0x72657320746c7573,%rax
  402ab1:	73 65 72 
  402ab4:	48 89 43 30          	mov    %rax,0x30(%rbx)
  402ab8:	c7 43 38 76 65 72 00 	movl   $0x726576,0x38(%rbx)
  402abf:	89 ef                	mov    %ebp,%edi
  402ac1:	e8 6a e2 ff ff       	callq  400d30 <close@plt>
  402ac6:	b8 ff ff ff ff       	mov    $0xffffffff,%eax
  402acb:	e9 b3 01 00 00       	jmpq   402c83 <submitr+0x746>
  402ad0:	0f b6 94 24 40 20 00 	movzbl 0x2040(%rsp),%edx
  402ad7:	00 
  402ad8:	b8 0d 00 00 00       	mov    $0xd,%eax
  402add:	29 d0                	sub    %edx,%eax
  402adf:	75 1b                	jne    402afc <submitr+0x5bf>
  402ae1:	0f b6 94 24 41 20 00 	movzbl 0x2041(%rsp),%edx
  402ae8:	00 
  402ae9:	b8 0a 00 00 00       	mov    $0xa,%eax
  402aee:	29 d0                	sub    %edx,%eax
  402af0:	75 0a                	jne    402afc <submitr+0x5bf>
  402af2:	0f b6 84 24 42 20 00 	movzbl 0x2042(%rsp),%eax
  402af9:	00 
  402afa:	f7 d8                	neg    %eax
  402afc:	85 c0                	test   %eax,%eax
  402afe:	0f 85 37 ff ff ff    	jne    402a3b <submitr+0x4fe>
  402b04:	ba 00 20 00 00       	mov    $0x2000,%edx
  402b09:	48 8d b4 24 40 20 00 	lea    0x2040(%rsp),%rsi
  402b10:	00 
  402b11:	48 8d 7c 24 30       	lea    0x30(%rsp),%rdi
  402b16:	e8 6b f8 ff ff       	callq  402386 <rio_readlineb>
  402b1b:	48 85 c0             	test   %rax,%rax
  402b1e:	0f 8f 83 00 00 00    	jg     402ba7 <submitr+0x66a>
  402b24:	48 b8 45 72 72 6f 72 	movabs $0x43203a726f727245,%rax
  402b2b:	3a 20 43 
  402b2e:	48 89 03             	mov    %rax,(%rbx)
  402b31:	48 b8 6c 69 65 6e 74 	movabs $0x6e7520746e65696c,%rax
  402b38:	20 75 6e 
  402b3b:	48 89 43 08          	mov    %rax,0x8(%rbx)
  402b3f:	48 b8 61 62 6c 65 20 	movabs $0x206f7420656c6261,%rax
  402b46:	74 6f 20 
  402b49:	48 89 43 10          	mov    %rax,0x10(%rbx)
  402b4d:	48 b8 72 65 61 64 20 	movabs $0x6174732064616572,%rax
  402b54:	73 74 61 
  402b57:	48 89 43 18          	mov    %rax,0x18(%rbx)
  402b5b:	48 b8 74 75 73 20 6d 	movabs $0x7373656d20737574,%rax
  402b62:	65 73 73 
  402b65:	48 89 43 20          	mov    %rax,0x20(%rbx)
  402b69:	48 b8 61 67 65 20 66 	movabs $0x6d6f726620656761,%rax
  402b70:	72 6f 6d 
  402b73:	48 89 43 28          	mov    %rax,0x28(%rbx)
  402b77:	48 b8 20 72 65 73 75 	movabs $0x20746c7573657220,%rax
  402b7e:	6c 74 20 
  402b81:	48 89 43 30          	mov    %rax,0x30(%rbx)
  402b85:	c7 43 38 73 65 72 76 	movl   $0x76726573,0x38(%rbx)
  402b8c:	66 c7 43 3c 65 72    	movw   $0x7265,0x3c(%rbx)
  402b92:	c6 43 3e 00          	movb   $0x0,0x3e(%rbx)
  402b96:	89 ef                	mov    %ebp,%edi
  402b98:	e8 93 e1 ff ff       	callq  400d30 <close@plt>
  402b9d:	b8 ff ff ff ff       	mov    $0xffffffff,%eax
  402ba2:	e9 dc 00 00 00       	jmpq   402c83 <submitr+0x746>
  402ba7:	44 8b 44 24 1c       	mov    0x1c(%rsp),%r8d
  402bac:	41 81 f8 c8 00 00 00 	cmp    $0xc8,%r8d
  402bb3:	74 37                	je     402bec <submitr+0x6af>
  402bb5:	4c 8d 8c 24 40 80 00 	lea    0x8040(%rsp),%r9
  402bbc:	00 
  402bbd:	b9 48 38 40 00       	mov    $0x403848,%ecx
  402bc2:	48 c7 c2 ff ff ff ff 	mov    $0xffffffffffffffff,%rdx
  402bc9:	be 01 00 00 00       	mov    $0x1,%esi
  402bce:	48 89 df             	mov    %rbx,%rdi
  402bd1:	b8 00 00 00 00       	mov    $0x0,%eax
  402bd6:	e8 a5 e2 ff ff       	callq  400e80 <__sprintf_chk@plt>
  402bdb:	89 ef                	mov    %ebp,%edi
  402bdd:	e8 4e e1 ff ff       	callq  400d30 <close@plt>
  402be2:	b8 ff ff ff ff       	mov    $0xffffffff,%eax
  402be7:	e9 97 00 00 00       	jmpq   402c83 <submitr+0x746>
  402bec:	48 8d b4 24 40 20 00 	lea    0x2040(%rsp),%rsi
  402bf3:	00 
  402bf4:	48 89 df             	mov    %rbx,%rdi
  402bf7:	e8 c4 e0 ff ff       	callq  400cc0 <strcpy@plt>
  402bfc:	89 ef                	mov    %ebp,%edi
  402bfe:	e8 2d e1 ff ff       	callq  400d30 <close@plt>
  402c03:	0f b6 03             	movzbl (%rbx),%eax
  402c06:	ba 4f 00 00 00       	mov    $0x4f,%edx
  402c0b:	29 c2                	sub    %eax,%edx
  402c0d:	75 22                	jne    402c31 <submitr+0x6f4>
  402c0f:	0f b6 4b 01          	movzbl 0x1(%rbx),%ecx
  402c13:	b8 4b 00 00 00       	mov    $0x4b,%eax
  402c18:	29 c8                	sub    %ecx,%eax
  402c1a:	75 17                	jne    402c33 <submitr+0x6f6>
  402c1c:	0f b6 4b 02          	movzbl 0x2(%rbx),%ecx
  402c20:	b8 0a 00 00 00       	mov    $0xa,%eax
  402c25:	29 c8                	sub    %ecx,%eax
  402c27:	75 0a                	jne    402c33 <submitr+0x6f6>
  402c29:	0f b6 43 03          	movzbl 0x3(%rbx),%eax
  402c2d:	f7 d8                	neg    %eax
  402c2f:	eb 02                	jmp    402c33 <submitr+0x6f6>
  402c31:	89 d0                	mov    %edx,%eax
  402c33:	85 c0                	test   %eax,%eax
  402c35:	74 40                	je     402c77 <submitr+0x73a>
  402c37:	bf 90 38 40 00       	mov    $0x403890,%edi
  402c3c:	b9 05 00 00 00       	mov    $0x5,%ecx
  402c41:	48 89 de             	mov    %rbx,%rsi
  402c44:	f3 a6                	repz cmpsb %es:(%rdi),%ds:(%rsi)
  402c46:	0f 97 c0             	seta   %al
  402c49:	0f 92 c1             	setb   %cl
  402c4c:	29 c8                	sub    %ecx,%eax
  402c4e:	0f be c0             	movsbl %al,%eax
  402c51:	85 c0                	test   %eax,%eax
  402c53:	74 2e                	je     402c83 <submitr+0x746>
  402c55:	85 d2                	test   %edx,%edx
  402c57:	75 13                	jne    402c6c <submitr+0x72f>
  402c59:	0f b6 43 01          	movzbl 0x1(%rbx),%eax
  402c5d:	ba 4b 00 00 00       	mov    $0x4b,%edx
  402c62:	29 c2                	sub    %eax,%edx
  402c64:	75 06                	jne    402c6c <submitr+0x72f>
  402c66:	0f b6 53 02          	movzbl 0x2(%rbx),%edx
  402c6a:	f7 da                	neg    %edx
  402c6c:	85 d2                	test   %edx,%edx
  402c6e:	75 0e                	jne    402c7e <submitr+0x741>
  402c70:	b8 00 00 00 00       	mov    $0x0,%eax
  402c75:	eb 0c                	jmp    402c83 <submitr+0x746>
  402c77:	b8 00 00 00 00       	mov    $0x0,%eax
  402c7c:	eb 05                	jmp    402c83 <submitr+0x746>
  402c7e:	b8 ff ff ff ff       	mov    $0xffffffff,%eax
  402c83:	48 8b 9c 24 48 a0 00 	mov    0xa048(%rsp),%rbx
  402c8a:	00 
  402c8b:	64 48 33 1c 25 28 00 	xor    %fs:0x28,%rbx
  402c92:	00 00 
  402c94:	74 05                	je     402c9b <submitr+0x75e>
  402c96:	e8 55 e0 ff ff       	callq  400cf0 <__stack_chk_fail@plt>
  402c9b:	48 81 c4 58 a0 00 00 	add    $0xa058,%rsp
  402ca2:	5b                   	pop    %rbx
  402ca3:	5d                   	pop    %rbp
  402ca4:	41 5c                	pop    %r12
  402ca6:	41 5d                	pop    %r13
  402ca8:	41 5e                	pop    %r14
  402caa:	41 5f                	pop    %r15
  402cac:	c3                   	retq   

0000000000402cad <init_timeout>:
  402cad:	85 ff                	test   %edi,%edi
  402caf:	74 23                	je     402cd4 <init_timeout+0x27>
  402cb1:	53                   	push   %rbx
  402cb2:	89 fb                	mov    %edi,%ebx
  402cb4:	85 ff                	test   %edi,%edi
  402cb6:	79 05                	jns    402cbd <init_timeout+0x10>
  402cb8:	bb 00 00 00 00       	mov    $0x0,%ebx
  402cbd:	be 71 22 40 00       	mov    $0x402271,%esi
  402cc2:	bf 0e 00 00 00       	mov    $0xe,%edi
  402cc7:	e8 94 e0 ff ff       	callq  400d60 <signal@plt>
  402ccc:	89 df                	mov    %ebx,%edi
  402cce:	e8 4d e0 ff ff       	callq  400d20 <alarm@plt>
  402cd3:	5b                   	pop    %rbx
  402cd4:	f3 c3                	repz retq 

0000000000402cd6 <init_driver>:
  402cd6:	55                   	push   %rbp
  402cd7:	53                   	push   %rbx
  402cd8:	48 83 ec 28          	sub    $0x28,%rsp
  402cdc:	48 89 fd             	mov    %rdi,%rbp
  402cdf:	64 48 8b 04 25 28 00 	mov    %fs:0x28,%rax
  402ce6:	00 00 
  402ce8:	48 89 44 24 18       	mov    %rax,0x18(%rsp)
  402ced:	31 c0                	xor    %eax,%eax
  402cef:	be 01 00 00 00       	mov    $0x1,%esi
  402cf4:	bf 0d 00 00 00       	mov    $0xd,%edi
  402cf9:	e8 62 e0 ff ff       	callq  400d60 <signal@plt>
  402cfe:	be 01 00 00 00       	mov    $0x1,%esi
  402d03:	bf 1d 00 00 00       	mov    $0x1d,%edi
  402d08:	e8 53 e0 ff ff       	callq  400d60 <signal@plt>
  402d0d:	be 01 00 00 00       	mov    $0x1,%esi
  402d12:	bf 1d 00 00 00       	mov    $0x1d,%edi
  402d17:	e8 44 e0 ff ff       	callq  400d60 <signal@plt>
  402d1c:	ba 00 00 00 00       	mov    $0x0,%edx
  402d21:	be 01 00 00 00       	mov    $0x1,%esi
  402d26:	bf 02 00 00 00       	mov    $0x2,%edi
  402d2b:	e8 60 e1 ff ff       	callq  400e90 <socket@plt>
  402d30:	85 c0                	test   %eax,%eax
  402d32:	79 4f                	jns    402d83 <init_driver+0xad>
  402d34:	48 b8 45 72 72 6f 72 	movabs $0x43203a726f727245,%rax
  402d3b:	3a 20 43 
  402d3e:	48 89 45 00          	mov    %rax,0x0(%rbp)
  402d42:	48 b8 6c 69 65 6e 74 	movabs $0x6e7520746e65696c,%rax
  402d49:	20 75 6e 
  402d4c:	48 89 45 08          	mov    %rax,0x8(%rbp)
  402d50:	48 b8 61 62 6c 65 20 	movabs $0x206f7420656c6261,%rax
  402d57:	74 6f 20 
  402d5a:	48 89 45 10          	mov    %rax,0x10(%rbp)
  402d5e:	48 b8 63 72 65 61 74 	movabs $0x7320657461657263,%rax
  402d65:	65 20 73 
  402d68:	48 89 45 18          	mov    %rax,0x18(%rbp)
  402d6c:	c7 45 20 6f 63 6b 65 	movl   $0x656b636f,0x20(%rbp)
  402d73:	66 c7 45 24 74 00    	movw   $0x74,0x24(%rbp)
  402d79:	b8 ff ff ff ff       	mov    $0xffffffff,%eax
  402d7e:	e9 2a 01 00 00       	jmpq   402ead <init_driver+0x1d7>
  402d83:	89 c3                	mov    %eax,%ebx
  402d85:	bf ac 33 40 00       	mov    $0x4033ac,%edi
  402d8a:	e8 e1 df ff ff       	callq  400d70 <gethostbyname@plt>
  402d8f:	48 85 c0             	test   %rax,%rax
  402d92:	75 68                	jne    402dfc <init_driver+0x126>
  402d94:	48 b8 45 72 72 6f 72 	movabs $0x44203a726f727245,%rax
  402d9b:	3a 20 44 
  402d9e:	48 89 45 00          	mov    %rax,0x0(%rbp)
  402da2:	48 b8 4e 53 20 69 73 	movabs $0x6e7520736920534e,%rax
  402da9:	20 75 6e 
  402dac:	48 89 45 08          	mov    %rax,0x8(%rbp)
  402db0:	48 b8 61 62 6c 65 20 	movabs $0x206f7420656c6261,%rax
  402db7:	74 6f 20 
  402dba:	48 89 45 10          	mov    %rax,0x10(%rbp)
  402dbe:	48 b8 72 65 73 6f 6c 	movabs $0x2065766c6f736572,%rax
  402dc5:	76 65 20 
  402dc8:	48 89 45 18          	mov    %rax,0x18(%rbp)
  402dcc:	48 b8 73 65 72 76 65 	movabs $0x6120726576726573,%rax
  402dd3:	72 20 61 
  402dd6:	48 89 45 20          	mov    %rax,0x20(%rbp)
  402dda:	c7 45 28 64 64 72 65 	movl   $0x65726464,0x28(%rbp)
  402de1:	66 c7 45 2c 73 73    	movw   $0x7373,0x2c(%rbp)
  402de7:	c6 45 2e 00          	movb   $0x0,0x2e(%rbp)
  402deb:	89 df                	mov    %ebx,%edi
  402ded:	e8 3e df ff ff       	callq  400d30 <close@plt>
  402df2:	b8 ff ff ff ff       	mov    $0xffffffff,%eax
  402df7:	e9 b1 00 00 00       	jmpq   402ead <init_driver+0x1d7>
  402dfc:	48 c7 04 24 00 00 00 	movq   $0x0,(%rsp)
  402e03:	00 
  402e04:	48 c7 44 24 08 00 00 	movq   $0x0,0x8(%rsp)
  402e0b:	00 00 
  402e0d:	66 c7 04 24 02 00    	movw   $0x2,(%rsp)
  402e13:	48 63 50 14          	movslq 0x14(%rax),%rdx
  402e17:	48 8b 40 18          	mov    0x18(%rax),%rax
  402e1b:	48 8b 30             	mov    (%rax),%rsi
  402e1e:	48 8d 7c 24 04       	lea    0x4(%rsp),%rdi
  402e23:	b9 0c 00 00 00       	mov    $0xc,%ecx
  402e28:	e8 53 df ff ff       	callq  400d80 <__memmove_chk@plt>
  402e2d:	66 c7 44 24 02 3c 9a 	movw   $0x9a3c,0x2(%rsp)
  402e34:	ba 10 00 00 00       	mov    $0x10,%edx
  402e39:	48 89 e6             	mov    %rsp,%rsi
  402e3c:	89 df                	mov    %ebx,%edi
  402e3e:	e8 1d e0 ff ff       	callq  400e60 <connect@plt>
  402e43:	85 c0                	test   %eax,%eax
  402e45:	79 50                	jns    402e97 <init_driver+0x1c1>
  402e47:	48 b8 45 72 72 6f 72 	movabs $0x55203a726f727245,%rax
  402e4e:	3a 20 55 
  402e51:	48 89 45 00          	mov    %rax,0x0(%rbp)
  402e55:	48 b8 6e 61 62 6c 65 	movabs $0x6f7420656c62616e,%rax
  402e5c:	20 74 6f 
  402e5f:	48 89 45 08          	mov    %rax,0x8(%rbp)
  402e63:	48 b8 20 63 6f 6e 6e 	movabs $0x7463656e6e6f6320,%rax
  402e6a:	65 63 74 
  402e6d:	48 89 45 10          	mov    %rax,0x10(%rbp)
  402e71:	48 b8 20 74 6f 20 73 	movabs $0x76726573206f7420,%rax
  402e78:	65 72 76 
  402e7b:	48 89 45 18          	mov    %rax,0x18(%rbp)
  402e7f:	66 c7 45 20 65 72    	movw   $0x7265,0x20(%rbp)
  402e85:	c6 45 22 00          	movb   $0x0,0x22(%rbp)
  402e89:	89 df                	mov    %ebx,%edi
  402e8b:	e8 a0 de ff ff       	callq  400d30 <close@plt>
  402e90:	b8 ff ff ff ff       	mov    $0xffffffff,%eax
  402e95:	eb 16                	jmp    402ead <init_driver+0x1d7>
  402e97:	89 df                	mov    %ebx,%edi
  402e99:	e8 92 de ff ff       	callq  400d30 <close@plt>
  402e9e:	66 c7 45 00 4f 4b    	movw   $0x4b4f,0x0(%rbp)
  402ea4:	c6 45 02 00          	movb   $0x0,0x2(%rbp)
  402ea8:	b8 00 00 00 00       	mov    $0x0,%eax
  402ead:	48 8b 4c 24 18       	mov    0x18(%rsp),%rcx
  402eb2:	64 48 33 0c 25 28 00 	xor    %fs:0x28,%rcx
  402eb9:	00 00 
  402ebb:	74 05                	je     402ec2 <init_driver+0x1ec>
  402ebd:	e8 2e de ff ff       	callq  400cf0 <__stack_chk_fail@plt>
  402ec2:	48 83 c4 28          	add    $0x28,%rsp
  402ec6:	5b                   	pop    %rbx
  402ec7:	5d                   	pop    %rbp
  402ec8:	c3                   	retq   

0000000000402ec9 <driver_post>:
  402ec9:	53                   	push   %rbx
  402eca:	4c 89 cb             	mov    %r9,%rbx
  402ecd:	45 85 c0             	test   %r8d,%r8d
  402ed0:	74 27                	je     402ef9 <driver_post+0x30>
  402ed2:	48 89 ca             	mov    %rcx,%rdx
  402ed5:	be 95 38 40 00       	mov    $0x403895,%esi
  402eda:	bf 01 00 00 00       	mov    $0x1,%edi
  402edf:	b8 00 00 00 00       	mov    $0x0,%eax
  402ee4:	e8 17 df ff ff       	callq  400e00 <__printf_chk@plt>
  402ee9:	66 c7 03 4f 4b       	movw   $0x4b4f,(%rbx)
  402eee:	c6 43 02 00          	movb   $0x0,0x2(%rbx)
  402ef2:	b8 00 00 00 00       	mov    $0x0,%eax
  402ef7:	eb 3f                	jmp    402f38 <driver_post+0x6f>
  402ef9:	48 85 ff             	test   %rdi,%rdi
  402efc:	74 2c                	je     402f2a <driver_post+0x61>
  402efe:	80 3f 00             	cmpb   $0x0,(%rdi)
  402f01:	74 27                	je     402f2a <driver_post+0x61>
  402f03:	48 83 ec 08          	sub    $0x8,%rsp
  402f07:	41 51                	push   %r9
  402f09:	49 89 c9             	mov    %rcx,%r9
  402f0c:	49 89 d0             	mov    %rdx,%r8
  402f0f:	48 89 f9             	mov    %rdi,%rcx
  402f12:	48 89 f2             	mov    %rsi,%rdx
  402f15:	be 9a 3c 00 00       	mov    $0x3c9a,%esi
  402f1a:	bf ac 33 40 00       	mov    $0x4033ac,%edi
  402f1f:	e8 19 f6 ff ff       	callq  40253d <submitr>
  402f24:	48 83 c4 10          	add    $0x10,%rsp
  402f28:	eb 0e                	jmp    402f38 <driver_post+0x6f>
  402f2a:	66 c7 03 4f 4b       	movw   $0x4b4f,(%rbx)
  402f2f:	c6 43 02 00          	movb   $0x0,0x2(%rbx)
  402f33:	b8 00 00 00 00       	mov    $0x0,%eax
  402f38:	5b                   	pop    %rbx
  402f39:	c3                   	retq   

0000000000402f3a <check>:
  402f3a:	89 f8                	mov    %edi,%eax
  402f3c:	c1 e8 1c             	shr    $0x1c,%eax
  402f3f:	85 c0                	test   %eax,%eax
  402f41:	74 1d                	je     402f60 <check+0x26>
  402f43:	b9 00 00 00 00       	mov    $0x0,%ecx
  402f48:	eb 0b                	jmp    402f55 <check+0x1b>
  402f4a:	89 f8                	mov    %edi,%eax
  402f4c:	d3 e8                	shr    %cl,%eax
  402f4e:	3c 0a                	cmp    $0xa,%al
  402f50:	74 14                	je     402f66 <check+0x2c>
  402f52:	83 c1 08             	add    $0x8,%ecx
  402f55:	83 f9 1f             	cmp    $0x1f,%ecx
  402f58:	7e f0                	jle    402f4a <check+0x10>
  402f5a:	b8 01 00 00 00       	mov    $0x1,%eax
  402f5f:	c3                   	retq   
  402f60:	b8 00 00 00 00       	mov    $0x0,%eax
  402f65:	c3                   	retq   
  402f66:	b8 00 00 00 00       	mov    $0x0,%eax
  402f6b:	c3                   	retq   

0000000000402f6c <gencookie>:
  402f6c:	53                   	push   %rbx
  402f6d:	83 c7 01             	add    $0x1,%edi
  402f70:	e8 2b dd ff ff       	callq  400ca0 <srandom@plt>
  402f75:	e8 46 de ff ff       	callq  400dc0 <random@plt>
  402f7a:	89 c3                	mov    %eax,%ebx
  402f7c:	89 c7                	mov    %eax,%edi
  402f7e:	e8 b7 ff ff ff       	callq  402f3a <check>
  402f83:	85 c0                	test   %eax,%eax
  402f85:	74 ee                	je     402f75 <gencookie+0x9>
  402f87:	89 d8                	mov    %ebx,%eax
  402f89:	5b                   	pop    %rbx
  402f8a:	c3                   	retq   
  402f8b:	0f 1f 44 00 00       	nopl   0x0(%rax,%rax,1)

0000000000402f90 <__libc_csu_init>:
  402f90:	41 57                	push   %r15
  402f92:	41 56                	push   %r14
  402f94:	41 89 ff             	mov    %edi,%r15d
  402f97:	41 55                	push   %r13
  402f99:	41 54                	push   %r12
  402f9b:	4c 8d 25 6e 1e 20 00 	lea    0x201e6e(%rip),%r12        # 604e10 <__frame_dummy_init_array_entry>
  402fa2:	55                   	push   %rbp
  402fa3:	48 8d 2d 6e 1e 20 00 	lea    0x201e6e(%rip),%rbp        # 604e18 <__init_array_end>
  402faa:	53                   	push   %rbx
  402fab:	49 89 f6             	mov    %rsi,%r14
  402fae:	49 89 d5             	mov    %rdx,%r13
  402fb1:	4c 29 e5             	sub    %r12,%rbp
  402fb4:	48 83 ec 08          	sub    $0x8,%rsp
  402fb8:	48 c1 fd 03          	sar    $0x3,%rbp
  402fbc:	e8 87 dc ff ff       	callq  400c48 <_init>
  402fc1:	48 85 ed             	test   %rbp,%rbp
  402fc4:	74 20                	je     402fe6 <__libc_csu_init+0x56>
  402fc6:	31 db                	xor    %ebx,%ebx
  402fc8:	0f 1f 84 00 00 00 00 	nopl   0x0(%rax,%rax,1)
  402fcf:	00 
  402fd0:	4c 89 ea             	mov    %r13,%rdx
  402fd3:	4c 89 f6             	mov    %r14,%rsi
  402fd6:	44 89 ff             	mov    %r15d,%edi
  402fd9:	41 ff 14 dc          	callq  *(%r12,%rbx,8)
  402fdd:	48 83 c3 01          	add    $0x1,%rbx
  402fe1:	48 39 eb             	cmp    %rbp,%rbx
  402fe4:	75 ea                	jne    402fd0 <__libc_csu_init+0x40>
  402fe6:	48 83 c4 08          	add    $0x8,%rsp
  402fea:	5b                   	pop    %rbx
  402feb:	5d                   	pop    %rbp
  402fec:	41 5c                	pop    %r12
  402fee:	41 5d                	pop    %r13
  402ff0:	41 5e                	pop    %r14
  402ff2:	41 5f                	pop    %r15
  402ff4:	c3                   	retq   
  402ff5:	90                   	nop
  402ff6:	66 2e 0f 1f 84 00 00 	nopw   %cs:0x0(%rax,%rax,1)
  402ffd:	00 00 00 

0000000000403000 <__libc_csu_fini>:
  403000:	f3 c3                	repz retq 

Disassembly of section .fini:

0000000000403004 <_fini>:
  403004:	48 83 ec 08          	sub    $0x8,%rsp
  403008:	48 83 c4 08          	add    $0x8,%rsp
  40300c:	c3                   	retq   
