
bomb:     file format elf64-x86-64


Disassembly of section .init:

0000000000400c98 <_init>:
  400c98:	48 83 ec 08          	sub    $0x8,%rsp
  400c9c:	48 8b 05 55 43 20 00 	mov    0x204355(%rip),%rax        # 604ff8 <_DYNAMIC+0x1d0>
  400ca3:	48 85 c0             	test   %rax,%rax
  400ca6:	74 05                	je     400cad <_init+0x15>
  400ca8:	e8 53 02 00 00       	callq  400f00 <socket@plt+0x10>
  400cad:	48 83 c4 08          	add    $0x8,%rsp
  400cb1:	c3                   	retq   

Disassembly of section .plt:

0000000000400cc0 <getenv@plt-0x10>:
  400cc0:	ff 35 42 43 20 00    	pushq  0x204342(%rip)        # 605008 <_GLOBAL_OFFSET_TABLE_+0x8>
  400cc6:	ff 25 44 43 20 00    	jmpq   *0x204344(%rip)        # 605010 <_GLOBAL_OFFSET_TABLE_+0x10>
  400ccc:	0f 1f 40 00          	nopl   0x0(%rax)

0000000000400cd0 <getenv@plt>:
  400cd0:	ff 25 42 43 20 00    	jmpq   *0x204342(%rip)        # 605018 <_GLOBAL_OFFSET_TABLE_+0x18>
  400cd6:	68 00 00 00 00       	pushq  $0x0
  400cdb:	e9 e0 ff ff ff       	jmpq   400cc0 <_init+0x28>

0000000000400ce0 <free@plt>:
  400ce0:	ff 25 3a 43 20 00    	jmpq   *0x20433a(%rip)        # 605020 <_GLOBAL_OFFSET_TABLE_+0x20>
  400ce6:	68 01 00 00 00       	pushq  $0x1
  400ceb:	e9 d0 ff ff ff       	jmpq   400cc0 <_init+0x28>

0000000000400cf0 <__errno_location@plt>:
  400cf0:	ff 25 32 43 20 00    	jmpq   *0x204332(%rip)        # 605028 <_GLOBAL_OFFSET_TABLE_+0x28>
  400cf6:	68 02 00 00 00       	pushq  $0x2
  400cfb:	e9 c0 ff ff ff       	jmpq   400cc0 <_init+0x28>

0000000000400d00 <strcpy@plt>:
  400d00:	ff 25 2a 43 20 00    	jmpq   *0x20432a(%rip)        # 605030 <_GLOBAL_OFFSET_TABLE_+0x30>
  400d06:	68 03 00 00 00       	pushq  $0x3
  400d0b:	e9 b0 ff ff ff       	jmpq   400cc0 <_init+0x28>

0000000000400d10 <puts@plt>:
  400d10:	ff 25 22 43 20 00    	jmpq   *0x204322(%rip)        # 605038 <_GLOBAL_OFFSET_TABLE_+0x38>
  400d16:	68 04 00 00 00       	pushq  $0x4
  400d1b:	e9 a0 ff ff ff       	jmpq   400cc0 <_init+0x28>

0000000000400d20 <write@plt>:
  400d20:	ff 25 1a 43 20 00    	jmpq   *0x20431a(%rip)        # 605040 <_GLOBAL_OFFSET_TABLE_+0x40>
  400d26:	68 05 00 00 00       	pushq  $0x5
  400d2b:	e9 90 ff ff ff       	jmpq   400cc0 <_init+0x28>

0000000000400d30 <strlen@plt>:
  400d30:	ff 25 12 43 20 00    	jmpq   *0x204312(%rip)        # 605048 <_GLOBAL_OFFSET_TABLE_+0x48>
  400d36:	68 06 00 00 00       	pushq  $0x6
  400d3b:	e9 80 ff ff ff       	jmpq   400cc0 <_init+0x28>

0000000000400d40 <__stack_chk_fail@plt>:
  400d40:	ff 25 0a 43 20 00    	jmpq   *0x20430a(%rip)        # 605050 <_GLOBAL_OFFSET_TABLE_+0x50>
  400d46:	68 07 00 00 00       	pushq  $0x7
  400d4b:	e9 70 ff ff ff       	jmpq   400cc0 <_init+0x28>

0000000000400d50 <strchr@plt>:
  400d50:	ff 25 02 43 20 00    	jmpq   *0x204302(%rip)        # 605058 <_GLOBAL_OFFSET_TABLE_+0x58>
  400d56:	68 08 00 00 00       	pushq  $0x8
  400d5b:	e9 60 ff ff ff       	jmpq   400cc0 <_init+0x28>

0000000000400d60 <alarm@plt>:
  400d60:	ff 25 fa 42 20 00    	jmpq   *0x2042fa(%rip)        # 605060 <_GLOBAL_OFFSET_TABLE_+0x60>
  400d66:	68 09 00 00 00       	pushq  $0x9
  400d6b:	e9 50 ff ff ff       	jmpq   400cc0 <_init+0x28>

0000000000400d70 <close@plt>:
  400d70:	ff 25 f2 42 20 00    	jmpq   *0x2042f2(%rip)        # 605068 <_GLOBAL_OFFSET_TABLE_+0x68>
  400d76:	68 0a 00 00 00       	pushq  $0xa
  400d7b:	e9 40 ff ff ff       	jmpq   400cc0 <_init+0x28>

0000000000400d80 <read@plt>:
  400d80:	ff 25 ea 42 20 00    	jmpq   *0x2042ea(%rip)        # 605070 <_GLOBAL_OFFSET_TABLE_+0x70>
  400d86:	68 0b 00 00 00       	pushq  $0xb
  400d8b:	e9 30 ff ff ff       	jmpq   400cc0 <_init+0x28>

0000000000400d90 <__libc_start_main@plt>:
  400d90:	ff 25 e2 42 20 00    	jmpq   *0x2042e2(%rip)        # 605078 <_GLOBAL_OFFSET_TABLE_+0x78>
  400d96:	68 0c 00 00 00       	pushq  $0xc
  400d9b:	e9 20 ff ff ff       	jmpq   400cc0 <_init+0x28>

0000000000400da0 <srand@plt>:
  400da0:	ff 25 da 42 20 00    	jmpq   *0x2042da(%rip)        # 605080 <_GLOBAL_OFFSET_TABLE_+0x80>
  400da6:	68 0d 00 00 00       	pushq  $0xd
  400dab:	e9 10 ff ff ff       	jmpq   400cc0 <_init+0x28>

0000000000400db0 <memcmp@plt>:
  400db0:	ff 25 d2 42 20 00    	jmpq   *0x2042d2(%rip)        # 605088 <_GLOBAL_OFFSET_TABLE_+0x88>
  400db6:	68 0e 00 00 00       	pushq  $0xe
  400dbb:	e9 00 ff ff ff       	jmpq   400cc0 <_init+0x28>

0000000000400dc0 <fgets@plt>:
  400dc0:	ff 25 ca 42 20 00    	jmpq   *0x2042ca(%rip)        # 605090 <_GLOBAL_OFFSET_TABLE_+0x90>
  400dc6:	68 0f 00 00 00       	pushq  $0xf
  400dcb:	e9 f0 fe ff ff       	jmpq   400cc0 <_init+0x28>

0000000000400dd0 <signal@plt>:
  400dd0:	ff 25 c2 42 20 00    	jmpq   *0x2042c2(%rip)        # 605098 <_GLOBAL_OFFSET_TABLE_+0x98>
  400dd6:	68 10 00 00 00       	pushq  $0x10
  400ddb:	e9 e0 fe ff ff       	jmpq   400cc0 <_init+0x28>

0000000000400de0 <gethostbyname@plt>:
  400de0:	ff 25 ba 42 20 00    	jmpq   *0x2042ba(%rip)        # 6050a0 <_GLOBAL_OFFSET_TABLE_+0xa0>
  400de6:	68 11 00 00 00       	pushq  $0x11
  400deb:	e9 d0 fe ff ff       	jmpq   400cc0 <_init+0x28>

0000000000400df0 <__memmove_chk@plt>:
  400df0:	ff 25 b2 42 20 00    	jmpq   *0x2042b2(%rip)        # 6050a8 <_GLOBAL_OFFSET_TABLE_+0xa8>
  400df6:	68 12 00 00 00       	pushq  $0x12
  400dfb:	e9 c0 fe ff ff       	jmpq   400cc0 <_init+0x28>

0000000000400e00 <memcpy@plt>:
  400e00:	ff 25 aa 42 20 00    	jmpq   *0x2042aa(%rip)        # 6050b0 <_GLOBAL_OFFSET_TABLE_+0xb0>
  400e06:	68 13 00 00 00       	pushq  $0x13
  400e0b:	e9 b0 fe ff ff       	jmpq   400cc0 <_init+0x28>

0000000000400e10 <malloc@plt>:
  400e10:	ff 25 a2 42 20 00    	jmpq   *0x2042a2(%rip)        # 6050b8 <_GLOBAL_OFFSET_TABLE_+0xb8>
  400e16:	68 14 00 00 00       	pushq  $0x14
  400e1b:	e9 a0 fe ff ff       	jmpq   400cc0 <_init+0x28>

0000000000400e20 <fflush@plt>:
  400e20:	ff 25 9a 42 20 00    	jmpq   *0x20429a(%rip)        # 6050c0 <_GLOBAL_OFFSET_TABLE_+0xc0>
  400e26:	68 15 00 00 00       	pushq  $0x15
  400e2b:	e9 90 fe ff ff       	jmpq   400cc0 <_init+0x28>

0000000000400e30 <__isoc99_sscanf@plt>:
  400e30:	ff 25 92 42 20 00    	jmpq   *0x204292(%rip)        # 6050c8 <_GLOBAL_OFFSET_TABLE_+0xc8>
  400e36:	68 16 00 00 00       	pushq  $0x16
  400e3b:	e9 80 fe ff ff       	jmpq   400cc0 <_init+0x28>

0000000000400e40 <__strcpy_chk@plt>:
  400e40:	ff 25 8a 42 20 00    	jmpq   *0x20428a(%rip)        # 6050d0 <_GLOBAL_OFFSET_TABLE_+0xd0>
  400e46:	68 17 00 00 00       	pushq  $0x17
  400e4b:	e9 70 fe ff ff       	jmpq   400cc0 <_init+0x28>

0000000000400e50 <__printf_chk@plt>:
  400e50:	ff 25 82 42 20 00    	jmpq   *0x204282(%rip)        # 6050d8 <_GLOBAL_OFFSET_TABLE_+0xd8>
  400e56:	68 18 00 00 00       	pushq  $0x18
  400e5b:	e9 60 fe ff ff       	jmpq   400cc0 <_init+0x28>

0000000000400e60 <fopen@plt>:
  400e60:	ff 25 7a 42 20 00    	jmpq   *0x20427a(%rip)        # 6050e0 <_GLOBAL_OFFSET_TABLE_+0xe0>
  400e66:	68 19 00 00 00       	pushq  $0x19
  400e6b:	e9 50 fe ff ff       	jmpq   400cc0 <_init+0x28>

0000000000400e70 <strtoul@plt>:
  400e70:	ff 25 72 42 20 00    	jmpq   *0x204272(%rip)        # 6050e8 <_GLOBAL_OFFSET_TABLE_+0xe8>
  400e76:	68 1a 00 00 00       	pushq  $0x1a
  400e7b:	e9 40 fe ff ff       	jmpq   400cc0 <_init+0x28>

0000000000400e80 <exit@plt>:
  400e80:	ff 25 6a 42 20 00    	jmpq   *0x20426a(%rip)        # 6050f0 <_GLOBAL_OFFSET_TABLE_+0xf0>
  400e86:	68 1b 00 00 00       	pushq  $0x1b
  400e8b:	e9 30 fe ff ff       	jmpq   400cc0 <_init+0x28>

0000000000400e90 <connect@plt>:
  400e90:	ff 25 62 42 20 00    	jmpq   *0x204262(%rip)        # 6050f8 <_GLOBAL_OFFSET_TABLE_+0xf8>
  400e96:	68 1c 00 00 00       	pushq  $0x1c
  400e9b:	e9 20 fe ff ff       	jmpq   400cc0 <_init+0x28>

0000000000400ea0 <__fprintf_chk@plt>:
  400ea0:	ff 25 5a 42 20 00    	jmpq   *0x20425a(%rip)        # 605100 <_GLOBAL_OFFSET_TABLE_+0x100>
  400ea6:	68 1d 00 00 00       	pushq  $0x1d
  400eab:	e9 10 fe ff ff       	jmpq   400cc0 <_init+0x28>

0000000000400eb0 <sleep@plt>:
  400eb0:	ff 25 52 42 20 00    	jmpq   *0x204252(%rip)        # 605108 <_GLOBAL_OFFSET_TABLE_+0x108>
  400eb6:	68 1e 00 00 00       	pushq  $0x1e
  400ebb:	e9 00 fe ff ff       	jmpq   400cc0 <_init+0x28>

0000000000400ec0 <rand@plt>:
  400ec0:	ff 25 4a 42 20 00    	jmpq   *0x20424a(%rip)        # 605110 <_GLOBAL_OFFSET_TABLE_+0x110>
  400ec6:	68 1f 00 00 00       	pushq  $0x1f
  400ecb:	e9 f0 fd ff ff       	jmpq   400cc0 <_init+0x28>

0000000000400ed0 <__ctype_b_loc@plt>:
  400ed0:	ff 25 42 42 20 00    	jmpq   *0x204242(%rip)        # 605118 <_GLOBAL_OFFSET_TABLE_+0x118>
  400ed6:	68 20 00 00 00       	pushq  $0x20
  400edb:	e9 e0 fd ff ff       	jmpq   400cc0 <_init+0x28>

0000000000400ee0 <__sprintf_chk@plt>:
  400ee0:	ff 25 3a 42 20 00    	jmpq   *0x20423a(%rip)        # 605120 <_GLOBAL_OFFSET_TABLE_+0x120>
  400ee6:	68 21 00 00 00       	pushq  $0x21
  400eeb:	e9 d0 fd ff ff       	jmpq   400cc0 <_init+0x28>

0000000000400ef0 <socket@plt>:
  400ef0:	ff 25 32 42 20 00    	jmpq   *0x204232(%rip)        # 605128 <_GLOBAL_OFFSET_TABLE_+0x128>
  400ef6:	68 22 00 00 00       	pushq  $0x22
  400efb:	e9 c0 fd ff ff       	jmpq   400cc0 <_init+0x28>

Disassembly of section .plt.got:

0000000000400f00 <.plt.got>:
  400f00:	ff 25 f2 40 20 00    	jmpq   *0x2040f2(%rip)        # 604ff8 <_DYNAMIC+0x1d0>
  400f06:	66 90                	xchg   %ax,%ax

Disassembly of section .text:

0000000000400f10 <sigint_handler.part.2>:
  400f10:	50                   	push   %rax
  400f11:	bf e8 39 40 00       	mov    $0x4039e8,%edi
  400f16:	e8 f5 fd ff ff       	callq  400d10 <puts@plt>
  400f1b:	bf 03 00 00 00       	mov    $0x3,%edi
  400f20:	e8 8b ff ff ff       	callq  400eb0 <sleep@plt>
  400f25:	bf 1f 30 40 00       	mov    $0x40301f,%edi
  400f2a:	e8 e1 fd ff ff       	callq  400d10 <puts@plt>
  400f2f:	bf 01 00 00 00       	mov    $0x1,%edi
  400f34:	e8 77 ff ff ff       	callq  400eb0 <sleep@plt>
  400f39:	48 8b 3d e0 43 20 00 	mov    0x2043e0(%rip),%rdi        # 605320 <stdout@@GLIBC_2.2.5>
  400f40:	e8 db fe ff ff       	callq  400e20 <fflush@plt>
  400f45:	bf 1f 30 40 00       	mov    $0x40301f,%edi
  400f4a:	e8 c1 fd ff ff       	callq  400d10 <puts@plt>
  400f4f:	bf 01 00 00 00       	mov    $0x1,%edi
  400f54:	e8 57 ff ff ff       	callq  400eb0 <sleep@plt>
  400f59:	48 8b 3d c0 43 20 00 	mov    0x2043c0(%rip),%rdi        # 605320 <stdout@@GLIBC_2.2.5>
  400f60:	e8 bb fe ff ff       	callq  400e20 <fflush@plt>
  400f65:	bf 15 39 40 00       	mov    $0x403915,%edi
  400f6a:	e8 a1 fd ff ff       	callq  400d10 <puts@plt>
  400f6f:	bf 10 00 00 00       	mov    $0x10,%edi
  400f74:	e8 07 ff ff ff       	callq  400e80 <exit@plt>
  400f79:	0f 1f 80 00 00 00 00 	nopl   0x0(%rax)

0000000000400f80 <_start>:
  400f80:	31 ed                	xor    %ebp,%ebp
  400f82:	49 89 d1             	mov    %rdx,%r9
  400f85:	5e                   	pop    %rsi
  400f86:	48 89 e2             	mov    %rsp,%rdx
  400f89:	48 83 e4 f0          	and    $0xfffffffffffffff0,%rsp
  400f8d:	50                   	push   %rax
  400f8e:	54                   	push   %rsp
  400f8f:	49 c7 c0 70 2f 40 00 	mov    $0x402f70,%r8
  400f96:	48 c7 c1 00 2f 40 00 	mov    $0x402f00,%rcx
  400f9d:	48 c7 c7 76 10 40 00 	mov    $0x401076,%rdi
  400fa4:	e8 e7 fd ff ff       	callq  400d90 <__libc_start_main@plt>
  400fa9:	f4                   	hlt    
  400faa:	66 0f 1f 44 00 00    	nopw   0x0(%rax,%rax,1)

0000000000400fb0 <deregister_tm_clones>:
  400fb0:	b8 0f 53 60 00       	mov    $0x60530f,%eax
  400fb5:	55                   	push   %rbp
  400fb6:	48 2d 08 53 60 00    	sub    $0x605308,%rax
  400fbc:	48 83 f8 0e          	cmp    $0xe,%rax
  400fc0:	48 89 e5             	mov    %rsp,%rbp
  400fc3:	76 1b                	jbe    400fe0 <deregister_tm_clones+0x30>
  400fc5:	b8 00 00 00 00       	mov    $0x0,%eax
  400fca:	48 85 c0             	test   %rax,%rax
  400fcd:	74 11                	je     400fe0 <deregister_tm_clones+0x30>
  400fcf:	5d                   	pop    %rbp
  400fd0:	bf 08 53 60 00       	mov    $0x605308,%edi
  400fd5:	ff e0                	jmpq   *%rax
  400fd7:	66 0f 1f 84 00 00 00 	nopw   0x0(%rax,%rax,1)
  400fde:	00 00 
  400fe0:	5d                   	pop    %rbp
  400fe1:	c3                   	retq   
  400fe2:	0f 1f 40 00          	nopl   0x0(%rax)
  400fe6:	66 2e 0f 1f 84 00 00 	nopw   %cs:0x0(%rax,%rax,1)
  400fed:	00 00 00 

0000000000400ff0 <register_tm_clones>:
  400ff0:	be 08 53 60 00       	mov    $0x605308,%esi
  400ff5:	55                   	push   %rbp
  400ff6:	48 81 ee 08 53 60 00 	sub    $0x605308,%rsi
  400ffd:	48 c1 fe 03          	sar    $0x3,%rsi
  401001:	48 89 e5             	mov    %rsp,%rbp
  401004:	48 89 f0             	mov    %rsi,%rax
  401007:	48 c1 e8 3f          	shr    $0x3f,%rax
  40100b:	48 01 c6             	add    %rax,%rsi
  40100e:	48 d1 fe             	sar    %rsi
  401011:	74 15                	je     401028 <register_tm_clones+0x38>
  401013:	b8 00 00 00 00       	mov    $0x0,%eax
  401018:	48 85 c0             	test   %rax,%rax
  40101b:	74 0b                	je     401028 <register_tm_clones+0x38>
  40101d:	5d                   	pop    %rbp
  40101e:	bf 08 53 60 00       	mov    $0x605308,%edi
  401023:	ff e0                	jmpq   *%rax
  401025:	0f 1f 00             	nopl   (%rax)
  401028:	5d                   	pop    %rbp
  401029:	c3                   	retq   
  40102a:	66 0f 1f 44 00 00    	nopw   0x0(%rax,%rax,1)

0000000000401030 <__do_global_dtors_aux>:
  401030:	80 3d 11 43 20 00 00 	cmpb   $0x0,0x204311(%rip)        # 605348 <completed.7585>
  401037:	75 11                	jne    40104a <__do_global_dtors_aux+0x1a>
  401039:	55                   	push   %rbp
  40103a:	48 89 e5             	mov    %rsp,%rbp
  40103d:	e8 6e ff ff ff       	callq  400fb0 <deregister_tm_clones>
  401042:	5d                   	pop    %rbp
  401043:	c6 05 fe 42 20 00 01 	movb   $0x1,0x2042fe(%rip)        # 605348 <completed.7585>
  40104a:	f3 c3                	repz retq 
  40104c:	0f 1f 40 00          	nopl   0x0(%rax)

0000000000401050 <frame_dummy>:
  401050:	bf 20 4e 60 00       	mov    $0x604e20,%edi
  401055:	48 83 3f 00          	cmpq   $0x0,(%rdi)
  401059:	75 05                	jne    401060 <frame_dummy+0x10>
  40105b:	eb 93                	jmp    400ff0 <register_tm_clones>
  40105d:	0f 1f 00             	nopl   (%rax)
  401060:	b8 00 00 00 00       	mov    $0x0,%eax
  401065:	48 85 c0             	test   %rax,%rax
  401068:	74 f1                	je     40105b <frame_dummy+0xb>
  40106a:	55                   	push   %rbp
  40106b:	48 89 e5             	mov    %rsp,%rbp
  40106e:	ff d0                	callq  *%rax
  401070:	5d                   	pop    %rbp
  401071:	e9 7a ff ff ff       	jmpq   400ff0 <register_tm_clones>

0000000000401076 <main>:
  401076:	53                   	push   %rbx
  401077:	83 ff 01             	cmp    $0x1,%edi
  40107a:	75 10                	jne    40108c <main+0x16>
  40107c:	48 8b 05 ad 42 20 00 	mov    0x2042ad(%rip),%rax        # 605330 <stdin@@GLIBC_2.2.5>
  401083:	48 89 05 c6 49 20 00 	mov    %rax,0x2049c6(%rip)        # 605a50 <infile>
  40108a:	eb 63                	jmp    4010ef <main+0x79>
  40108c:	48 89 f3             	mov    %rsi,%rbx
  40108f:	83 ff 02             	cmp    $0x2,%edi
  401092:	75 3a                	jne    4010ce <main+0x58>
  401094:	48 8b 7e 08          	mov    0x8(%rsi),%rdi
  401098:	be 84 2f 40 00       	mov    $0x402f84,%esi
  40109d:	e8 be fd ff ff       	callq  400e60 <fopen@plt>
  4010a2:	48 89 05 a7 49 20 00 	mov    %rax,0x2049a7(%rip)        # 605a50 <infile>
  4010a9:	48 85 c0             	test   %rax,%rax
  4010ac:	75 41                	jne    4010ef <main+0x79>
  4010ae:	48 8b 4b 08          	mov    0x8(%rbx),%rcx
  4010b2:	48 8b 13             	mov    (%rbx),%rdx
  4010b5:	be 86 2f 40 00       	mov    $0x402f86,%esi
  4010ba:	bf 01 00 00 00       	mov    $0x1,%edi
  4010bf:	e8 8c fd ff ff       	callq  400e50 <__printf_chk@plt>
  4010c4:	bf 08 00 00 00       	mov    $0x8,%edi
  4010c9:	e8 b2 fd ff ff       	callq  400e80 <exit@plt>
  4010ce:	48 8b 16             	mov    (%rsi),%rdx
  4010d1:	be a3 2f 40 00       	mov    $0x402fa3,%esi
  4010d6:	bf 01 00 00 00       	mov    $0x1,%edi
  4010db:	b8 00 00 00 00       	mov    $0x0,%eax
  4010e0:	e8 6b fd ff ff       	callq  400e50 <__printf_chk@plt>
  4010e5:	bf 08 00 00 00       	mov    $0x8,%edi
  4010ea:	e8 91 fd ff ff       	callq  400e80 <exit@plt>
  4010ef:	e8 7c 09 00 00       	callq  401a70 <invalid_phase+0x30>
  4010f4:	bf 28 30 40 00       	mov    $0x403028,%edi
  4010f9:	e8 12 fc ff ff       	callq  400d10 <puts@plt>
  4010fe:	bf 60 30 40 00       	mov    $0x403060,%edi
  401103:	e8 08 fc ff ff       	callq  400d10 <puts@plt>
  401108:	e8 23 0e 00 00       	callq  401f30 <read_line>
  40110d:	48 89 c7             	mov    %rax,%rdi
  401110:	e8 3d 01 00 00       	callq  401252 <phase1>
  401115:	e8 96 10 00 00       	callq  4021b0 <phase_defused>
  40111a:	bf 90 30 40 00       	mov    $0x403090,%edi
  40111f:	e8 ec fb ff ff       	callq  400d10 <puts@plt>
  401124:	e8 07 0e 00 00       	callq  401f30 <read_line>
  401129:	48 89 c7             	mov    %rax,%rdi
  40112c:	e8 78 01 00 00       	callq  4012a9 <phase2>
  401131:	e8 7a 10 00 00       	callq  4021b0 <phase_defused>
  401136:	bf bd 2f 40 00       	mov    $0x402fbd,%edi
  40113b:	e8 d0 fb ff ff       	callq  400d10 <puts@plt>
  401140:	e8 eb 0d 00 00       	callq  401f30 <read_line>
  401145:	48 89 c7             	mov    %rax,%rdi
  401148:	e8 1f 02 00 00       	callq  40136c <phase3>
  40114d:	e8 5e 10 00 00       	callq  4021b0 <phase_defused>
  401152:	bf db 2f 40 00       	mov    $0x402fdb,%edi
  401157:	e8 b4 fb ff ff       	callq  400d10 <puts@plt>
  40115c:	e8 cf 0d 00 00       	callq  401f30 <read_line>
  401161:	48 89 c7             	mov    %rax,%rdi
  401164:	e8 d6 03 00 00       	callq  40153f <phase4>
  401169:	e8 42 10 00 00       	callq  4021b0 <phase_defused>
  40116e:	bf ea 2f 40 00       	mov    $0x402fea,%edi
  401173:	e8 98 fb ff ff       	callq  400d10 <puts@plt>
  401178:	e8 b3 0d 00 00       	callq  401f30 <read_line>
  40117d:	48 89 c7             	mov    %rax,%rdi
  401180:	e8 51 04 00 00       	callq  4015d6 <phase5>
  401185:	e8 26 10 00 00       	callq  4021b0 <phase_defused>
  40118a:	bf 05 30 40 00       	mov    $0x403005,%edi
  40118f:	e8 7c fb ff ff       	callq  400d10 <puts@plt>
  401194:	e8 97 0d 00 00       	callq  401f30 <read_line>
  401199:	48 89 c7             	mov    %rax,%rdi
  40119c:	e8 28 05 00 00       	callq  4016c9 <phase6>
  4011a1:	e8 0a 10 00 00       	callq  4021b0 <phase_defused>
  4011a6:	b8 00 00 00 00       	mov    $0x0,%eax
  4011ab:	5b                   	pop    %rbx
  4011ac:	c3                   	retq   

00000000004011ad <string_length>:
  4011ad:	b8 00 00 00 00       	mov    $0x0,%eax
  4011b2:	eb 07                	jmp    4011bb <string_length+0xe>
  4011b4:	48 83 c7 01          	add    $0x1,%rdi
  4011b8:	83 c0 01             	add    $0x1,%eax
  4011bb:	80 3f 00             	cmpb   $0x0,(%rdi)
  4011be:	75 f4                	jne    4011b4 <string_length+0x7>
  4011c0:	f3 c3                	repz retq 

00000000004011c2 <strings_not_equal>:
  4011c2:	41 54                	push   %r12
  4011c4:	55                   	push   %rbp
  4011c5:	53                   	push   %rbx
  4011c6:	48 89 fb             	mov    %rdi,%rbx
  4011c9:	48 89 f5             	mov    %rsi,%rbp
  4011cc:	e8 dc ff ff ff       	callq  4011ad <string_length>
  4011d1:	41 89 c4             	mov    %eax,%r12d
  4011d4:	48 89 ef             	mov    %rbp,%rdi
  4011d7:	e8 d1 ff ff ff       	callq  4011ad <string_length>
  4011dc:	41 39 c4             	cmp    %eax,%r12d
  4011df:	75 1d                	jne    4011fe <strings_not_equal+0x3c>
  4011e1:	eb 0d                	jmp    4011f0 <strings_not_equal+0x2e>
  4011e3:	3a 45 00             	cmp    0x0(%rbp),%al
  4011e6:	75 1d                	jne    401205 <strings_not_equal+0x43>
  4011e8:	48 83 c3 01          	add    $0x1,%rbx
  4011ec:	48 83 c5 01          	add    $0x1,%rbp
  4011f0:	0f b6 03             	movzbl (%rbx),%eax
  4011f3:	84 c0                	test   %al,%al
  4011f5:	75 ec                	jne    4011e3 <strings_not_equal+0x21>
  4011f7:	b8 00 00 00 00       	mov    $0x0,%eax
  4011fc:	eb 0c                	jmp    40120a <strings_not_equal+0x48>
  4011fe:	b8 01 00 00 00       	mov    $0x1,%eax
  401203:	eb 05                	jmp    40120a <strings_not_equal+0x48>
  401205:	b8 01 00 00 00       	mov    $0x1,%eax
  40120a:	5b                   	pop    %rbx
  40120b:	5d                   	pop    %rbp
  40120c:	41 5c                	pop    %r12
  40120e:	c3                   	retq   
  40120f:	48 83 ec 08          	sub    $0x8,%rsp
  401213:	e8 a8 fc ff ff       	callq  400ec0 <rand@plt>
  401218:	ba e1 83 0f 3e       	mov    $0x3e0f83e1,%edx
  40121d:	89 c1                	mov    %eax,%ecx
  40121f:	bf c0 59 60 00       	mov    $0x6059c0,%edi
  401224:	f7 ea                	imul   %edx
  401226:	89 c8                	mov    %ecx,%eax
  401228:	c1 f8 1f             	sar    $0x1f,%eax
  40122b:	c1 fa 03             	sar    $0x3,%edx
  40122e:	29 c2                	sub    %eax,%edx
  401230:	89 d0                	mov    %edx,%eax
  401232:	c1 e0 05             	shl    $0x5,%eax
  401235:	01 c2                	add    %eax,%edx
  401237:	29 d1                	sub    %edx,%ecx
  401239:	ba 80 00 00 00       	mov    $0x80,%edx
  40123e:	48 63 c9             	movslq %ecx,%rcx
  401241:	48 8b 34 cd c0 51 60 	mov    0x6051c0(,%rcx,8),%rsi
  401248:	00 
  401249:	48 83 c4 08          	add    $0x8,%rsp
  40124d:	e9 ee fb ff ff       	jmpq   400e40 <__strcpy_chk@plt>

0000000000401252 <phase1>:
  401252:	48 83 ec 08          	sub    $0x8,%rsp
  401256:	be c0 59 60 00       	mov    $0x6059c0,%esi
  40125b:	e8 62 ff ff ff       	callq  4011c2 <strings_not_equal>
  401260:	85 c0                	test   %eax,%eax
  401262:	74 05                	je     401269 <phase1+0x17>
  401264:	e8 37 0b 00 00       	callq  401da0 <explode_bomb>
  401269:	48 83 c4 08          	add    $0x8,%rsp
  40126d:	c3                   	retq   
  40126e:	48 83 ec 08          	sub    $0x8,%rsp
  401272:	e8 49 fc ff ff       	callq  400ec0 <rand@plt>
  401277:	99                   	cltd   
  401278:	c1 ea 1d             	shr    $0x1d,%edx
  40127b:	01 d0                	add    %edx,%eax
  40127d:	83 e0 07             	and    $0x7,%eax
  401280:	29 d0                	sub    %edx,%eax
  401282:	83 c0 01             	add    $0x1,%eax
  401285:	89 05 19 47 20 00    	mov    %eax,0x204719(%rip)        # 6059a4 <completed.7585+0x65c>
  40128b:	e8 30 fc ff ff       	callq  400ec0 <rand@plt>
  401290:	99                   	cltd   
  401291:	c1 ea 1d             	shr    $0x1d,%edx
  401294:	01 d0                	add    %edx,%eax
  401296:	83 e0 07             	and    $0x7,%eax
  401299:	29 d0                	sub    %edx,%eax
  40129b:	83 c0 02             	add    $0x2,%eax
  40129e:	89 05 fc 46 20 00    	mov    %eax,0x2046fc(%rip)        # 6059a0 <completed.7585+0x658>
  4012a4:	48 83 c4 08          	add    $0x8,%rsp
  4012a8:	c3                   	retq   

00000000004012a9 <phase2>:
  4012a9:	53                   	push   %rbx
  4012aa:	48 83 ec 20          	sub    $0x20,%rsp
  4012ae:	64 48 8b 04 25 28 00 	mov    %fs:0x28,%rax
  4012b5:	00 00 
  4012b7:	48 89 44 24 18       	mov    %rax,0x18(%rsp)
  4012bc:	31 c0                	xor    %eax,%eax
  4012be:	48 89 e6             	mov    %rsp,%rsi
  4012c1:	e8 1a 0b 00 00       	callq  401de0 <read_six_numbers>
  4012c6:	8b 05 d8 46 20 00    	mov    0x2046d8(%rip),%eax        # 6059a4 <completed.7585+0x65c>
  4012cc:	39 04 24             	cmp    %eax,(%rsp)
  4012cf:	75 0c                	jne    4012dd <phase2+0x34>
  4012d1:	8b 05 c9 46 20 00    	mov    0x2046c9(%rip),%eax        # 6059a0 <completed.7585+0x658>
  4012d7:	39 44 24 04          	cmp    %eax,0x4(%rsp)
  4012db:	74 05                	je     4012e2 <phase2+0x39>
  4012dd:	e8 be 0a 00 00       	callq  401da0 <explode_bomb>
  4012e2:	bb 02 00 00 00       	mov    $0x2,%ebx
  4012e7:	eb 21                	jmp    40130a <phase2+0x61>
  4012e9:	48 63 d3             	movslq %ebx,%rdx
  4012ec:	8d 4b fe             	lea    -0x2(%rbx),%ecx
  4012ef:	48 63 c9             	movslq %ecx,%rcx
  4012f2:	8d 43 ff             	lea    -0x1(%rbx),%eax
  4012f5:	48 98                	cltq   
  4012f7:	8b 04 84             	mov    (%rsp,%rax,4),%eax
  4012fa:	03 04 8c             	add    (%rsp,%rcx,4),%eax
  4012fd:	39 04 94             	cmp    %eax,(%rsp,%rdx,4)
  401300:	74 05                	je     401307 <phase2+0x5e>
  401302:	e8 99 0a 00 00       	callq  401da0 <explode_bomb>
  401307:	83 c3 01             	add    $0x1,%ebx
  40130a:	83 fb 05             	cmp    $0x5,%ebx
  40130d:	7e da                	jle    4012e9 <phase2+0x40>
  40130f:	48 8b 44 24 18       	mov    0x18(%rsp),%rax
  401314:	64 48 33 04 25 28 00 	xor    %fs:0x28,%rax
  40131b:	00 00 
  40131d:	74 05                	je     401324 <phase2+0x7b>
  40131f:	e8 1c fa ff ff       	callq  400d40 <__stack_chk_fail@plt>
  401324:	48 83 c4 20          	add    $0x20,%rsp
  401328:	5b                   	pop    %rbx
  401329:	c3                   	retq   
  40132a:	55                   	push   %rbp
  40132b:	53                   	push   %rbx
  40132c:	bd 80 59 60 00       	mov    $0x605980,%ebp
  401331:	bb d3 4d 62 10       	mov    $0x10624dd3,%ebx
  401336:	48 83 ec 08          	sub    $0x8,%rsp
  40133a:	e8 81 fb ff ff       	callq  400ec0 <rand@plt>
  40133f:	89 c1                	mov    %eax,%ecx
  401341:	48 83 c5 04          	add    $0x4,%rbp
  401345:	f7 eb                	imul   %ebx
  401347:	89 c8                	mov    %ecx,%eax
  401349:	c1 f8 1f             	sar    $0x1f,%eax
  40134c:	c1 fa 06             	sar    $0x6,%edx
  40134f:	29 c2                	sub    %eax,%edx
  401351:	69 d2 e8 03 00 00    	imul   $0x3e8,%edx,%edx
  401357:	29 d1                	sub    %edx,%ecx
  401359:	89 4d fc             	mov    %ecx,-0x4(%rbp)
  40135c:	48 81 fd a0 59 60 00 	cmp    $0x6059a0,%rbp
  401363:	75 d5                	jne    40133a <phase2+0x91>
  401365:	48 83 c4 08          	add    $0x8,%rsp
  401369:	5b                   	pop    %rbx
  40136a:	5d                   	pop    %rbp
  40136b:	c3                   	retq   

000000000040136c <phase3>:
  40136c:	48 83 ec 18          	sub    $0x18,%rsp
  401370:	64 48 8b 04 25 28 00 	mov    %fs:0x28,%rax
  401377:	00 00 
  401379:	48 89 44 24 08       	mov    %rax,0x8(%rsp)
  40137e:	31 c0                	xor    %eax,%eax
  401380:	48 8d 4c 24 04       	lea    0x4(%rsp),%rcx
  401385:	48 89 e2             	mov    %rsp,%rdx
  401388:	be 9c 39 40 00       	mov    $0x40399c,%esi
  40138d:	e8 9e fa ff ff       	callq  400e30 <__isoc99_sscanf@plt>
  401392:	83 f8 01             	cmp    $0x1,%eax
  401395:	7f 05                	jg     40139c <phase3+0x30>
  401397:	e8 04 0a 00 00       	callq  401da0 <explode_bomb>
  40139c:	83 3c 24 07          	cmpl   $0x7,(%rsp)
  4013a0:	77 6d                	ja     40140f <phase3+0xa3>
  4013a2:	8b 04 24             	mov    (%rsp),%eax
  4013a5:	ff 24 c5 e0 30 40 00 	jmpq   *0x4030e0(,%rax,8)
  4013ac:	8b 05 da 45 20 00    	mov    0x2045da(%rip),%eax        # 60598c <completed.7585+0x644>
  4013b2:	eb 05                	jmp    4013b9 <phase3+0x4d>
  4013b4:	b8 00 00 00 00       	mov    $0x0,%eax
  4013b9:	2b 05 d9 45 20 00    	sub    0x2045d9(%rip),%eax        # 605998 <completed.7585+0x650>
  4013bf:	eb 05                	jmp    4013c6 <phase3+0x5a>
  4013c1:	b8 00 00 00 00       	mov    $0x0,%eax
  4013c6:	03 05 bc 45 20 00    	add    0x2045bc(%rip),%eax        # 605988 <completed.7585+0x640>
  4013cc:	eb 05                	jmp    4013d3 <phase3+0x67>
  4013ce:	b8 00 00 00 00       	mov    $0x0,%eax
  4013d3:	2b 05 ab 45 20 00    	sub    0x2045ab(%rip),%eax        # 605984 <completed.7585+0x63c>
  4013d9:	eb 05                	jmp    4013e0 <phase3+0x74>
  4013db:	b8 00 00 00 00       	mov    $0x0,%eax
  4013e0:	03 05 b6 45 20 00    	add    0x2045b6(%rip),%eax        # 60599c <completed.7585+0x654>
  4013e6:	eb 05                	jmp    4013ed <phase3+0x81>
  4013e8:	b8 00 00 00 00       	mov    $0x0,%eax
  4013ed:	2b 05 9d 45 20 00    	sub    0x20459d(%rip),%eax        # 605990 <completed.7585+0x648>
  4013f3:	eb 05                	jmp    4013fa <phase3+0x8e>
  4013f5:	b8 00 00 00 00       	mov    $0x0,%eax
  4013fa:	03 05 80 45 20 00    	add    0x204580(%rip),%eax        # 605980 <completed.7585+0x638>
  401400:	eb 05                	jmp    401407 <phase3+0x9b>
  401402:	b8 00 00 00 00       	mov    $0x0,%eax
  401407:	2b 05 87 45 20 00    	sub    0x204587(%rip),%eax        # 605994 <completed.7585+0x64c>
  40140d:	eb 0a                	jmp    401419 <phase3+0xad>
  40140f:	e8 8c 09 00 00       	callq  401da0 <explode_bomb>
  401414:	b8 00 00 00 00       	mov    $0x0,%eax
  401419:	83 3c 24 05          	cmpl   $0x5,(%rsp)
  40141d:	7f 06                	jg     401425 <phase3+0xb9>
  40141f:	3b 44 24 04          	cmp    0x4(%rsp),%eax
  401423:	74 05                	je     40142a <phase3+0xbe>
  401425:	e8 76 09 00 00       	callq  401da0 <explode_bomb>
  40142a:	48 8b 44 24 08       	mov    0x8(%rsp),%rax
  40142f:	64 48 33 04 25 28 00 	xor    %fs:0x28,%rax
  401436:	00 00 
  401438:	74 05                	je     40143f <phase3+0xd3>
  40143a:	e8 01 f9 ff ff       	callq  400d40 <__stack_chk_fail@plt>
  40143f:	48 83 c4 18          	add    $0x18,%rsp
  401443:	c3                   	retq   
  401444:	41 55                	push   %r13
  401446:	41 54                	push   %r12
  401448:	41 bd 01 00 00 00    	mov    $0x1,%r13d
  40144e:	55                   	push   %rbp
  40144f:	53                   	push   %rbx
  401450:	41 bc 80 53 60 00    	mov    $0x605380,%r12d
  401456:	31 ed                	xor    %ebp,%ebp
  401458:	bb 21 05 34 83       	mov    $0x83340521,%ebx
  40145d:	48 83 ec 08          	sub    $0x8,%rsp
  401461:	eb 23                	jmp    401486 <phase3+0x11a>
  401463:	89 e8                	mov    %ebp,%eax
  401465:	d1 f8                	sar    %eax
  401467:	41 83 fd 3f          	cmp    $0x3f,%r13d
  40146b:	48 98                	cltq   
  40146d:	48 8d 04 40          	lea    (%rax,%rax,2),%rax
  401471:	4c 89 24 c5 88 53 60 	mov    %r12,0x605388(,%rax,8)
  401478:	00 
  401479:	74 52                	je     4014cd <phase3+0x161>
  40147b:	83 c5 01             	add    $0x1,%ebp
  40147e:	49 83 c4 18          	add    $0x18,%r12
  401482:	41 83 c5 01          	add    $0x1,%r13d
  401486:	e8 35 fa ff ff       	callq  400ec0 <rand@plt>
  40148b:	89 c1                	mov    %eax,%ecx
  40148d:	f7 eb                	imul   %ebx
  40148f:	89 c8                	mov    %ecx,%eax
  401491:	c1 f8 1f             	sar    $0x1f,%eax
  401494:	01 ca                	add    %ecx,%edx
  401496:	c1 fa 09             	sar    $0x9,%edx
  401499:	29 c2                	sub    %eax,%edx
  40149b:	69 d2 e7 03 00 00    	imul   $0x3e7,%edx,%edx
  4014a1:	29 d1                	sub    %edx,%ecx
  4014a3:	83 c1 01             	add    $0x1,%ecx
  4014a6:	40 f6 c5 01          	test   $0x1,%bpl
  4014aa:	41 89 0c 24          	mov    %ecx,(%r12)
  4014ae:	75 b3                	jne    401463 <phase3+0xf7>
  4014b0:	85 ed                	test   %ebp,%ebp
  4014b2:	74 c7                	je     40147b <phase3+0x10f>
  4014b4:	8d 45 ff             	lea    -0x1(%rbp),%eax
  4014b7:	d1 f8                	sar    %eax
  4014b9:	41 83 fd 3f          	cmp    $0x3f,%r13d
  4014bd:	48 98                	cltq   
  4014bf:	48 8d 04 40          	lea    (%rax,%rax,2),%rax
  4014c3:	4c 89 24 c5 90 53 60 	mov    %r12,0x605390(,%rax,8)
  4014ca:	00 
  4014cb:	75 ae                	jne    40147b <phase3+0x10f>
  4014cd:	48 83 c4 08          	add    $0x8,%rsp
  4014d1:	5b                   	pop    %rbx
  4014d2:	5d                   	pop    %rbp
  4014d3:	41 5c                	pop    %r12
  4014d5:	41 5d                	pop    %r13
  4014d7:	c3                   	retq   

00000000004014d8 <fun4>:
  4014d8:	55                   	push   %rbp
  4014d9:	53                   	push   %rbx
  4014da:	48 83 ec 08          	sub    $0x8,%rsp
  4014de:	39 37                	cmp    %esi,(%rdi)
  4014e0:	75 0e                	jne    4014f0 <fun4+0x18>
  4014e2:	48 83 7f 08 00       	cmpq   $0x0,0x8(%rdi)
  4014e7:	75 07                	jne    4014f0 <fun4+0x18>
  4014e9:	48 83 7f 10 00       	cmpq   $0x0,0x10(%rdi)
  4014ee:	74 35                	je     401525 <fun4+0x4d>
  4014f0:	89 f5                	mov    %esi,%ebp
  4014f2:	48 89 fb             	mov    %rdi,%rbx
  4014f5:	48 8b 7f 08          	mov    0x8(%rdi),%rdi
  4014f9:	48 85 ff             	test   %rdi,%rdi
  4014fc:	74 0d                	je     40150b <fun4+0x33>
  4014fe:	e8 d5 ff ff ff       	callq  4014d8 <fun4>
  401503:	85 c0                	test   %eax,%eax
  401505:	78 04                	js     40150b <fun4+0x33>
  401507:	01 c0                	add    %eax,%eax
  401509:	eb 2d                	jmp    401538 <fun4+0x60>
  40150b:	48 8b 7b 10          	mov    0x10(%rbx),%rdi
  40150f:	48 85 ff             	test   %rdi,%rdi
  401512:	74 18                	je     40152c <fun4+0x54>
  401514:	89 ee                	mov    %ebp,%esi
  401516:	e8 bd ff ff ff       	callq  4014d8 <fun4>
  40151b:	85 c0                	test   %eax,%eax
  40151d:	78 14                	js     401533 <fun4+0x5b>
  40151f:	8d 44 00 01          	lea    0x1(%rax,%rax,1),%eax
  401523:	eb 13                	jmp    401538 <fun4+0x60>
  401525:	b8 00 00 00 00       	mov    $0x0,%eax
  40152a:	eb 0c                	jmp    401538 <fun4+0x60>
  40152c:	b8 ff ff ff ff       	mov    $0xffffffff,%eax
  401531:	eb 05                	jmp    401538 <fun4+0x60>
  401533:	b8 ff ff ff ff       	mov    $0xffffffff,%eax
  401538:	48 83 c4 08          	add    $0x8,%rsp
  40153c:	5b                   	pop    %rbx
  40153d:	5d                   	pop    %rbp
  40153e:	c3                   	retq   

000000000040153f <phase4>:
  40153f:	48 83 ec 18          	sub    $0x18,%rsp
  401543:	64 48 8b 04 25 28 00 	mov    %fs:0x28,%rax
  40154a:	00 00 
  40154c:	48 89 44 24 08       	mov    %rax,0x8(%rsp)
  401551:	31 c0                	xor    %eax,%eax
  401553:	48 8d 4c 24 04       	lea    0x4(%rsp),%rcx
  401558:	48 89 e2             	mov    %rsp,%rdx
  40155b:	be 9c 39 40 00       	mov    $0x40399c,%esi
  401560:	e8 cb f8 ff ff       	callq  400e30 <__isoc99_sscanf@plt>
  401565:	83 f8 01             	cmp    $0x1,%eax
  401568:	7f 05                	jg     40156f <phase4+0x30>
  40156a:	e8 31 08 00 00       	callq  401da0 <explode_bomb>
  40156f:	8b 34 24             	mov    (%rsp),%esi
  401572:	bf 80 53 60 00       	mov    $0x605380,%edi
  401577:	e8 5c ff ff ff       	callq  4014d8 <fun4>
  40157c:	3b 44 24 04          	cmp    0x4(%rsp),%eax
  401580:	74 05                	je     401587 <phase4+0x48>
  401582:	e8 19 08 00 00       	callq  401da0 <explode_bomb>
  401587:	48 8b 44 24 08       	mov    0x8(%rsp),%rax
  40158c:	64 48 33 04 25 28 00 	xor    %fs:0x28,%rax
  401593:	00 00 
  401595:	74 05                	je     40159c <phase4+0x5d>
  401597:	e8 a4 f7 ff ff       	callq  400d40 <__stack_chk_fail@plt>
  40159c:	48 83 c4 18          	add    $0x18,%rsp
  4015a0:	c3                   	retq   
  4015a1:	48 83 ec 08          	sub    $0x8,%rsp
  4015a5:	e8 16 f9 ff ff       	callq  400ec0 <rand@plt>
  4015aa:	ba 89 88 88 88       	mov    $0x88888889,%edx
  4015af:	89 c1                	mov    %eax,%ecx
  4015b1:	f7 ea                	imul   %edx
  4015b3:	89 c8                	mov    %ecx,%eax
  4015b5:	c1 f8 1f             	sar    $0x1f,%eax
  4015b8:	01 ca                	add    %ecx,%edx
  4015ba:	c1 fa 03             	sar    $0x3,%edx
  4015bd:	29 c2                	sub    %eax,%edx
  4015bf:	89 d0                	mov    %edx,%eax
  4015c1:	c1 e0 04             	shl    $0x4,%eax
  4015c4:	29 d0                	sub    %edx,%eax
  4015c6:	29 c1                	sub    %eax,%ecx
  4015c8:	83 c1 01             	add    $0x1,%ecx
  4015cb:	89 0d 93 3d 20 00    	mov    %ecx,0x203d93(%rip)        # 605364 <completed.7585+0x1c>
  4015d1:	48 83 c4 08          	add    $0x8,%rsp
  4015d5:	c3                   	retq   

00000000004015d6 <phase5>:
  4015d6:	48 83 ec 18          	sub    $0x18,%rsp
  4015da:	64 48 8b 04 25 28 00 	mov    %fs:0x28,%rax
  4015e1:	00 00 
  4015e3:	48 89 44 24 08       	mov    %rax,0x8(%rsp)
  4015e8:	31 c0                	xor    %eax,%eax
  4015ea:	48 8d 4c 24 04       	lea    0x4(%rsp),%rcx
  4015ef:	48 89 e2             	mov    %rsp,%rdx
  4015f2:	be 9c 39 40 00       	mov    $0x40399c,%esi
  4015f7:	e8 34 f8 ff ff       	callq  400e30 <__isoc99_sscanf@plt>
  4015fc:	83 f8 01             	cmp    $0x1,%eax
  4015ff:	7f 05                	jg     401606 <phase5+0x30>
  401601:	e8 9a 07 00 00       	callq  401da0 <explode_bomb>
  401606:	8b 04 24             	mov    (%rsp),%eax
  401609:	83 e0 0f             	and    $0xf,%eax
  40160c:	89 04 24             	mov    %eax,(%rsp)
  40160f:	b9 00 00 00 00       	mov    $0x0,%ecx
  401614:	ba 00 00 00 00       	mov    $0x0,%edx
  401619:	eb 0f                	jmp    40162a <phase5+0x54>
  40161b:	83 c2 01             	add    $0x1,%edx
  40161e:	8b 04 85 20 31 40 00 	mov    0x403120(,%rax,4),%eax
  401625:	89 04 24             	mov    %eax,(%rsp)
  401628:	01 c1                	add    %eax,%ecx
  40162a:	48 63 04 24          	movslq (%rsp),%rax
  40162e:	83 f8 0f             	cmp    $0xf,%eax
  401631:	75 e8                	jne    40161b <phase5+0x45>
  401633:	3b 15 2b 3d 20 00    	cmp    0x203d2b(%rip),%edx        # 605364 <completed.7585+0x1c>
  401639:	75 06                	jne    401641 <phase5+0x6b>
  40163b:	3b 4c 24 04          	cmp    0x4(%rsp),%ecx
  40163f:	74 05                	je     401646 <phase5+0x70>
  401641:	e8 5a 07 00 00       	callq  401da0 <explode_bomb>
  401646:	48 8b 44 24 08       	mov    0x8(%rsp),%rax
  40164b:	64 48 33 04 25 28 00 	xor    %fs:0x28,%rax
  401652:	00 00 
  401654:	74 05                	je     40165b <phase5+0x85>
  401656:	e8 e5 f6 ff ff       	callq  400d40 <__stack_chk_fail@plt>
  40165b:	48 83 c4 18          	add    $0x18,%rsp
  40165f:	c3                   	retq   
  401660:	48 83 ec 08          	sub    $0x8,%rsp
  401664:	e8 57 f8 ff ff       	callq  400ec0 <rand@plt>
  401669:	25 ff ff 00 00       	and    $0xffff,%eax
  40166e:	89 05 ec 3a 20 00    	mov    %eax,0x203aec(%rip)        # 605160 <__dso_handle+0x18>
  401674:	e8 47 f8 ff ff       	callq  400ec0 <rand@plt>
  401679:	25 ff ff 00 00       	and    $0xffff,%eax
  40167e:	89 05 ec 3a 20 00    	mov    %eax,0x203aec(%rip)        # 605170 <__dso_handle+0x28>
  401684:	e8 37 f8 ff ff       	callq  400ec0 <rand@plt>
  401689:	25 ff ff 00 00       	and    $0xffff,%eax
  40168e:	89 05 ec 3a 20 00    	mov    %eax,0x203aec(%rip)        # 605180 <__dso_handle+0x38>
  401694:	e8 27 f8 ff ff       	callq  400ec0 <rand@plt>
  401699:	25 ff ff 00 00       	and    $0xffff,%eax
  40169e:	89 05 ec 3a 20 00    	mov    %eax,0x203aec(%rip)        # 605190 <__dso_handle+0x48>
  4016a4:	e8 17 f8 ff ff       	callq  400ec0 <rand@plt>
  4016a9:	25 ff ff 00 00       	and    $0xffff,%eax
  4016ae:	89 05 ec 3a 20 00    	mov    %eax,0x203aec(%rip)        # 6051a0 <__dso_handle+0x58>
  4016b4:	e8 07 f8 ff ff       	callq  400ec0 <rand@plt>
  4016b9:	25 ff ff 00 00       	and    $0xffff,%eax
  4016be:	89 05 ec 3a 20 00    	mov    %eax,0x203aec(%rip)        # 6051b0 <__dso_handle+0x68>
  4016c4:	48 83 c4 08          	add    $0x8,%rsp
  4016c8:	c3                   	retq   

00000000004016c9 <phase6>:
  4016c9:	41 54                	push   %r12
  4016cb:	55                   	push   %rbp
  4016cc:	53                   	push   %rbx
  4016cd:	48 83 ec 60          	sub    $0x60,%rsp
  4016d1:	64 48 8b 04 25 28 00 	mov    %fs:0x28,%rax
  4016d8:	00 00 
  4016da:	48 89 44 24 58       	mov    %rax,0x58(%rsp)
  4016df:	31 c0                	xor    %eax,%eax
  4016e1:	48 89 e6             	mov    %rsp,%rsi
  4016e4:	e8 f7 06 00 00       	callq  401de0 <read_six_numbers>
  4016e9:	bd 00 00 00 00       	mov    $0x0,%ebp
  4016ee:	eb 3a                	jmp    40172a <phase6+0x61>
  4016f0:	48 63 c5             	movslq %ebp,%rax
  4016f3:	8b 04 84             	mov    (%rsp,%rax,4),%eax
  4016f6:	83 e8 01             	sub    $0x1,%eax
  4016f9:	83 f8 05             	cmp    $0x5,%eax
  4016fc:	76 05                	jbe    401703 <phase6+0x3a>
  4016fe:	e8 9d 06 00 00       	callq  401da0 <explode_bomb>
  401703:	44 8d 65 01          	lea    0x1(%rbp),%r12d
  401707:	44 89 e3             	mov    %r12d,%ebx
  40170a:	eb 16                	jmp    401722 <phase6+0x59>
  40170c:	48 63 c5             	movslq %ebp,%rax
  40170f:	48 63 d3             	movslq %ebx,%rdx
  401712:	8b 3c 94             	mov    (%rsp,%rdx,4),%edi
  401715:	39 3c 84             	cmp    %edi,(%rsp,%rax,4)
  401718:	75 05                	jne    40171f <phase6+0x56>
  40171a:	e8 81 06 00 00       	callq  401da0 <explode_bomb>
  40171f:	83 c3 01             	add    $0x1,%ebx
  401722:	83 fb 05             	cmp    $0x5,%ebx
  401725:	7e e5                	jle    40170c <phase6+0x43>
  401727:	44 89 e5             	mov    %r12d,%ebp
  40172a:	83 fd 05             	cmp    $0x5,%ebp
  40172d:	7e c1                	jle    4016f0 <phase6+0x27>
  40172f:	be 00 00 00 00       	mov    $0x0,%esi
  401734:	eb 23                	jmp    401759 <phase6+0x90>
  401736:	48 8b 52 08          	mov    0x8(%rdx),%rdx
  40173a:	83 c0 01             	add    $0x1,%eax
  40173d:	eb 0a                	jmp    401749 <phase6+0x80>
  40173f:	b8 01 00 00 00       	mov    $0x1,%eax
  401744:	ba 60 51 60 00       	mov    $0x605160,%edx
  401749:	48 63 ce             	movslq %esi,%rcx
  40174c:	3b 04 8c             	cmp    (%rsp,%rcx,4),%eax
  40174f:	7c e5                	jl     401736 <phase6+0x6d>
  401751:	48 89 54 cc 20       	mov    %rdx,0x20(%rsp,%rcx,8)
  401756:	83 c6 01             	add    $0x1,%esi
  401759:	83 fe 05             	cmp    $0x5,%esi
  40175c:	7e e1                	jle    40173f <phase6+0x76>
  40175e:	48 8b 5c 24 20       	mov    0x20(%rsp),%rbx
  401763:	48 89 d9             	mov    %rbx,%rcx
  401766:	b8 01 00 00 00       	mov    $0x1,%eax
  40176b:	eb 12                	jmp    40177f <phase6+0xb6>
  40176d:	48 63 d0             	movslq %eax,%rdx
  401770:	48 8b 54 d4 20       	mov    0x20(%rsp,%rdx,8),%rdx
  401775:	48 89 51 08          	mov    %rdx,0x8(%rcx)
  401779:	83 c0 01             	add    $0x1,%eax
  40177c:	48 89 d1             	mov    %rdx,%rcx
  40177f:	83 f8 05             	cmp    $0x5,%eax
  401782:	7e e9                	jle    40176d <phase6+0xa4>
  401784:	48 c7 41 08 00 00 00 	movq   $0x0,0x8(%rcx)
  40178b:	00 
  40178c:	bd 00 00 00 00       	mov    $0x0,%ebp
  401791:	eb 16                	jmp    4017a9 <phase6+0xe0>
  401793:	48 8b 43 08          	mov    0x8(%rbx),%rax
  401797:	8b 00                	mov    (%rax),%eax
  401799:	39 03                	cmp    %eax,(%rbx)
  40179b:	7d 05                	jge    4017a2 <phase6+0xd9>
  40179d:	e8 fe 05 00 00       	callq  401da0 <explode_bomb>
  4017a2:	48 8b 5b 08          	mov    0x8(%rbx),%rbx
  4017a6:	83 c5 01             	add    $0x1,%ebp
  4017a9:	83 fd 04             	cmp    $0x4,%ebp
  4017ac:	7e e5                	jle    401793 <phase6+0xca>
  4017ae:	48 8b 44 24 58       	mov    0x58(%rsp),%rax
  4017b3:	64 48 33 04 25 28 00 	xor    %fs:0x28,%rax
  4017ba:	00 00 
  4017bc:	74 05                	je     4017c3 <phase6+0xfa>
  4017be:	e8 7d f5 ff ff       	callq  400d40 <__stack_chk_fail@plt>
  4017c3:	48 83 c4 60          	add    $0x60,%rsp
  4017c7:	5b                   	pop    %rbx
  4017c8:	5d                   	pop    %rbp
  4017c9:	41 5c                	pop    %r12
  4017cb:	c3                   	retq   
  4017cc:	48 83 ec 08          	sub    $0x8,%rsp
  4017d0:	e8 eb f6 ff ff       	callq  400ec0 <rand@plt>
  4017d5:	ba 5b f0 8d 21       	mov    $0x218df05b,%edx
  4017da:	89 c1                	mov    %eax,%ecx
  4017dc:	f7 ea                	imul   %edx
  4017de:	89 c8                	mov    %ecx,%eax
  4017e0:	c1 f8 1f             	sar    $0x1f,%eax
  4017e3:	c1 fa 12             	sar    $0x12,%edx
  4017e6:	29 c2                	sub    %eax,%edx
  4017e8:	69 d2 7f 84 1e 00    	imul   $0x1e847f,%edx,%edx
  4017ee:	29 d1                	sub    %edx,%ecx
  4017f0:	81 e9 3f 42 0f 00    	sub    $0xf423f,%ecx
  4017f6:	89 0d 64 3b 20 00    	mov    %ecx,0x203b64(%rip)        # 605360 <completed.7585+0x18>
  4017fc:	48 83 c4 08          	add    $0x8,%rsp
  401800:	c3                   	retq   

0000000000401801 <secret_phase>:
  401801:	53                   	push   %rbx
  401802:	48 83 ec 20          	sub    $0x20,%rsp
  401806:	64 48 8b 04 25 28 00 	mov    %fs:0x28,%rax
  40180d:	00 00 
  40180f:	48 89 44 24 18       	mov    %rax,0x18(%rsp)
  401814:	31 c0                	xor    %eax,%eax
  401816:	e8 15 07 00 00       	callq  401f30 <read_line>
  40181b:	ba 00 00 00 00       	mov    $0x0,%edx
  401820:	be 00 00 00 00       	mov    $0x0,%esi
  401825:	48 89 c7             	mov    %rax,%rdi
  401828:	e8 43 f6 ff ff       	callq  400e70 <strtoul@plt>
  40182d:	89 44 24 10          	mov    %eax,0x10(%rsp)
  401831:	89 c7                	mov    %eax,%edi
  401833:	81 e7 00 00 80 7f    	and    $0x7f800000,%edi
  401839:	c1 ef 17             	shr    $0x17,%edi
  40183c:	89 c6                	mov    %eax,%esi
  40183e:	81 e6 ff ff 7f 00    	and    $0x7fffff,%esi
  401844:	c1 f8 1f             	sar    $0x1f,%eax
  401847:	83 ff 7e             	cmp    $0x7e,%edi
  40184a:	76 07                	jbe    401853 <secret_phase+0x52>
  40184c:	ba ff ff ff ff       	mov    $0xffffffff,%edx
  401851:	eb 05                	jmp    401858 <secret_phase+0x57>
  401853:	ba 00 00 00 00       	mov    $0x0,%edx
  401858:	81 ce 00 00 80 00    	or     $0x800000,%esi
  40185e:	b9 96 00 00 00       	mov    $0x96,%ecx
  401863:	29 f9                	sub    %edi,%ecx
  401865:	d3 ee                	shr    %cl,%esi
  401867:	21 f2                	and    %esi,%edx
  401869:	89 d3                	mov    %edx,%ebx
  40186b:	f7 db                	neg    %ebx
  40186d:	31 d3                	xor    %edx,%ebx
  40186f:	21 d8                	and    %ebx,%eax
  401871:	31 d0                	xor    %edx,%eax
  401873:	89 c3                	mov    %eax,%ebx
  401875:	3b 05 e5 3a 20 00    	cmp    0x203ae5(%rip),%eax        # 605360 <completed.7585+0x18>
  40187b:	74 05                	je     401882 <secret_phase+0x81>
  40187d:	e8 1e 05 00 00       	callq  401da0 <explode_bomb>
  401882:	89 5c 24 0c          	mov    %ebx,0xc(%rsp)
  401886:	db 44 24 0c          	fildl  0xc(%rsp)
  40188a:	d9 5c 24 14          	fstps  0x14(%rsp)
  40188e:	ba 04 00 00 00       	mov    $0x4,%edx
  401893:	48 8d 74 24 10       	lea    0x10(%rsp),%rsi
  401898:	48 8d 7c 24 14       	lea    0x14(%rsp),%rdi
  40189d:	e8 0e f5 ff ff       	callq  400db0 <memcmp@plt>
  4018a2:	85 c0                	test   %eax,%eax
  4018a4:	74 05                	je     4018ab <secret_phase+0xaa>
  4018a6:	e8 f5 04 00 00       	callq  401da0 <explode_bomb>
  4018ab:	48 8b 44 24 18       	mov    0x18(%rsp),%rax
  4018b0:	64 48 33 04 25 28 00 	xor    %fs:0x28,%rax
  4018b7:	00 00 
  4018b9:	74 05                	je     4018c0 <secret_phase+0xbf>
  4018bb:	e8 80 f4 ff ff       	callq  400d40 <__stack_chk_fail@plt>
  4018c0:	48 83 c4 20          	add    $0x20,%rsp
  4018c4:	5b                   	pop    %rbx
  4018c5:	c3                   	retq   
  4018c6:	66 2e 0f 1f 84 00 00 	nopw   %cs:0x0(%rax,%rax,1)
  4018cd:	00 00 00 

00000000004018d0 <test_secret_phrase>:
  4018d0:	89 f8                	mov    %edi,%eax
  4018d2:	83 e0 fb             	and    $0xfffffffb,%eax
  4018d5:	83 f8 01             	cmp    $0x1,%eax
  4018d8:	0f 84 4a 01 00 00    	je     401a28 <test_secret_phrase+0x158>
  4018de:	41 55                	push   %r13
  4018e0:	41 54                	push   %r12
  4018e2:	55                   	push   %rbp
  4018e3:	53                   	push   %rbx
  4018e4:	8d 5f ff             	lea    -0x1(%rdi),%ebx
  4018e7:	48 83 ec 08          	sub    $0x8,%rsp
  4018eb:	83 fb 06             	cmp    $0x6,%ebx
  4018ee:	74 71                	je     401961 <test_secret_phrase+0x91>
  4018f0:	83 ef 03             	sub    $0x3,%edi
  4018f3:	83 ff 01             	cmp    $0x1,%edi
  4018f6:	0f 86 e4 00 00 00    	jbe    4019e0 <test_secret_phrase+0x110>
  4018fc:	48 63 db             	movslq %ebx,%rbx
  4018ff:	48 8d 04 9b          	lea    (%rbx,%rbx,4),%rax
  401903:	48 8d 04 80          	lea    (%rax,%rax,4),%rax
  401907:	48 8d 2c 85 60 5a 60 	lea    0x605a60(,%rax,4),%rbp
  40190e:	00 
  40190f:	48 89 ef             	mov    %rbp,%rdi
  401912:	e8 19 f4 ff ff       	callq  400d30 <strlen@plt>
  401917:	48 8d 78 04          	lea    0x4(%rax),%rdi
  40191b:	48 89 c3             	mov    %rax,%rbx
  40191e:	e8 ed f4 ff ff       	callq  400e10 <malloc@plt>
  401923:	48 8d 53 01          	lea    0x1(%rbx),%rdx
  401927:	48 89 ee             	mov    %rbp,%rsi
  40192a:	48 89 c7             	mov    %rax,%rdi
  40192d:	bd 06 00 00 00       	mov    $0x6,%ebp
  401932:	49 89 c4             	mov    %rax,%r12
  401935:	e8 c6 f4 ff ff       	callq  400e00 <memcpy@plt>
  40193a:	4c 89 e3             	mov    %r12,%rbx
  40193d:	eb 10                	jmp    40194f <test_secret_phrase+0x7f>
  40193f:	90                   	nop
  401940:	83 ed 01             	sub    $0x1,%ebp
  401943:	48 8d 58 01          	lea    0x1(%rax),%rbx
  401947:	8d 45 01             	lea    0x1(%rbp),%eax
  40194a:	83 f8 01             	cmp    $0x1,%eax
  40194d:	7e 21                	jle    401970 <test_secret_phrase+0xa0>
  40194f:	be 20 00 00 00       	mov    $0x20,%esi
  401954:	48 89 df             	mov    %rbx,%rdi
  401957:	e8 f4 f3 ff ff       	callq  400d50 <strchr@plt>
  40195c:	48 85 c0             	test   %rax,%rax
  40195f:	75 df                	jne    401940 <test_secret_phrase+0x70>
  401961:	31 c0                	xor    %eax,%eax
  401963:	48 83 c4 08          	add    $0x8,%rsp
  401967:	5b                   	pop    %rbx
  401968:	5d                   	pop    %rbp
  401969:	41 5c                	pop    %r12
  40196b:	41 5d                	pop    %r13
  40196d:	c3                   	retq   
  40196e:	66 90                	xchg   %ax,%ax
  401970:	be 20 00 00 00       	mov    $0x20,%esi
  401975:	48 89 df             	mov    %rbx,%rdi
  401978:	e8 d3 f3 ff ff       	callq  400d50 <strchr@plt>
  40197d:	48 85 c0             	test   %rax,%rax
  401980:	74 03                	je     401985 <test_secret_phrase+0xb5>
  401982:	c6 00 00             	movb   $0x0,(%rax)
  401985:	48 89 df             	mov    %rbx,%rdi
  401988:	e8 a3 f3 ff ff       	callq  400d30 <strlen@plt>
  40198d:	48 8d 78 04          	lea    0x4(%rax),%rdi
  401991:	48 89 c5             	mov    %rax,%rbp
  401994:	e8 77 f4 ff ff       	callq  400e10 <malloc@plt>
  401999:	48 8d 55 01          	lea    0x1(%rbp),%rdx
  40199d:	48 89 de             	mov    %rbx,%rsi
  4019a0:	48 89 c7             	mov    %rax,%rdi
  4019a3:	49 89 c5             	mov    %rax,%r13
  4019a6:	e8 55 f4 ff ff       	callq  400e00 <memcpy@plt>
  4019ab:	4c 89 e7             	mov    %r12,%rdi
  4019ae:	e8 2d f3 ff ff       	callq  400ce0 <free@plt>
  4019b3:	4c 89 ef             	mov    %r13,%rdi
  4019b6:	be 10 39 40 00       	mov    $0x403910,%esi
  4019bb:	e8 02 f8 ff ff       	callq  4011c2 <strings_not_equal>
  4019c0:	85 c0                	test   %eax,%eax
  4019c2:	4c 89 ef             	mov    %r13,%rdi
  4019c5:	75 64                	jne    401a2b <test_secret_phrase+0x15b>
  4019c7:	e8 14 f3 ff ff       	callq  400ce0 <free@plt>
  4019cc:	48 83 c4 08          	add    $0x8,%rsp
  4019d0:	b8 01 00 00 00       	mov    $0x1,%eax
  4019d5:	5b                   	pop    %rbx
  4019d6:	5d                   	pop    %rbp
  4019d7:	41 5c                	pop    %r12
  4019d9:	41 5d                	pop    %r13
  4019db:	c3                   	retq   
  4019dc:	0f 1f 40 00          	nopl   0x0(%rax)
  4019e0:	48 63 c3             	movslq %ebx,%rax
  4019e3:	48 8d 04 80          	lea    (%rax,%rax,4),%rax
  4019e7:	48 8d 04 80          	lea    (%rax,%rax,4),%rax
  4019eb:	4c 8d 2c 85 60 5a 60 	lea    0x605a60(,%rax,4),%r13
  4019f2:	00 
  4019f3:	4c 89 ef             	mov    %r13,%rdi
  4019f6:	e8 35 f3 ff ff       	callq  400d30 <strlen@plt>
  4019fb:	48 8d 78 04          	lea    0x4(%rax),%rdi
  4019ff:	48 89 c5             	mov    %rax,%rbp
  401a02:	e8 09 f4 ff ff       	callq  400e10 <malloc@plt>
  401a07:	48 8d 55 01          	lea    0x1(%rbp),%rdx
  401a0b:	4c 89 ee             	mov    %r13,%rsi
  401a0e:	48 89 c7             	mov    %rax,%rdi
  401a11:	bd 05 00 00 00       	mov    $0x5,%ebp
  401a16:	49 89 c4             	mov    %rax,%r12
  401a19:	29 dd                	sub    %ebx,%ebp
  401a1b:	e8 e0 f3 ff ff       	callq  400e00 <memcpy@plt>
  401a20:	e9 15 ff ff ff       	jmpq   40193a <test_secret_phrase+0x6a>
  401a25:	0f 1f 00             	nopl   (%rax)
  401a28:	31 c0                	xor    %eax,%eax
  401a2a:	c3                   	retq   
  401a2b:	e8 b0 f2 ff ff       	callq  400ce0 <free@plt>
  401a30:	b8 ff ff ff ff       	mov    $0xffffffff,%eax
  401a35:	e9 29 ff ff ff       	jmpq   401963 <test_secret_phrase+0x93>
  401a3a:	66 0f 1f 44 00 00    	nopw   0x0(%rax,%rax,1)

0000000000401a40 <invalid_phase>:
  401a40:	48 89 fa             	mov    %rdi,%rdx
  401a43:	48 83 ec 08          	sub    $0x8,%rsp
  401a47:	bf 01 00 00 00       	mov    $0x1,%edi
  401a4c:	be 28 39 40 00       	mov    $0x403928,%esi
  401a51:	31 c0                	xor    %eax,%eax
  401a53:	e8 f8 f3 ff ff       	callq  400e50 <__printf_chk@plt>
  401a58:	bf 08 00 00 00       	mov    $0x8,%edi
  401a5d:	e8 1e f4 ff ff       	callq  400e80 <exit@plt>
  401a62:	0f 1f 40 00          	nopl   0x0(%rax)
  401a66:	66 2e 0f 1f 84 00 00 	nopw   %cs:0x0(%rax,%rax,1)
  401a6d:	00 00 00 
  401a70:	55                   	push   %rbp
  401a71:	53                   	push   %rbx
  401a72:	be c0 1e 40 00       	mov    $0x401ec0,%esi
  401a77:	bf 02 00 00 00       	mov    $0x2,%edi
  401a7c:	48 81 ec 18 20 00 00 	sub    $0x2018,%rsp
  401a83:	64 48 8b 04 25 28 00 	mov    %fs:0x28,%rax
  401a8a:	00 00 
  401a8c:	48 89 84 24 08 20 00 	mov    %rax,0x2008(%rsp)
  401a93:	00 
  401a94:	31 c0                	xor    %eax,%eax
  401a96:	e8 35 f3 ff ff       	callq  400dd0 <signal@plt>
  401a9b:	be c0 1e 40 00       	mov    $0x401ec0,%esi
  401aa0:	bf 09 00 00 00       	mov    $0x9,%edi
  401aa5:	e8 26 f3 ff ff       	callq  400dd0 <signal@plt>
  401aaa:	be 30 1e 40 00       	mov    $0x401e30,%esi
  401aaf:	bf 0a 00 00 00       	mov    $0xa,%edi
  401ab4:	e8 17 f3 ff ff       	callq  400dd0 <signal@plt>
  401ab9:	be 20 1e 40 00       	mov    $0x401e20,%esi
  401abe:	bf 0b 00 00 00       	mov    $0xb,%edi
  401ac3:	e8 08 f3 ff ff       	callq  400dd0 <signal@plt>
  401ac8:	be 20 1e 40 00       	mov    $0x401e20,%esi
  401acd:	bf 04 00 00 00       	mov    $0x4,%edi
  401ad2:	e8 f9 f2 ff ff       	callq  400dd0 <signal@plt>
  401ad7:	48 89 e7             	mov    %rsp,%rdi
  401ada:	e8 91 11 00 00       	callq  402c70 <init_driver>
  401adf:	85 c0                	test   %eax,%eax
  401ae1:	0f 88 d1 00 00 00    	js     401bb8 <invalid_phase+0x178>
  401ae7:	bf f8 52 60 00       	mov    $0x6052f8,%edi
  401aec:	e8 3f f2 ff ff       	callq  400d30 <strlen@plt>
  401af1:	bf e0 52 60 00       	mov    $0x6052e0,%edi
  401af6:	48 89 c5             	mov    %rax,%rbp
  401af9:	89 c3                	mov    %eax,%ebx
  401afb:	e8 30 f2 ff ff       	callq  400d30 <strlen@plt>
  401b00:	85 ed                	test   %ebp,%ebp
  401b02:	41 89 c0             	mov    %eax,%r8d
  401b05:	0f 8e a1 00 00 00    	jle    401bac <invalid_phase+0x16c>
  401b0b:	31 d2                	xor    %edx,%edx
  401b0d:	be 05 15 00 00       	mov    $0x1505,%esi
  401b12:	66 0f 1f 44 00 00    	nopw   0x0(%rax,%rax,1)
  401b18:	0f be 8a f8 52 60 00 	movsbl 0x6052f8(%rdx),%ecx
  401b1f:	89 f7                	mov    %esi,%edi
  401b21:	48 83 c2 01          	add    $0x1,%rdx
  401b25:	c1 e7 05             	shl    $0x5,%edi
  401b28:	01 f9                	add    %edi,%ecx
  401b2a:	01 ce                	add    %ecx,%esi
  401b2c:	39 d3                	cmp    %edx,%ebx
  401b2e:	7f e8                	jg     401b18 <invalid_phase+0xd8>
  401b30:	8d 3c f6             	lea    (%rsi,%rsi,8),%edi
  401b33:	85 c0                	test   %eax,%eax
  401b35:	7e 22                	jle    401b59 <invalid_phase+0x119>
  401b37:	31 c0                	xor    %eax,%eax
  401b39:	0f 1f 80 00 00 00 00 	nopl   0x0(%rax)
  401b40:	0f be 90 e0 52 60 00 	movsbl 0x6052e0(%rax),%edx
  401b47:	89 f9                	mov    %edi,%ecx
  401b49:	48 83 c0 01          	add    $0x1,%rax
  401b4d:	c1 e1 05             	shl    $0x5,%ecx
  401b50:	01 ca                	add    %ecx,%edx
  401b52:	01 d7                	add    %edx,%edi
  401b54:	41 39 c0             	cmp    %eax,%r8d
  401b57:	7f e7                	jg     401b40 <invalid_phase+0x100>
  401b59:	e8 42 f2 ff ff       	callq  400da0 <srand@plt>
  401b5e:	31 c0                	xor    %eax,%eax
  401b60:	e8 aa f6 ff ff       	callq  40120f <strings_not_equal+0x4d>
  401b65:	31 c0                	xor    %eax,%eax
  401b67:	e8 02 f7 ff ff       	callq  40126e <phase1+0x1c>
  401b6c:	31 c0                	xor    %eax,%eax
  401b6e:	e8 b7 f7 ff ff       	callq  40132a <phase2+0x81>
  401b73:	31 c0                	xor    %eax,%eax
  401b75:	e8 ca f8 ff ff       	callq  401444 <phase3+0xd8>
  401b7a:	31 c0                	xor    %eax,%eax
  401b7c:	e8 20 fa ff ff       	callq  4015a1 <phase4+0x62>
  401b81:	31 c0                	xor    %eax,%eax
  401b83:	e8 d8 fa ff ff       	callq  401660 <phase5+0x8a>
  401b88:	31 c0                	xor    %eax,%eax
  401b8a:	e8 3d fc ff ff       	callq  4017cc <phase6+0x103>
  401b8f:	48 8b 84 24 08 20 00 	mov    0x2008(%rsp),%rax
  401b96:	00 
  401b97:	64 48 33 04 25 28 00 	xor    %fs:0x28,%rax
  401b9e:	00 00 
  401ba0:	75 11                	jne    401bb3 <invalid_phase+0x173>
  401ba2:	48 81 c4 18 20 00 00 	add    $0x2018,%rsp
  401ba9:	5b                   	pop    %rbx
  401baa:	5d                   	pop    %rbp
  401bab:	c3                   	retq   
  401bac:	bf 2d bd 00 00       	mov    $0xbd2d,%edi
  401bb1:	eb 80                	jmp    401b33 <invalid_phase+0xf3>
  401bb3:	e8 88 f1 ff ff       	callq  400d40 <__stack_chk_fail@plt>
  401bb8:	bf 01 00 00 00       	mov    $0x1,%edi
  401bbd:	48 89 e2             	mov    %rsp,%rdx
  401bc0:	be 39 39 40 00       	mov    $0x403939,%esi
  401bc5:	31 c0                	xor    %eax,%eax
  401bc7:	e8 84 f2 ff ff       	callq  400e50 <__printf_chk@plt>
  401bcc:	bf 08 00 00 00       	mov    $0x8,%edi
  401bd1:	e8 aa f2 ff ff       	callq  400e80 <exit@plt>
  401bd6:	66 2e 0f 1f 84 00 00 	nopw   %cs:0x0(%rax,%rax,1)
  401bdd:	00 00 00 
  401be0:	55                   	push   %rbp
  401be1:	53                   	push   %rbx
  401be2:	bf f8 52 60 00       	mov    $0x6052f8,%edi
  401be7:	48 83 ec 08          	sub    $0x8,%rsp
  401beb:	e8 40 f1 ff ff       	callq  400d30 <strlen@plt>
  401bf0:	bf e0 52 60 00       	mov    $0x6052e0,%edi
  401bf5:	48 89 c5             	mov    %rax,%rbp
  401bf8:	89 c3                	mov    %eax,%ebx
  401bfa:	e8 31 f1 ff ff       	callq  400d30 <strlen@plt>
  401bff:	85 ed                	test   %ebp,%ebp
  401c01:	41 89 c0             	mov    %eax,%r8d
  401c04:	0f 8e 8b 00 00 00    	jle    401c95 <invalid_phase+0x255>
  401c0a:	31 d2                	xor    %edx,%edx
  401c0c:	be 05 15 00 00       	mov    $0x1505,%esi
  401c11:	0f 1f 80 00 00 00 00 	nopl   0x0(%rax)
  401c18:	0f be 8a f8 52 60 00 	movsbl 0x6052f8(%rdx),%ecx
  401c1f:	89 f7                	mov    %esi,%edi
  401c21:	48 83 c2 01          	add    $0x1,%rdx
  401c25:	c1 e7 05             	shl    $0x5,%edi
  401c28:	01 f9                	add    %edi,%ecx
  401c2a:	01 ce                	add    %ecx,%esi
  401c2c:	39 d3                	cmp    %edx,%ebx
  401c2e:	7f e8                	jg     401c18 <invalid_phase+0x1d8>
  401c30:	8d 3c f6             	lea    (%rsi,%rsi,8),%edi
  401c33:	85 c0                	test   %eax,%eax
  401c35:	7e 22                	jle    401c59 <invalid_phase+0x219>
  401c37:	31 c0                	xor    %eax,%eax
  401c39:	0f 1f 80 00 00 00 00 	nopl   0x0(%rax)
  401c40:	0f be 90 e0 52 60 00 	movsbl 0x6052e0(%rax),%edx
  401c47:	89 f9                	mov    %edi,%ecx
  401c49:	48 83 c0 01          	add    $0x1,%rax
  401c4d:	c1 e1 05             	shl    $0x5,%ecx
  401c50:	01 ca                	add    %ecx,%edx
  401c52:	01 d7                	add    %edx,%edi
  401c54:	41 39 c0             	cmp    %eax,%r8d
  401c57:	7f e7                	jg     401c40 <invalid_phase+0x200>
  401c59:	e8 42 f1 ff ff       	callq  400da0 <srand@plt>
  401c5e:	31 c0                	xor    %eax,%eax
  401c60:	e8 aa f5 ff ff       	callq  40120f <strings_not_equal+0x4d>
  401c65:	31 c0                	xor    %eax,%eax
  401c67:	e8 02 f6 ff ff       	callq  40126e <phase1+0x1c>
  401c6c:	31 c0                	xor    %eax,%eax
  401c6e:	e8 b7 f6 ff ff       	callq  40132a <phase2+0x81>
  401c73:	31 c0                	xor    %eax,%eax
  401c75:	e8 ca f7 ff ff       	callq  401444 <phase3+0xd8>
  401c7a:	31 c0                	xor    %eax,%eax
  401c7c:	e8 20 f9 ff ff       	callq  4015a1 <phase4+0x62>
  401c81:	31 c0                	xor    %eax,%eax
  401c83:	e8 d8 f9 ff ff       	callq  401660 <phase5+0x8a>
  401c88:	48 83 c4 08          	add    $0x8,%rsp
  401c8c:	31 c0                	xor    %eax,%eax
  401c8e:	5b                   	pop    %rbx
  401c8f:	5d                   	pop    %rbp
  401c90:	e9 37 fb ff ff       	jmpq   4017cc <phase6+0x103>
  401c95:	bf 2d bd 00 00       	mov    $0xbd2d,%edi
  401c9a:	eb 97                	jmp    401c33 <invalid_phase+0x1f3>
  401c9c:	0f 1f 40 00          	nopl   0x0(%rax)
  401ca0:	41 54                	push   %r12
  401ca2:	55                   	push   %rbp
  401ca3:	53                   	push   %rbx
  401ca4:	89 fb                	mov    %edi,%ebx
  401ca6:	48 81 ec 10 40 00 00 	sub    $0x4010,%rsp
  401cad:	8b 2d 8d 3d 20 00    	mov    0x203d8d(%rip),%ebp        # 605a40 <num_input_strings>
  401cb3:	64 48 8b 04 25 28 00 	mov    %fs:0x28,%rax
  401cba:	00 00 
  401cbc:	48 89 84 24 08 40 00 	mov    %rax,0x4008(%rsp)
  401cc3:	00 
  401cc4:	31 c0                	xor    %eax,%eax
  401cc6:	8d 45 ff             	lea    -0x1(%rbp),%eax
  401cc9:	48 98                	cltq   
  401ccb:	48 8d 04 80          	lea    (%rax,%rax,4),%rax
  401ccf:	48 8d 04 80          	lea    (%rax,%rax,4),%rax
  401cd3:	4c 8d 24 85 60 5a 60 	lea    0x605a60(,%rax,4),%r12
  401cda:	00 
  401cdb:	4c 89 e7             	mov    %r12,%rdi
  401cde:	e8 4d f0 ff ff       	callq  400d30 <strlen@plt>
  401ce3:	48 83 c0 64          	add    $0x64,%rax
  401ce7:	48 3d 00 20 00 00    	cmp    $0x2000,%rax
  401ced:	77 79                	ja     401d68 <invalid_phase+0x328>
  401cef:	41 54                	push   %r12
  401cf1:	55                   	push   %rbp
  401cf2:	85 db                	test   %ebx,%ebx
  401cf4:	44 8b 05 09 36 20 00 	mov    0x203609(%rip),%r8d        # 605304 <bomb_id>
  401cfb:	b8 53 39 40 00       	mov    $0x403953,%eax
  401d00:	41 b9 5b 39 40 00    	mov    $0x40395b,%r9d
  401d06:	48 8d 7c 24 10       	lea    0x10(%rsp),%rdi
  401d0b:	4c 0f 45 c8          	cmovne %rax,%r9
  401d0f:	b9 64 39 40 00       	mov    $0x403964,%ecx
  401d14:	ba 00 20 00 00       	mov    $0x2000,%edx
  401d19:	be 01 00 00 00       	mov    $0x1,%esi
  401d1e:	31 c0                	xor    %eax,%eax
  401d20:	e8 bb f1 ff ff       	callq  400ee0 <__sprintf_chk@plt>
  401d25:	4c 8d 84 24 10 20 00 	lea    0x2010(%rsp),%r8
  401d2c:	00 
  401d2d:	48 8d 54 24 10       	lea    0x10(%rsp),%rdx
  401d32:	31 c9                	xor    %ecx,%ecx
  401d34:	be e0 52 60 00       	mov    $0x6052e0,%esi
  401d39:	bf f8 52 60 00       	mov    $0x6052f8,%edi
  401d3e:	e8 2d 11 00 00       	callq  402e70 <init_driver+0x200>
  401d43:	85 c0                	test   %eax,%eax
  401d45:	5a                   	pop    %rdx
  401d46:	59                   	pop    %rcx
  401d47:	78 3f                	js     401d88 <invalid_phase+0x348>
  401d49:	48 8b 84 24 08 40 00 	mov    0x4008(%rsp),%rax
  401d50:	00 
  401d51:	64 48 33 04 25 28 00 	xor    %fs:0x28,%rax
  401d58:	00 00 
  401d5a:	75 27                	jne    401d83 <invalid_phase+0x343>
  401d5c:	48 81 c4 10 40 00 00 	add    $0x4010,%rsp
  401d63:	5b                   	pop    %rbx
  401d64:	5d                   	pop    %rbp
  401d65:	41 5c                	pop    %r12
  401d67:	c3                   	retq   
  401d68:	bf 01 00 00 00       	mov    $0x1,%edi
  401d6d:	be 28 3a 40 00       	mov    $0x403a28,%esi
  401d72:	31 c0                	xor    %eax,%eax
  401d74:	e8 d7 f0 ff ff       	callq  400e50 <__printf_chk@plt>
  401d79:	bf 08 00 00 00       	mov    $0x8,%edi
  401d7e:	e8 fd f0 ff ff       	callq  400e80 <exit@plt>
  401d83:	e8 b8 ef ff ff       	callq  400d40 <__stack_chk_fail@plt>
  401d88:	48 8d bc 24 00 20 00 	lea    0x2000(%rsp),%rdi
  401d8f:	00 
  401d90:	e8 7b ef ff ff       	callq  400d10 <puts@plt>
  401d95:	31 ff                	xor    %edi,%edi
  401d97:	e8 e4 f0 ff ff       	callq  400e80 <exit@plt>
  401d9c:	0f 1f 40 00          	nopl   0x0(%rax)

0000000000401da0 <explode_bomb>:
  401da0:	48 83 ec 08          	sub    $0x8,%rsp
  401da4:	bf 70 39 40 00       	mov    $0x403970,%edi
  401da9:	e8 62 ef ff ff       	callq  400d10 <puts@plt>
  401dae:	bf 79 39 40 00       	mov    $0x403979,%edi
  401db3:	e8 58 ef ff ff       	callq  400d10 <puts@plt>
  401db8:	31 ff                	xor    %edi,%edi
  401dba:	e8 e1 fe ff ff       	callq  401ca0 <invalid_phase+0x260>
  401dbf:	bf 50 3a 40 00       	mov    $0x403a50,%edi
  401dc4:	e8 47 ef ff ff       	callq  400d10 <puts@plt>
  401dc9:	bf 08 00 00 00       	mov    $0x8,%edi
  401dce:	e8 ad f0 ff ff       	callq  400e80 <exit@plt>
  401dd3:	0f 1f 00             	nopl   (%rax)
  401dd6:	66 2e 0f 1f 84 00 00 	nopw   %cs:0x0(%rax,%rax,1)
  401ddd:	00 00 00 

0000000000401de0 <read_six_numbers>:
  401de0:	48 8d 46 14          	lea    0x14(%rsi),%rax
  401de4:	48 83 ec 08          	sub    $0x8,%rsp
  401de8:	48 8d 4e 04          	lea    0x4(%rsi),%rcx
  401dec:	4c 8d 4e 0c          	lea    0xc(%rsi),%r9
  401df0:	4c 8d 46 08          	lea    0x8(%rsi),%r8
  401df4:	48 89 f2             	mov    %rsi,%rdx
  401df7:	50                   	push   %rax
  401df8:	48 8d 46 10          	lea    0x10(%rsi),%rax
  401dfc:	be 90 39 40 00       	mov    $0x403990,%esi
  401e01:	50                   	push   %rax
  401e02:	31 c0                	xor    %eax,%eax
  401e04:	e8 27 f0 ff ff       	callq  400e30 <__isoc99_sscanf@plt>
  401e09:	83 f8 05             	cmp    $0x5,%eax
  401e0c:	5a                   	pop    %rdx
  401e0d:	59                   	pop    %rcx
  401e0e:	7e 05                	jle    401e15 <read_six_numbers+0x35>
  401e10:	48 83 c4 08          	add    $0x8,%rsp
  401e14:	c3                   	retq   
  401e15:	e8 86 ff ff ff       	callq  401da0 <explode_bomb>
  401e1a:	66 0f 1f 44 00 00    	nopw   0x0(%rax,%rax,1)
  401e20:	48 83 ec 08          	sub    $0x8,%rsp
  401e24:	e8 77 ff ff ff       	callq  401da0 <explode_bomb>
  401e29:	0f 1f 80 00 00 00 00 	nopl   0x0(%rax)

0000000000401e30 <sigusr1_handler>:
  401e30:	8b 05 12 3c 20 00    	mov    0x203c12(%rip),%eax        # 605a48 <count.5639>
  401e36:	83 c0 01             	add    $0x1,%eax
  401e39:	83 f8 01             	cmp    $0x1,%eax
  401e3c:	89 05 06 3c 20 00    	mov    %eax,0x203c06(%rip)        # 605a48 <count.5639>
  401e42:	74 1c                	je     401e60 <sigusr1_handler+0x30>
  401e44:	83 f8 02             	cmp    $0x2,%eax
  401e47:	74 27                	je     401e70 <sigusr1_handler+0x40>
  401e49:	83 f8 03             	cmp    $0x3,%eax
  401e4c:	74 32                	je     401e80 <sigusr1_handler+0x50>
  401e4e:	83 f8 04             	cmp    $0x4,%eax
  401e51:	74 3d                	je     401e90 <sigusr1_handler+0x60>
  401e53:	7f 45                	jg     401e9a <sigusr1_handler+0x6a>
  401e55:	f3 c3                	repz retq 
  401e57:	66 0f 1f 84 00 00 00 	nopw   0x0(%rax,%rax,1)
  401e5e:	00 00 
  401e60:	bf 78 3a 40 00       	mov    $0x403a78,%edi
  401e65:	e9 a6 ee ff ff       	jmpq   400d10 <puts@plt>
  401e6a:	66 0f 1f 44 00 00    	nopw   0x0(%rax,%rax,1)
  401e70:	bf c8 3a 40 00       	mov    $0x403ac8,%edi
  401e75:	e9 96 ee ff ff       	jmpq   400d10 <puts@plt>
  401e7a:	66 0f 1f 44 00 00    	nopw   0x0(%rax,%rax,1)
  401e80:	bf 18 3b 40 00       	mov    $0x403b18,%edi
  401e85:	e9 86 ee ff ff       	jmpq   400d10 <puts@plt>
  401e8a:	66 0f 1f 44 00 00    	nopw   0x0(%rax,%rax,1)
  401e90:	bf 60 3b 40 00       	mov    $0x403b60,%edi
  401e95:	e9 76 ee ff ff       	jmpq   400d10 <puts@plt>
  401e9a:	50                   	push   %rax
  401e9b:	bf a8 3b 40 00       	mov    $0x403ba8,%edi
  401ea0:	e8 6b ee ff ff       	callq  400d10 <puts@plt>
  401ea5:	bf f8 3b 40 00       	mov    $0x403bf8,%edi
  401eaa:	e8 61 ee ff ff       	callq  400d10 <puts@plt>
  401eaf:	bf 48 3c 40 00       	mov    $0x403c48,%edi
  401eb4:	e8 57 ee ff ff       	callq  400d10 <puts@plt>
  401eb9:	e8 e2 fe ff ff       	callq  401da0 <explode_bomb>
  401ebe:	66 90                	xchg   %ax,%ax
  401ec0:	48 83 ec 08          	sub    $0x8,%rsp
  401ec4:	83 3d 75 3b 20 00 05 	cmpl   $0x5,0x203b75(%rip)        # 605a40 <num_input_strings>
  401ecb:	7e 4b                	jle    401f18 <sigusr1_handler+0xe8>
  401ecd:	8b 05 71 3b 20 00    	mov    0x203b71(%rip),%eax        # 605a44 <count.5628>
  401ed3:	83 c0 01             	add    $0x1,%eax
  401ed6:	83 f8 01             	cmp    $0x1,%eax
  401ed9:	89 05 65 3b 20 00    	mov    %eax,0x203b65(%rip)        # 605a44 <count.5628>
  401edf:	74 0f                	je     401ef0 <sigusr1_handler+0xc0>
  401ee1:	83 f8 02             	cmp    $0x2,%eax
  401ee4:	74 1a                	je     401f00 <sigusr1_handler+0xd0>
  401ee6:	7f 35                	jg     401f1d <sigusr1_handler+0xed>
  401ee8:	48 83 c4 08          	add    $0x8,%rsp
  401eec:	c3                   	retq   
  401eed:	0f 1f 00             	nopl   (%rax)
  401ef0:	bf 98 3c 40 00       	mov    $0x403c98,%edi
  401ef5:	48 83 c4 08          	add    $0x8,%rsp
  401ef9:	e9 12 ee ff ff       	jmpq   400d10 <puts@plt>
  401efe:	66 90                	xchg   %ax,%ax
  401f00:	bf c0 3c 40 00       	mov    $0x403cc0,%edi
  401f05:	e8 06 ee ff ff       	callq  400d10 <puts@plt>
  401f0a:	bf 00 3d 40 00       	mov    $0x403d00,%edi
  401f0f:	48 83 c4 08          	add    $0x8,%rsp
  401f13:	e9 f8 ed ff ff       	jmpq   400d10 <puts@plt>
  401f18:	e8 f3 ef ff ff       	callq  400f10 <sigint_handler.part.2>
  401f1d:	bf 30 3d 40 00       	mov    $0x403d30,%edi
  401f22:	e8 e9 ed ff ff       	callq  400d10 <puts@plt>
  401f27:	e8 74 fe ff ff       	callq  401da0 <explode_bomb>
  401f2c:	0f 1f 40 00          	nopl   0x0(%rax)

0000000000401f30 <read_line>:
  401f30:	55                   	push   %rbp
  401f31:	53                   	push   %rbx
  401f32:	48 83 ec 08          	sub    $0x8,%rsp
  401f36:	48 63 05 03 3b 20 00 	movslq 0x203b03(%rip),%rax        # 605a40 <num_input_strings>
  401f3d:	48 8b 15 0c 3b 20 00 	mov    0x203b0c(%rip),%rdx        # 605a50 <infile>
  401f44:	83 f8 07             	cmp    $0x7,%eax
  401f47:	0f 84 73 01 00 00    	je     4020c0 <read_line+0x190>
  401f4d:	0f 1f 00             	nopl   (%rax)
  401f50:	48 8d 04 80          	lea    (%rax,%rax,4),%rax
  401f54:	be 64 00 00 00       	mov    $0x64,%esi
  401f59:	48 8d 04 80          	lea    (%rax,%rax,4),%rax
  401f5d:	48 8d 3c 85 60 5a 60 	lea    0x605a60(,%rax,4),%rdi
  401f64:	00 
  401f65:	e8 56 ee ff ff       	callq  400dc0 <fgets@plt>
  401f6a:	48 85 c0             	test   %rax,%rax
  401f6d:	48 89 c5             	mov    %rax,%rbp
  401f70:	75 19                	jne    401f8b <read_line+0x5b>
  401f72:	eb 7c                	jmp    401ff0 <read_line+0xc0>
  401f74:	0f 1f 40 00          	nopl   0x0(%rax)
  401f78:	e8 53 ef ff ff       	callq  400ed0 <__ctype_b_loc@plt>
  401f7d:	48 8b 00             	mov    (%rax),%rax
  401f80:	48 83 c5 01          	add    $0x1,%rbp
  401f84:	f6 44 58 01 20       	testb  $0x20,0x1(%rax,%rbx,2)
  401f89:	74 1d                	je     401fa8 <read_line+0x78>
  401f8b:	48 0f be 5d 00       	movsbq 0x0(%rbp),%rbx
  401f90:	84 db                	test   %bl,%bl
  401f92:	75 e4                	jne    401f78 <read_line+0x48>
  401f94:	48 63 05 a5 3a 20 00 	movslq 0x203aa5(%rip),%rax        # 605a40 <num_input_strings>
  401f9b:	48 8b 15 ae 3a 20 00 	mov    0x203aae(%rip),%rdx        # 605a50 <infile>
  401fa2:	eb ac                	jmp    401f50 <read_line+0x20>
  401fa4:	0f 1f 40 00          	nopl   0x0(%rax)
  401fa8:	48 63 05 91 3a 20 00 	movslq 0x203a91(%rip),%rax        # 605a40 <num_input_strings>
  401faf:	48 89 c3             	mov    %rax,%rbx
  401fb2:	48 8d 04 80          	lea    (%rax,%rax,4),%rax
  401fb6:	48 8d 04 80          	lea    (%rax,%rax,4),%rax
  401fba:	48 8d 2c 85 60 5a 60 	lea    0x605a60(,%rax,4),%rbp
  401fc1:	00 
  401fc2:	48 89 ef             	mov    %rbp,%rdi
  401fc5:	e8 66 ed ff ff       	callq  400d30 <strlen@plt>
  401fca:	83 f8 62             	cmp    $0x62,%eax
  401fcd:	0f 8f 79 01 00 00    	jg     40214c <read_line+0x21c>
  401fd3:	83 e8 01             	sub    $0x1,%eax
  401fd6:	83 c3 01             	add    $0x1,%ebx
  401fd9:	48 98                	cltq   
  401fdb:	89 1d 5f 3a 20 00    	mov    %ebx,0x203a5f(%rip)        # 605a40 <num_input_strings>
  401fe1:	c6 44 05 00 00       	movb   $0x0,0x0(%rbp,%rax,1)
  401fe6:	48 83 c4 08          	add    $0x8,%rsp
  401fea:	48 89 e8             	mov    %rbp,%rax
  401fed:	5b                   	pop    %rbx
  401fee:	5d                   	pop    %rbp
  401fef:	c3                   	retq   
  401ff0:	48 8b 15 59 3a 20 00 	mov    0x203a59(%rip),%rdx        # 605a50 <infile>
  401ff7:	48 3b 15 32 33 20 00 	cmp    0x203332(%rip),%rdx        # 605330 <stdin@@GLIBC_2.2.5>
  401ffe:	0f 84 d0 00 00 00    	je     4020d4 <read_line+0x1a4>
  402004:	bf a2 39 40 00       	mov    $0x4039a2,%edi
  402009:	e8 c2 ec ff ff       	callq  400cd0 <getenv@plt>
  40200e:	48 85 c0             	test   %rax,%rax
  402011:	0f 85 82 01 00 00    	jne    402199 <read_line+0x269>
  402017:	48 8b 15 12 33 20 00 	mov    0x203312(%rip),%rdx        # 605330 <stdin@@GLIBC_2.2.5>
  40201e:	48 89 15 2b 3a 20 00 	mov    %rdx,0x203a2b(%rip)        # 605a50 <infile>
  402025:	0f 1f 00             	nopl   (%rax)
  402028:	48 63 05 11 3a 20 00 	movslq 0x203a11(%rip),%rax        # 605a40 <num_input_strings>
  40202f:	be 64 00 00 00       	mov    $0x64,%esi
  402034:	48 8d 04 80          	lea    (%rax,%rax,4),%rax
  402038:	48 8d 04 80          	lea    (%rax,%rax,4),%rax
  40203c:	48 8d 3c 85 60 5a 60 	lea    0x605a60(,%rax,4),%rdi
  402043:	00 
  402044:	e8 77 ed ff ff       	callq  400dc0 <fgets@plt>
  402049:	48 85 c0             	test   %rax,%rax
  40204c:	48 89 c5             	mov    %rax,%rbp
  40204f:	75 1e                	jne    40206f <read_line+0x13f>
  402051:	eb 2e                	jmp    402081 <read_line+0x151>
  402053:	0f 1f 44 00 00       	nopl   0x0(%rax,%rax,1)
  402058:	e8 73 ee ff ff       	callq  400ed0 <__ctype_b_loc@plt>
  40205d:	48 8b 00             	mov    (%rax),%rax
  402060:	48 83 c5 01          	add    $0x1,%rbp
  402064:	f6 44 58 01 20       	testb  $0x20,0x1(%rax,%rbx,2)
  402069:	0f 84 39 ff ff ff    	je     401fa8 <read_line+0x78>
  40206f:	48 0f be 5d 00       	movsbq 0x0(%rbp),%rbx
  402074:	84 db                	test   %bl,%bl
  402076:	75 e0                	jne    402058 <read_line+0x128>
  402078:	48 8b 15 d1 39 20 00 	mov    0x2039d1(%rip),%rdx        # 605a50 <infile>
  40207f:	eb a7                	jmp    402028 <read_line+0xf8>
  402081:	48 63 05 b8 39 20 00 	movslq 0x2039b8(%rip),%rax        # 605a40 <num_input_strings>
  402088:	83 f8 05             	cmp    $0x5,%eax
  40208b:	0f 8e 0f 01 00 00    	jle    4021a0 <read_line+0x270>
  402091:	8b 0d ad 39 20 00    	mov    0x2039ad(%rip),%ecx        # 605a44 <count.5628>
  402097:	8d 51 01             	lea    0x1(%rcx),%edx
  40209a:	83 fa 01             	cmp    $0x1,%edx
  40209d:	89 15 a1 39 20 00    	mov    %edx,0x2039a1(%rip)        # 605a44 <count.5628>
  4020a3:	74 63                	je     402108 <read_line+0x1d8>
  4020a5:	83 fa 02             	cmp    $0x2,%edx
  4020a8:	74 7b                	je     402125 <read_line+0x1f5>
  4020aa:	0f 8e 8d fe ff ff    	jle    401f3d <read_line+0xd>
  4020b0:	bf 30 3d 40 00       	mov    $0x403d30,%edi
  4020b5:	e8 56 ec ff ff       	callq  400d10 <puts@plt>
  4020ba:	e8 e1 fc ff ff       	callq  401da0 <explode_bomb>
  4020bf:	90                   	nop
  4020c0:	c7 05 76 39 20 00 06 	movl   $0x6,0x203976(%rip)        # 605a40 <num_input_strings>
  4020c7:	00 00 00 
  4020ca:	b8 06 00 00 00       	mov    $0x6,%eax
  4020cf:	e9 7c fe ff ff       	jmpq   401f50 <read_line+0x20>
  4020d4:	48 63 05 65 39 20 00 	movslq 0x203965(%rip),%rax        # 605a40 <num_input_strings>
  4020db:	83 f8 05             	cmp    $0x5,%eax
  4020de:	0f 8e bc 00 00 00    	jle    4021a0 <read_line+0x270>
  4020e4:	8b 0d 5a 39 20 00    	mov    0x20395a(%rip),%ecx        # 605a44 <count.5628>
  4020ea:	83 c1 01             	add    $0x1,%ecx
  4020ed:	83 f9 01             	cmp    $0x1,%ecx
  4020f0:	89 0d 4e 39 20 00    	mov    %ecx,0x20394e(%rip)        # 605a44 <count.5628>
  4020f6:	74 10                	je     402108 <read_line+0x1d8>
  4020f8:	83 f9 02             	cmp    $0x2,%ecx
  4020fb:	74 28                	je     402125 <read_line+0x1f5>
  4020fd:	0f 8e 41 fe ff ff    	jle    401f44 <read_line+0x14>
  402103:	eb ab                	jmp    4020b0 <read_line+0x180>
  402105:	0f 1f 00             	nopl   (%rax)
  402108:	bf 98 3c 40 00       	mov    $0x403c98,%edi
  40210d:	e8 fe eb ff ff       	callq  400d10 <puts@plt>
  402112:	48 63 05 27 39 20 00 	movslq 0x203927(%rip),%rax        # 605a40 <num_input_strings>
  402119:	48 8b 15 30 39 20 00 	mov    0x203930(%rip),%rdx        # 605a50 <infile>
  402120:	e9 1f fe ff ff       	jmpq   401f44 <read_line+0x14>
  402125:	bf c0 3c 40 00       	mov    $0x403cc0,%edi
  40212a:	e8 e1 eb ff ff       	callq  400d10 <puts@plt>
  40212f:	bf 00 3d 40 00       	mov    $0x403d00,%edi
  402134:	e8 d7 eb ff ff       	callq  400d10 <puts@plt>
  402139:	48 63 05 00 39 20 00 	movslq 0x203900(%rip),%rax        # 605a40 <num_input_strings>
  402140:	48 8b 15 09 39 20 00 	mov    0x203909(%rip),%rdx        # 605a50 <infile>
  402147:	e9 f8 fd ff ff       	jmpq   401f44 <read_line+0x14>
  40214c:	bf ad 39 40 00       	mov    $0x4039ad,%edi
  402151:	e8 ba eb ff ff       	callq  400d10 <puts@plt>
  402156:	48 63 05 e3 38 20 00 	movslq 0x2038e3(%rip),%rax        # 605a40 <num_input_strings>
  40215d:	48 b9 2a 2a 2a 74 72 	movabs $0x636e7572742a2a2a,%rcx
  402164:	75 6e 63 
  402167:	8d 50 01             	lea    0x1(%rax),%edx
  40216a:	48 8d 04 80          	lea    (%rax,%rax,4),%rax
  40216e:	48 8d 04 80          	lea    (%rax,%rax,4),%rax
  402172:	89 15 c8 38 20 00    	mov    %edx,0x2038c8(%rip)        # 605a40 <num_input_strings>
  402178:	48 c1 e0 02          	shl    $0x2,%rax
  40217c:	48 89 88 60 5a 60 00 	mov    %rcx,0x605a60(%rax)
  402183:	48 b9 61 74 65 64 2a 	movabs $0x2a2a2a64657461,%rcx
  40218a:	2a 2a 00 
  40218d:	48 89 88 68 5a 60 00 	mov    %rcx,0x605a68(%rax)
  402194:	e8 07 fc ff ff       	callq  401da0 <explode_bomb>
  402199:	31 ff                	xor    %edi,%edi
  40219b:	e8 e0 ec ff ff       	callq  400e80 <exit@plt>
  4021a0:	e8 6b ed ff ff       	callq  400f10 <sigint_handler.part.2>
  4021a5:	90                   	nop
  4021a6:	66 2e 0f 1f 84 00 00 	nopw   %cs:0x0(%rax,%rax,1)
  4021ad:	00 00 00 

00000000004021b0 <phase_defused>:
  4021b0:	48 83 ec 08          	sub    $0x8,%rsp
  4021b4:	8b 3d 86 38 20 00    	mov    0x203886(%rip),%edi        # 605a40 <num_input_strings>
  4021ba:	e8 11 f7 ff ff       	callq  4018d0 <test_secret_phrase>
  4021bf:	85 c0                	test   %eax,%eax
  4021c1:	74 1d                	je     4021e0 <phase_defused+0x30>
  4021c3:	8b 05 77 38 20 00    	mov    0x203877(%rip),%eax        # 605a40 <num_input_strings>
  4021c9:	39 05 01 31 20 00    	cmp    %eax,0x203101(%rip)        # 6052d0 <__dso_handle+0x188>
  4021cf:	74 0f                	je     4021e0 <phase_defused+0x30>
  4021d1:	e8 ca fb ff ff       	callq  401da0 <explode_bomb>
  4021d6:	66 2e 0f 1f 84 00 00 	nopw   %cs:0x0(%rax,%rax,1)
  4021dd:	00 00 00 
  4021e0:	8b 3d 5a 38 20 00    	mov    0x20385a(%rip),%edi        # 605a40 <num_input_strings>
  4021e6:	e8 e5 f6 ff ff       	callq  4018d0 <test_secret_phrase>
  4021eb:	83 f8 ff             	cmp    $0xffffffff,%eax
  4021ee:	75 18                	jne    402208 <phase_defused+0x58>
  4021f0:	8b 05 4a 38 20 00    	mov    0x20384a(%rip),%eax        # 605a40 <num_input_strings>
  4021f6:	39 05 d4 30 20 00    	cmp    %eax,0x2030d4(%rip)        # 6052d0 <__dso_handle+0x188>
  4021fc:	75 0a                	jne    402208 <phase_defused+0x58>
  4021fe:	e8 9d fb ff ff       	callq  401da0 <explode_bomb>
  402203:	0f 1f 44 00 00       	nopl   0x0(%rax,%rax,1)
  402208:	bf 01 00 00 00       	mov    $0x1,%edi
  40220d:	e8 8e fa ff ff       	callq  401ca0 <invalid_phase+0x260>
  402212:	83 3d 27 38 20 00 06 	cmpl   $0x6,0x203827(%rip)        # 605a40 <num_input_strings>
  402219:	75 61                	jne    40227c <phase_defused+0xcc>
  40221b:	8b 3d af 30 20 00    	mov    0x2030af(%rip),%edi        # 6052d0 <__dso_handle+0x188>
  402221:	e8 aa f6 ff ff       	callq  4018d0 <test_secret_phrase>
  402226:	83 f8 01             	cmp    $0x1,%eax
  402229:	75 3d                	jne    402268 <phase_defused+0xb8>
  40222b:	bf 60 3d 40 00       	mov    $0x403d60,%edi
  402230:	e8 db ea ff ff       	callq  400d10 <puts@plt>
  402235:	bf c8 39 40 00       	mov    $0x4039c8,%edi
  40223a:	e8 d1 ea ff ff       	callq  400d10 <puts@plt>
  40223f:	e8 bd f5 ff ff       	callq  401801 <secret_phase>
  402244:	bf 90 3d 40 00       	mov    $0x403d90,%edi
  402249:	e8 c2 ea ff ff       	callq  400d10 <puts@plt>
  40224e:	bf 01 00 00 00       	mov    $0x1,%edi
  402253:	e8 48 fa ff ff       	callq  401ca0 <invalid_phase+0x260>
  402258:	bf d0 3d 40 00       	mov    $0x403dd0,%edi
  40225d:	e8 ae ea ff ff       	callq  400d10 <puts@plt>
  402262:	eb 18                	jmp    40227c <phase_defused+0xcc>
  402264:	0f 1f 40 00          	nopl   0x0(%rax)
  402268:	bf 18 3e 40 00       	mov    $0x403e18,%edi
  40226d:	e8 9e ea ff ff       	callq  400d10 <puts@plt>
  402272:	bf d0 3d 40 00       	mov    $0x403dd0,%edi
  402277:	e8 94 ea ff ff       	callq  400d10 <puts@plt>
  40227c:	48 83 c4 08          	add    $0x8,%rsp
  402280:	c3                   	retq   
  402281:	66 2e 0f 1f 84 00 00 	nopw   %cs:0x0(%rax,%rax,1)
  402288:	00 00 00 
  40228b:	0f 1f 44 00 00       	nopl   0x0(%rax,%rax,1)

0000000000402290 <sigalrm_handler>:
  402290:	48 83 ec 08          	sub    $0x8,%rsp
  402294:	48 8b 3d a5 30 20 00 	mov    0x2030a5(%rip),%rdi        # 605340 <stderr@@GLIBC_2.2.5>
  40229b:	31 c9                	xor    %ecx,%ecx
  40229d:	ba 48 3e 40 00       	mov    $0x403e48,%edx
  4022a2:	be 01 00 00 00       	mov    $0x1,%esi
  4022a7:	31 c0                	xor    %eax,%eax
  4022a9:	e8 f2 eb ff ff       	callq  400ea0 <__fprintf_chk@plt>
  4022ae:	bf 01 00 00 00       	mov    $0x1,%edi
  4022b3:	e8 c8 eb ff ff       	callq  400e80 <exit@plt>
  4022b8:	0f 1f 84 00 00 00 00 	nopl   0x0(%rax,%rax,1)
  4022bf:	00 

00000000004022c0 <rio_readlineb.constprop.0>:
  4022c0:	41 56                	push   %r14
  4022c2:	41 55                	push   %r13
  4022c4:	49 89 f6             	mov    %rsi,%r14
  4022c7:	41 54                	push   %r12
  4022c9:	4c 8d 67 10          	lea    0x10(%rdi),%r12
  4022cd:	55                   	push   %rbp
  4022ce:	41 bd 01 00 00 00    	mov    $0x1,%r13d
  4022d4:	53                   	push   %rbx
  4022d5:	48 89 fb             	mov    %rdi,%rbx
  4022d8:	0f 1f 84 00 00 00 00 	nopl   0x0(%rax,%rax,1)
  4022df:	00 
  4022e0:	8b 6b 04             	mov    0x4(%rbx),%ebp
  4022e3:	0f 1f 44 00 00       	nopl   0x0(%rax,%rax,1)
  4022e8:	85 ed                	test   %ebp,%ebp
  4022ea:	7f 22                	jg     40230e <rio_readlineb.constprop.0+0x4e>
  4022ec:	8b 3b                	mov    (%rbx),%edi
  4022ee:	ba 00 20 00 00       	mov    $0x2000,%edx
  4022f3:	4c 89 e6             	mov    %r12,%rsi
  4022f6:	e8 85 ea ff ff       	callq  400d80 <read@plt>
  4022fb:	85 c0                	test   %eax,%eax
  4022fd:	89 c5                	mov    %eax,%ebp
  4022ff:	89 43 04             	mov    %eax,0x4(%rbx)
  402302:	78 4c                	js     402350 <rio_readlineb.constprop.0+0x90>
  402304:	74 6a                	je     402370 <rio_readlineb.constprop.0+0xb0>
  402306:	85 ed                	test   %ebp,%ebp
  402308:	4c 89 63 08          	mov    %r12,0x8(%rbx)
  40230c:	7e de                	jle    4022ec <rio_readlineb.constprop.0+0x2c>
  40230e:	48 8b 43 08          	mov    0x8(%rbx),%rax
  402312:	83 ed 01             	sub    $0x1,%ebp
  402315:	49 83 c6 01          	add    $0x1,%r14
  402319:	0f b6 10             	movzbl (%rax),%edx
  40231c:	48 83 c0 01          	add    $0x1,%rax
  402320:	89 6b 04             	mov    %ebp,0x4(%rbx)
  402323:	48 89 43 08          	mov    %rax,0x8(%rbx)
  402327:	80 fa 0a             	cmp    $0xa,%dl
  40232a:	41 88 56 ff          	mov    %dl,-0x1(%r14)
  40232e:	74 10                	je     402340 <rio_readlineb.constprop.0+0x80>
  402330:	41 83 c5 01          	add    $0x1,%r13d
  402334:	41 81 fd 00 20 00 00 	cmp    $0x2000,%r13d
  40233b:	75 a3                	jne    4022e0 <rio_readlineb.constprop.0+0x20>
  40233d:	0f 1f 00             	nopl   (%rax)
  402340:	41 c6 06 00          	movb   $0x0,(%r14)
  402344:	49 63 c5             	movslq %r13d,%rax
  402347:	5b                   	pop    %rbx
  402348:	5d                   	pop    %rbp
  402349:	41 5c                	pop    %r12
  40234b:	41 5d                	pop    %r13
  40234d:	41 5e                	pop    %r14
  40234f:	c3                   	retq   
  402350:	e8 9b e9 ff ff       	callq  400cf0 <__errno_location@plt>
  402355:	83 38 04             	cmpl   $0x4,(%rax)
  402358:	74 8e                	je     4022e8 <rio_readlineb.constprop.0+0x28>
  40235a:	5b                   	pop    %rbx
  40235b:	48 c7 c0 ff ff ff ff 	mov    $0xffffffffffffffff,%rax
  402362:	5d                   	pop    %rbp
  402363:	41 5c                	pop    %r12
  402365:	41 5d                	pop    %r13
  402367:	41 5e                	pop    %r14
  402369:	c3                   	retq   
  40236a:	66 0f 1f 44 00 00    	nopw   0x0(%rax,%rax,1)
  402370:	41 83 fd 01          	cmp    $0x1,%r13d
  402374:	75 ca                	jne    402340 <rio_readlineb.constprop.0+0x80>
  402376:	31 c0                	xor    %eax,%eax
  402378:	eb cd                	jmp    402347 <rio_readlineb.constprop.0+0x87>
  40237a:	66 0f 1f 44 00 00    	nopw   0x0(%rax,%rax,1)
  402380:	55                   	push   %rbp
  402381:	48 89 e5             	mov    %rsp,%rbp
  402384:	41 57                	push   %r15
  402386:	41 56                	push   %r14
  402388:	41 55                	push   %r13
  40238a:	41 54                	push   %r12
  40238c:	49 89 fe             	mov    %rdi,%r14
  40238f:	53                   	push   %rbx
  402390:	41 89 f4             	mov    %esi,%r12d
  402393:	49 89 d7             	mov    %rdx,%r15
  402396:	be 01 00 00 00       	mov    $0x1,%esi
  40239b:	31 d2                	xor    %edx,%edx
  40239d:	bf 02 00 00 00       	mov    $0x2,%edi
  4023a2:	48 81 ec 78 a0 00 00 	sub    $0xa078,%rsp
  4023a9:	48 8b 45 18          	mov    0x18(%rbp),%rax
  4023ad:	48 89 8d 80 5f ff ff 	mov    %rcx,-0xa080(%rbp)
  4023b4:	4c 89 85 70 5f ff ff 	mov    %r8,-0xa090(%rbp)
  4023bb:	4c 89 8d 78 5f ff ff 	mov    %r9,-0xa088(%rbp)
  4023c2:	4c 8b 6d 10          	mov    0x10(%rbp),%r13
  4023c6:	c7 85 9c 5f ff ff 00 	movl   $0x0,-0xa064(%rbp)
  4023cd:	00 00 00 
  4023d0:	48 89 85 88 5f ff ff 	mov    %rax,-0xa078(%rbp)
  4023d7:	64 48 8b 04 25 28 00 	mov    %fs:0x28,%rax
  4023de:	00 00 
  4023e0:	48 89 45 c8          	mov    %rax,-0x38(%rbp)
  4023e4:	31 c0                	xor    %eax,%eax
  4023e6:	e8 05 eb ff ff       	callq  400ef0 <socket@plt>
  4023eb:	85 c0                	test   %eax,%eax
  4023ed:	0f 88 8f 06 00 00    	js     402a82 <rio_readlineb.constprop.0+0x7c2>
  4023f3:	4c 89 f7             	mov    %r14,%rdi
  4023f6:	89 c3                	mov    %eax,%ebx
  4023f8:	e8 e3 e9 ff ff       	callq  400de0 <gethostbyname@plt>
  4023fd:	48 85 c0             	test   %rax,%rax
  402400:	0f 84 d6 06 00 00    	je     402adc <rio_readlineb.constprop.0+0x81c>
  402406:	48 c7 85 a8 5f ff ff 	movq   $0x0,-0xa058(%rbp)
  40240d:	00 00 00 00 
  402411:	48 63 50 14          	movslq 0x14(%rax),%rdx
  402415:	48 8d 8d a0 5f ff ff 	lea    -0xa060(%rbp),%rcx
  40241c:	48 8b 40 18          	mov    0x18(%rax),%rax
  402420:	48 c7 85 a0 5f ff ff 	movq   $0x0,-0xa060(%rbp)
  402427:	00 00 00 00 
  40242b:	41 b8 02 00 00 00    	mov    $0x2,%r8d
  402431:	48 8d 79 04          	lea    0x4(%rcx),%rdi
  402435:	b9 0c 00 00 00       	mov    $0xc,%ecx
  40243a:	66 44 89 85 a0 5f ff 	mov    %r8w,-0xa060(%rbp)
  402441:	ff 
  402442:	66 41 c1 cc 08       	ror    $0x8,%r12w
  402447:	48 8b 30             	mov    (%rax),%rsi
  40244a:	e8 a1 e9 ff ff       	callq  400df0 <__memmove_chk@plt>
  40244f:	48 8d b5 a0 5f ff ff 	lea    -0xa060(%rbp),%rsi
  402456:	ba 10 00 00 00       	mov    $0x10,%edx
  40245b:	89 df                	mov    %ebx,%edi
  40245d:	66 44 89 a5 a2 5f ff 	mov    %r12w,-0xa05e(%rbp)
  402464:	ff 
  402465:	e8 26 ea ff ff       	callq  400e90 <connect@plt>
  40246a:	85 c0                	test   %eax,%eax
  40246c:	0f 88 dd 06 00 00    	js     402b4f <rio_readlineb.constprop.0+0x88f>
  402472:	4c 89 ef             	mov    %r13,%rdi
  402475:	e8 b6 e8 ff ff       	callq  400d30 <strlen@plt>
  40247a:	4c 89 ff             	mov    %r15,%rdi
  40247d:	49 89 c4             	mov    %rax,%r12
  402480:	e8 ab e8 ff ff       	callq  400d30 <strlen@plt>
  402485:	48 8b bd 80 5f ff ff 	mov    -0xa080(%rbp),%rdi
  40248c:	49 89 c7             	mov    %rax,%r15
  40248f:	e8 9c e8 ff ff       	callq  400d30 <strlen@plt>
  402494:	48 8b bd 78 5f ff ff 	mov    -0xa088(%rbp),%rdi
  40249b:	49 89 c6             	mov    %rax,%r14
  40249e:	e8 8d e8 ff ff       	callq  400d30 <strlen@plt>
  4024a3:	4b 8d 94 37 80 00 00 	lea    0x80(%r15,%r14,1),%rdx
  4024aa:	00 
  4024ab:	48 01 d0             	add    %rdx,%rax
  4024ae:	4b 8d 14 64          	lea    (%r12,%r12,2),%rdx
  4024b2:	48 01 d0             	add    %rdx,%rax
  4024b5:	48 3d 00 20 00 00    	cmp    $0x2000,%rax
  4024bb:	0f 87 02 04 00 00    	ja     4028c3 <rio_readlineb.constprop.0+0x603>
  4024c1:	4c 8d 95 c0 9f ff ff 	lea    -0x6040(%rbp),%r10
  4024c8:	31 c0                	xor    %eax,%eax
  4024ca:	b9 00 04 00 00       	mov    $0x400,%ecx
  4024cf:	45 85 e4             	test   %r12d,%r12d
  4024d2:	4c 89 d7             	mov    %r10,%rdi
  4024d5:	f3 48 ab             	rep stos %rax,%es:(%rdi)
  4024d8:	0f 84 c2 00 00 00    	je     4025a0 <rio_readlineb.constprop.0+0x2e0>
  4024de:	41 8d 44 24 ff       	lea    -0x1(%r12),%eax
  4024e3:	49 be d9 ff 00 00 00 	movabs $0x2000000000ffd9,%r14
  4024ea:	00 20 00 
  4024ed:	4d 89 d4             	mov    %r10,%r12
  4024f0:	4d 8d 7c 05 01       	lea    0x1(%r13,%rax,1),%r15
  4024f5:	0f 1f 00             	nopl   (%rax)
  4024f8:	45 0f b6 45 00       	movzbl 0x0(%r13),%r8d
  4024fd:	41 8d 40 d6          	lea    -0x2a(%r8),%eax
  402501:	3c 35                	cmp    $0x35,%al
  402503:	0f 86 97 02 00 00    	jbe    4027a0 <rio_readlineb.constprop.0+0x4e0>
  402509:	44 89 c0             	mov    %r8d,%eax
  40250c:	83 e0 df             	and    $0xffffffdf,%eax
  40250f:	83 e8 41             	sub    $0x41,%eax
  402512:	3c 19                	cmp    $0x19,%al
  402514:	0f 86 90 02 00 00    	jbe    4027aa <rio_readlineb.constprop.0+0x4ea>
  40251a:	41 80 f8 20          	cmp    $0x20,%r8b
  40251e:	0f 84 85 03 00 00    	je     4028a9 <rio_readlineb.constprop.0+0x5e9>
  402524:	41 8d 40 e0          	lea    -0x20(%r8),%eax
  402528:	3c 5f                	cmp    $0x5f,%al
  40252a:	76 0a                	jbe    402536 <rio_readlineb.constprop.0+0x276>
  40252c:	41 80 f8 09          	cmp    $0x9,%r8b
  402530:	0f 85 3d 04 00 00    	jne    402973 <rio_readlineb.constprop.0+0x6b3>
  402536:	48 8d bd c0 df ff ff 	lea    -0x2040(%rbp),%rdi
  40253d:	31 c0                	xor    %eax,%eax
  40253f:	b9 20 3f 40 00       	mov    $0x403f20,%ecx
  402544:	ba 08 00 00 00       	mov    $0x8,%edx
  402549:	be 01 00 00 00       	mov    $0x1,%esi
  40254e:	4c 89 95 68 5f ff ff 	mov    %r10,-0xa098(%rbp)
  402555:	e8 86 e9 ff ff       	callq  400ee0 <__sprintf_chk@plt>
  40255a:	0f b6 85 c0 df ff ff 	movzbl -0x2040(%rbp),%eax
  402561:	49 83 c5 01          	add    $0x1,%r13
  402565:	49 83 c4 03          	add    $0x3,%r12
  402569:	4c 8b 95 68 5f ff ff 	mov    -0xa098(%rbp),%r10
  402570:	41 88 44 24 fd       	mov    %al,-0x3(%r12)
  402575:	0f b6 85 c1 df ff ff 	movzbl -0x203f(%rbp),%eax
  40257c:	41 88 44 24 fe       	mov    %al,-0x2(%r12)
  402581:	0f b6 85 c2 df ff ff 	movzbl -0x203e(%rbp),%eax
  402588:	41 88 44 24 ff       	mov    %al,-0x1(%r12)
  40258d:	4d 39 ef             	cmp    %r13,%r15
  402590:	0f 85 62 ff ff ff    	jne    4024f8 <rio_readlineb.constprop.0+0x238>
  402596:	66 2e 0f 1f 84 00 00 	nopw   %cs:0x0(%rax,%rax,1)
  40259d:	00 00 00 
  4025a0:	4c 8d a5 c0 7f ff ff 	lea    -0x8040(%rbp),%r12
  4025a7:	4c 8b 8d 70 5f ff ff 	mov    -0xa090(%rbp),%r9
  4025ae:	4c 8b 85 80 5f ff ff 	mov    -0xa080(%rbp),%r8
  4025b5:	41 52                	push   %r10
  4025b7:	ff b5 78 5f ff ff    	pushq  -0xa088(%rbp)
  4025bd:	b9 a0 3e 40 00       	mov    $0x403ea0,%ecx
  4025c2:	4c 89 e7             	mov    %r12,%rdi
  4025c5:	ba 00 20 00 00       	mov    $0x2000,%edx
  4025ca:	be 01 00 00 00       	mov    $0x1,%esi
  4025cf:	31 c0                	xor    %eax,%eax
  4025d1:	4d 89 e7             	mov    %r12,%r15
  4025d4:	e8 07 e9 ff ff       	callq  400ee0 <__sprintf_chk@plt>
  4025d9:	48 8b 85 88 5f ff ff 	mov    -0xa078(%rbp),%rax
  4025e0:	48 89 c7             	mov    %rax,%rdi
  4025e3:	41 8b 17             	mov    (%r15),%edx
  4025e6:	49 83 c7 04          	add    $0x4,%r15
  4025ea:	8d 82 ff fe fe fe    	lea    -0x1010101(%rdx),%eax
  4025f0:	f7 d2                	not    %edx
  4025f2:	21 d0                	and    %edx,%eax
  4025f4:	25 80 80 80 80       	and    $0x80808080,%eax
  4025f9:	74 e8                	je     4025e3 <rio_readlineb.constprop.0+0x323>
  4025fb:	89 c2                	mov    %eax,%edx
  4025fd:	48 89 bd 88 5f ff ff 	mov    %rdi,-0xa078(%rbp)
  402604:	c1 ea 10             	shr    $0x10,%edx
  402607:	a9 80 80 00 00       	test   $0x8080,%eax
  40260c:	0f 44 c2             	cmove  %edx,%eax
  40260f:	49 8d 57 02          	lea    0x2(%r15),%rdx
  402613:	89 c6                	mov    %eax,%esi
  402615:	4c 0f 44 fa          	cmove  %rdx,%r15
  402619:	40 00 c6             	add    %al,%sil
  40261c:	49 83 df 03          	sbb    $0x3,%r15
  402620:	4d 29 e7             	sub    %r12,%r15
  402623:	58                   	pop    %rax
  402624:	5a                   	pop    %rdx
  402625:	74 37                	je     40265e <rio_readlineb.constprop.0+0x39e>
  402627:	4d 89 fd             	mov    %r15,%r13
  40262a:	4d 89 e6             	mov    %r12,%r14
  40262d:	0f 1f 00             	nopl   (%rax)
  402630:	4c 89 ea             	mov    %r13,%rdx
  402633:	4c 89 f6             	mov    %r14,%rsi
  402636:	89 df                	mov    %ebx,%edi
  402638:	e8 e3 e6 ff ff       	callq  400d20 <write@plt>
  40263d:	48 85 c0             	test   %rax,%rax
  402640:	0f 8e 82 01 00 00    	jle    4027c8 <rio_readlineb.constprop.0+0x508>
  402646:	49 01 c6             	add    %rax,%r14
  402649:	49 29 c5             	sub    %rax,%r13
  40264c:	75 e2                	jne    402630 <rio_readlineb.constprop.0+0x370>
  40264e:	4d 85 ff             	test   %r15,%r15
  402651:	48 8b 85 88 5f ff ff 	mov    -0xa078(%rbp),%rax
  402658:	0f 88 7f 01 00 00    	js     4027dd <rio_readlineb.constprop.0+0x51d>
  40265e:	48 8d 85 b0 5f ff ff 	lea    -0xa050(%rbp),%rax
  402665:	48 8d bd b0 5f ff ff 	lea    -0xa050(%rbp),%rdi
  40266c:	4c 89 e6             	mov    %r12,%rsi
  40266f:	89 9d b0 5f ff ff    	mov    %ebx,-0xa050(%rbp)
  402675:	c7 85 b4 5f ff ff 00 	movl   $0x0,-0xa04c(%rbp)
  40267c:	00 00 00 
  40267f:	48 83 c0 10          	add    $0x10,%rax
  402683:	48 89 85 b8 5f ff ff 	mov    %rax,-0xa048(%rbp)
  40268a:	e8 31 fc ff ff       	callq  4022c0 <rio_readlineb.constprop.0>
  40268f:	48 85 c0             	test   %rax,%rax
  402692:	0f 8e 6f 03 00 00    	jle    402a07 <rio_readlineb.constprop.0+0x747>
  402698:	4c 8d 85 c0 df ff ff 	lea    -0x2040(%rbp),%r8
  40269f:	48 8d 8d 9c 5f ff ff 	lea    -0xa064(%rbp),%rcx
  4026a6:	48 8d 95 c0 bf ff ff 	lea    -0x4040(%rbp),%rdx
  4026ad:	31 c0                	xor    %eax,%eax
  4026af:	be 27 3f 40 00       	mov    $0x403f27,%esi
  4026b4:	4c 89 e7             	mov    %r12,%rdi
  4026b7:	e8 74 e7 ff ff       	callq  400e30 <__isoc99_sscanf@plt>
  4026bc:	44 8b 85 9c 5f ff ff 	mov    -0xa064(%rbp),%r8d
  4026c3:	41 81 f8 c8 00 00 00 	cmp    $0xc8,%r8d
  4026ca:	0f 85 6c 02 00 00    	jne    40293c <rio_readlineb.constprop.0+0x67c>
  4026d0:	48 8b 85 88 5f ff ff 	mov    -0xa078(%rbp),%rax
  4026d7:	49 89 c7             	mov    %rax,%r15
  4026da:	eb 1c                	jmp    4026f8 <rio_readlineb.constprop.0+0x438>
  4026dc:	0f 1f 40 00          	nopl   0x0(%rax)
  4026e0:	48 8d bd b0 5f ff ff 	lea    -0xa050(%rbp),%rdi
  4026e7:	4c 89 e6             	mov    %r12,%rsi
  4026ea:	e8 d1 fb ff ff       	callq  4022c0 <rio_readlineb.constprop.0>
  4026ef:	48 85 c0             	test   %rax,%rax
  4026f2:	0f 8e 48 01 00 00    	jle    402840 <rio_readlineb.constprop.0+0x580>
  4026f8:	80 bd c0 7f ff ff 0d 	cmpb   $0xd,-0x8040(%rbp)
  4026ff:	75 df                	jne    4026e0 <rio_readlineb.constprop.0+0x420>
  402701:	80 bd c1 7f ff ff 0a 	cmpb   $0xa,-0x803f(%rbp)
  402708:	75 d6                	jne    4026e0 <rio_readlineb.constprop.0+0x420>
  40270a:	80 bd c2 7f ff ff 00 	cmpb   $0x0,-0x803e(%rbp)
  402711:	75 cd                	jne    4026e0 <rio_readlineb.constprop.0+0x420>
  402713:	48 8d bd b0 5f ff ff 	lea    -0xa050(%rbp),%rdi
  40271a:	4c 89 e6             	mov    %r12,%rsi
  40271d:	4c 89 bd 88 5f ff ff 	mov    %r15,-0xa078(%rbp)
  402724:	e8 97 fb ff ff       	callq  4022c0 <rio_readlineb.constprop.0>
  402729:	48 85 c0             	test   %rax,%rax
  40272c:	0f 8e 80 04 00 00    	jle    402bb2 <rio_readlineb.constprop.0+0x8f2>
  402732:	4c 8b bd 88 5f ff ff 	mov    -0xa078(%rbp),%r15
  402739:	4c 89 e6             	mov    %r12,%rsi
  40273c:	4c 89 ff             	mov    %r15,%rdi
  40273f:	e8 bc e5 ff ff       	callq  400d00 <strcpy@plt>
  402744:	89 df                	mov    %ebx,%edi
  402746:	e8 25 e6 ff ff       	callq  400d70 <close@plt>
  40274b:	41 0f b6 17          	movzbl (%r15),%edx
  40274f:	b8 4f 00 00 00       	mov    $0x4f,%eax
  402754:	29 d0                	sub    %edx,%eax
  402756:	75 12                	jne    40276a <rio_readlineb.constprop.0+0x4aa>
  402758:	41 0f b6 57 01       	movzbl 0x1(%r15),%edx
  40275d:	b8 4b 00 00 00       	mov    $0x4b,%eax
  402762:	29 d0                	sub    %edx,%eax
  402764:	0f 84 4d 01 00 00    	je     4028b7 <rio_readlineb.constprop.0+0x5f7>
  40276a:	85 c0                	test   %eax,%eax
  40276c:	0f 95 c0             	setne  %al
  40276f:	0f b6 c0             	movzbl %al,%eax
  402772:	f7 d8                	neg    %eax
  402774:	48 8b 4d c8          	mov    -0x38(%rbp),%rcx
  402778:	64 48 33 0c 25 28 00 	xor    %fs:0x28,%rcx
  40277f:	00 00 
  402781:	0f 85 a4 04 00 00    	jne    402c2b <rio_readlineb.constprop.0+0x96b>
  402787:	48 8d 65 d8          	lea    -0x28(%rbp),%rsp
  40278b:	5b                   	pop    %rbx
  40278c:	41 5c                	pop    %r12
  40278e:	41 5d                	pop    %r13
  402790:	41 5e                	pop    %r14
  402792:	41 5f                	pop    %r15
  402794:	5d                   	pop    %rbp
  402795:	c3                   	retq   
  402796:	66 2e 0f 1f 84 00 00 	nopw   %cs:0x0(%rax,%rax,1)
  40279d:	00 00 00 
  4027a0:	49 0f a3 c6          	bt     %rax,%r14
  4027a4:	0f 83 5f fd ff ff    	jae    402509 <rio_readlineb.constprop.0+0x249>
  4027aa:	45 88 04 24          	mov    %r8b,(%r12)
  4027ae:	49 83 c4 01          	add    $0x1,%r12
  4027b2:	49 83 c5 01          	add    $0x1,%r13
  4027b6:	4d 39 ef             	cmp    %r13,%r15
  4027b9:	0f 85 39 fd ff ff    	jne    4024f8 <rio_readlineb.constprop.0+0x238>
  4027bf:	e9 dc fd ff ff       	jmpq   4025a0 <rio_readlineb.constprop.0+0x2e0>
  4027c4:	0f 1f 40 00          	nopl   0x0(%rax)
  4027c8:	e8 23 e5 ff ff       	callq  400cf0 <__errno_location@plt>
  4027cd:	83 38 04             	cmpl   $0x4,(%rax)
  4027d0:	0f 84 5a fe ff ff    	je     402630 <rio_readlineb.constprop.0+0x370>
  4027d6:	48 8b 85 88 5f ff ff 	mov    -0xa078(%rbp),%rax
  4027dd:	48 b9 45 72 72 6f 72 	movabs $0x43203a726f727245,%rcx
  4027e4:	3a 20 43 
  4027e7:	c7 40 28 76 65 72 00 	movl   $0x726576,0x28(%rax)
  4027ee:	89 df                	mov    %ebx,%edi
  4027f0:	48 89 08             	mov    %rcx,(%rax)
  4027f3:	48 b9 6c 69 65 6e 74 	movabs $0x6e7520746e65696c,%rcx
  4027fa:	20 75 6e 
  4027fd:	48 89 48 08          	mov    %rcx,0x8(%rax)
  402801:	48 b9 61 62 6c 65 20 	movabs $0x206f7420656c6261,%rcx
  402808:	74 6f 20 
  40280b:	48 89 48 10          	mov    %rcx,0x10(%rax)
  40280f:	48 b9 77 72 69 74 65 	movabs $0x6f74206574697277,%rcx
  402816:	20 74 6f 
  402819:	48 89 48 18          	mov    %rcx,0x18(%rax)
  40281d:	48 b9 20 74 68 65 20 	movabs $0x7265732065687420,%rcx
  402824:	73 65 72 
  402827:	48 89 48 20          	mov    %rcx,0x20(%rax)
  40282b:	e8 40 e5 ff ff       	callq  400d70 <close@plt>
  402830:	b8 ff ff ff ff       	mov    $0xffffffff,%eax
  402835:	e9 3a ff ff ff       	jmpq   402774 <rio_readlineb.constprop.0+0x4b4>
  40283a:	66 0f 1f 44 00 00    	nopw   0x0(%rax,%rax,1)
  402840:	48 b9 45 72 72 6f 72 	movabs $0x43203a726f727245,%rcx
  402847:	3a 20 43 
  40284a:	41 c6 47 30 00       	movb   $0x0,0x30(%r15)
  40284f:	89 df                	mov    %ebx,%edi
  402851:	49 89 0f             	mov    %rcx,(%r15)
  402854:	48 b9 6c 69 65 6e 74 	movabs $0x6e7520746e65696c,%rcx
  40285b:	20 75 6e 
  40285e:	49 89 4f 08          	mov    %rcx,0x8(%r15)
  402862:	48 b9 61 62 6c 65 20 	movabs $0x206f7420656c6261,%rcx
  402869:	74 6f 20 
  40286c:	49 89 4f 10          	mov    %rcx,0x10(%r15)
  402870:	48 b9 72 65 61 64 20 	movabs $0x6165682064616572,%rcx
  402877:	68 65 61 
  40287a:	49 89 4f 18          	mov    %rcx,0x18(%r15)
  40287e:	48 b9 64 65 72 73 20 	movabs $0x6f72662073726564,%rcx
  402885:	66 72 6f 
  402888:	49 89 4f 20          	mov    %rcx,0x20(%r15)
  40288c:	48 b9 6d 20 73 65 72 	movabs $0x726576726573206d,%rcx
  402893:	76 65 72 
  402896:	49 89 4f 28          	mov    %rcx,0x28(%r15)
  40289a:	e8 d1 e4 ff ff       	callq  400d70 <close@plt>
  40289f:	b8 ff ff ff ff       	mov    $0xffffffff,%eax
  4028a4:	e9 cb fe ff ff       	jmpq   402774 <rio_readlineb.constprop.0+0x4b4>
  4028a9:	41 c6 04 24 2b       	movb   $0x2b,(%r12)
  4028ae:	49 83 c4 01          	add    $0x1,%r12
  4028b2:	e9 fb fe ff ff       	jmpq   4027b2 <rio_readlineb.constprop.0+0x4f2>
  4028b7:	41 0f b6 47 02       	movzbl 0x2(%r15),%eax
  4028bc:	f7 d8                	neg    %eax
  4028be:	e9 a7 fe ff ff       	jmpq   40276a <rio_readlineb.constprop.0+0x4aa>
  4028c3:	48 8b 85 88 5f ff ff 	mov    -0xa078(%rbp),%rax
  4028ca:	48 b9 45 72 72 6f 72 	movabs $0x52203a726f727245,%rcx
  4028d1:	3a 20 52 
  4028d4:	89 df                	mov    %ebx,%edi
  4028d6:	48 89 08             	mov    %rcx,(%rax)
  4028d9:	48 b9 65 73 75 6c 74 	movabs $0x747320746c757365,%rcx
  4028e0:	20 73 74 
  4028e3:	48 89 48 08          	mov    %rcx,0x8(%rax)
  4028e7:	48 b9 72 69 6e 67 20 	movabs $0x6f6f7420676e6972,%rcx
  4028ee:	74 6f 6f 
  4028f1:	48 89 48 10          	mov    %rcx,0x10(%rax)
  4028f5:	48 b9 20 6c 61 72 67 	movabs $0x202e656772616c20,%rcx
  4028fc:	65 2e 20 
  4028ff:	48 89 48 18          	mov    %rcx,0x18(%rax)
  402903:	48 b9 49 6e 63 72 65 	movabs $0x6573616572636e49,%rcx
  40290a:	61 73 65 
  40290d:	48 89 48 20          	mov    %rcx,0x20(%rax)
  402911:	48 b9 20 53 55 42 4d 	movabs $0x5254494d42555320,%rcx
  402918:	49 54 52 
  40291b:	48 89 48 28          	mov    %rcx,0x28(%rax)
  40291f:	48 b9 5f 4d 41 58 42 	movabs $0x46554258414d5f,%rcx
  402926:	55 46 00 
  402929:	48 89 48 30          	mov    %rcx,0x30(%rax)
  40292d:	e8 3e e4 ff ff       	callq  400d70 <close@plt>
  402932:	b8 ff ff ff ff       	mov    $0xffffffff,%eax
  402937:	e9 38 fe ff ff       	jmpq   402774 <rio_readlineb.constprop.0+0x4b4>
  40293c:	48 8b bd 88 5f ff ff 	mov    -0xa078(%rbp),%rdi
  402943:	4c 8d 8d c0 df ff ff 	lea    -0x2040(%rbp),%r9
  40294a:	b9 70 3e 40 00       	mov    $0x403e70,%ecx
  40294f:	48 c7 c2 ff ff ff ff 	mov    $0xffffffffffffffff,%rdx
  402956:	be 01 00 00 00       	mov    $0x1,%esi
  40295b:	31 c0                	xor    %eax,%eax
  40295d:	e8 7e e5 ff ff       	callq  400ee0 <__sprintf_chk@plt>
  402962:	89 df                	mov    %ebx,%edi
  402964:	e8 07 e4 ff ff       	callq  400d70 <close@plt>
  402969:	b8 ff ff ff ff       	mov    $0xffffffff,%eax
  40296e:	e9 01 fe ff ff       	jmpq   402774 <rio_readlineb.constprop.0+0x4b4>
  402973:	48 8b 85 88 5f ff ff 	mov    -0xa078(%rbp),%rax
  40297a:	48 b9 45 72 72 6f 72 	movabs $0x52203a726f727245,%rcx
  402981:	3a 20 52 
  402984:	89 df                	mov    %ebx,%edi
  402986:	48 89 08             	mov    %rcx,(%rax)
  402989:	48 b9 65 73 75 6c 74 	movabs $0x747320746c757365,%rcx
  402990:	20 73 74 
  402993:	c6 40 42 00          	movb   $0x0,0x42(%rax)
  402997:	48 89 48 08          	mov    %rcx,0x8(%rax)
  40299b:	48 b9 72 69 6e 67 20 	movabs $0x6e6f6320676e6972,%rcx
  4029a2:	63 6f 6e 
  4029a5:	48 89 48 10          	mov    %rcx,0x10(%rax)
  4029a9:	48 b9 74 61 69 6e 73 	movabs $0x6e6120736e696174,%rcx
  4029b0:	20 61 6e 
  4029b3:	48 89 48 18          	mov    %rcx,0x18(%rax)
  4029b7:	48 b9 20 69 6c 6c 65 	movabs $0x6c6167656c6c6920,%rcx
  4029be:	67 61 6c 
  4029c1:	48 89 48 20          	mov    %rcx,0x20(%rax)
  4029c5:	48 b9 20 6f 72 20 75 	movabs $0x72706e7520726f20,%rcx
  4029cc:	6e 70 72 
  4029cf:	48 89 48 28          	mov    %rcx,0x28(%rax)
  4029d3:	48 b9 69 6e 74 61 62 	movabs $0x20656c6261746e69,%rcx
  4029da:	6c 65 20 
  4029dd:	48 89 48 30          	mov    %rcx,0x30(%rax)
  4029e1:	48 b9 63 68 61 72 61 	movabs $0x6574636172616863,%rcx
  4029e8:	63 74 65 
  4029eb:	48 89 48 38          	mov    %rcx,0x38(%rax)
  4029ef:	b9 72 2e 00 00       	mov    $0x2e72,%ecx
  4029f4:	66 89 48 40          	mov    %cx,0x40(%rax)
  4029f8:	e8 73 e3 ff ff       	callq  400d70 <close@plt>
  4029fd:	b8 ff ff ff ff       	mov    $0xffffffff,%eax
  402a02:	e9 6d fd ff ff       	jmpq   402774 <rio_readlineb.constprop.0+0x4b4>
  402a07:	48 8b 85 88 5f ff ff 	mov    -0xa078(%rbp),%rax
  402a0e:	48 b9 45 72 72 6f 72 	movabs $0x43203a726f727245,%rcx
  402a15:	3a 20 43 
  402a18:	be 72 00 00 00       	mov    $0x72,%esi
  402a1d:	89 df                	mov    %ebx,%edi
  402a1f:	48 89 08             	mov    %rcx,(%rax)
  402a22:	48 b9 6c 69 65 6e 74 	movabs $0x6e7520746e65696c,%rcx
  402a29:	20 75 6e 
  402a2c:	c7 40 30 65 72 76 65 	movl   $0x65767265,0x30(%rax)
  402a33:	48 89 48 08          	mov    %rcx,0x8(%rax)
  402a37:	48 b9 61 62 6c 65 20 	movabs $0x206f7420656c6261,%rcx
  402a3e:	74 6f 20 
  402a41:	66 89 70 34          	mov    %si,0x34(%rax)
  402a45:	48 89 48 10          	mov    %rcx,0x10(%rax)
  402a49:	48 b9 72 65 61 64 20 	movabs $0x7269662064616572,%rcx
  402a50:	66 69 72 
  402a53:	48 89 48 18          	mov    %rcx,0x18(%rax)
  402a57:	48 b9 73 74 20 68 65 	movabs $0x6564616568207473,%rcx
  402a5e:	61 64 65 
  402a61:	48 89 48 20          	mov    %rcx,0x20(%rax)
  402a65:	48 b9 72 20 66 72 6f 	movabs $0x73206d6f72662072,%rcx
  402a6c:	6d 20 73 
  402a6f:	48 89 48 28          	mov    %rcx,0x28(%rax)
  402a73:	e8 f8 e2 ff ff       	callq  400d70 <close@plt>
  402a78:	b8 ff ff ff ff       	mov    $0xffffffff,%eax
  402a7d:	e9 f2 fc ff ff       	jmpq   402774 <rio_readlineb.constprop.0+0x4b4>
  402a82:	48 8b 85 88 5f ff ff 	mov    -0xa078(%rbp),%rax
  402a89:	48 b9 45 72 72 6f 72 	movabs $0x43203a726f727245,%rcx
  402a90:	3a 20 43 
  402a93:	41 ba 74 00 00 00    	mov    $0x74,%r10d
  402a99:	48 89 08             	mov    %rcx,(%rax)
  402a9c:	48 b9 6c 69 65 6e 74 	movabs $0x6e7520746e65696c,%rcx
  402aa3:	20 75 6e 
  402aa6:	c7 40 20 6f 63 6b 65 	movl   $0x656b636f,0x20(%rax)
  402aad:	48 89 48 08          	mov    %rcx,0x8(%rax)
  402ab1:	48 b9 61 62 6c 65 20 	movabs $0x206f7420656c6261,%rcx
  402ab8:	74 6f 20 
  402abb:	66 44 89 50 24       	mov    %r10w,0x24(%rax)
  402ac0:	48 89 48 10          	mov    %rcx,0x10(%rax)
  402ac4:	48 b9 63 72 65 61 74 	movabs $0x7320657461657263,%rcx
  402acb:	65 20 73 
  402ace:	48 89 48 18          	mov    %rcx,0x18(%rax)
  402ad2:	b8 ff ff ff ff       	mov    $0xffffffff,%eax
  402ad7:	e9 98 fc ff ff       	jmpq   402774 <rio_readlineb.constprop.0+0x4b4>
  402adc:	48 8b 85 88 5f ff ff 	mov    -0xa078(%rbp),%rax
  402ae3:	48 b9 45 72 72 6f 72 	movabs $0x44203a726f727245,%rcx
  402aea:	3a 20 44 
  402aed:	41 b9 73 73 00 00    	mov    $0x7373,%r9d
  402af3:	89 df                	mov    %ebx,%edi
  402af5:	48 89 08             	mov    %rcx,(%rax)
  402af8:	48 b9 4e 53 20 69 73 	movabs $0x6e7520736920534e,%rcx
  402aff:	20 75 6e 
  402b02:	c7 40 28 64 64 72 65 	movl   $0x65726464,0x28(%rax)
  402b09:	48 89 48 08          	mov    %rcx,0x8(%rax)
  402b0d:	48 b9 61 62 6c 65 20 	movabs $0x206f7420656c6261,%rcx
  402b14:	74 6f 20 
  402b17:	66 44 89 48 2c       	mov    %r9w,0x2c(%rax)
  402b1c:	48 89 48 10          	mov    %rcx,0x10(%rax)
  402b20:	48 b9 72 65 73 6f 6c 	movabs $0x2065766c6f736572,%rcx
  402b27:	76 65 20 
  402b2a:	c6 40 2e 00          	movb   $0x0,0x2e(%rax)
  402b2e:	48 89 48 18          	mov    %rcx,0x18(%rax)
  402b32:	48 b9 73 65 72 76 65 	movabs $0x6120726576726573,%rcx
  402b39:	72 20 61 
  402b3c:	48 89 48 20          	mov    %rcx,0x20(%rax)
  402b40:	e8 2b e2 ff ff       	callq  400d70 <close@plt>
  402b45:	b8 ff ff ff ff       	mov    $0xffffffff,%eax
  402b4a:	e9 25 fc ff ff       	jmpq   402774 <rio_readlineb.constprop.0+0x4b4>
  402b4f:	48 8b 85 88 5f ff ff 	mov    -0xa078(%rbp),%rax
  402b56:	48 b9 45 72 72 6f 72 	movabs $0x55203a726f727245,%rcx
  402b5d:	3a 20 55 
  402b60:	bf 65 72 00 00       	mov    $0x7265,%edi
  402b65:	48 89 08             	mov    %rcx,(%rax)
  402b68:	48 b9 6e 61 62 6c 65 	movabs $0x6f7420656c62616e,%rcx
  402b6f:	20 74 6f 
  402b72:	66 89 78 24          	mov    %di,0x24(%rax)
  402b76:	48 89 48 08          	mov    %rcx,0x8(%rax)
  402b7a:	48 b9 20 63 6f 6e 6e 	movabs $0x7463656e6e6f6320,%rcx
  402b81:	65 63 74 
  402b84:	c7 40 20 73 65 72 76 	movl   $0x76726573,0x20(%rax)
  402b8b:	48 89 48 10          	mov    %rcx,0x10(%rax)
  402b8f:	48 b9 20 74 6f 20 74 	movabs $0x20656874206f7420,%rcx
  402b96:	68 65 20 
  402b99:	c6 40 26 00          	movb   $0x0,0x26(%rax)
  402b9d:	48 89 48 18          	mov    %rcx,0x18(%rax)
  402ba1:	89 df                	mov    %ebx,%edi
  402ba3:	e8 c8 e1 ff ff       	callq  400d70 <close@plt>
  402ba8:	b8 ff ff ff ff       	mov    $0xffffffff,%eax
  402bad:	e9 c2 fb ff ff       	jmpq   402774 <rio_readlineb.constprop.0+0x4b4>
  402bb2:	48 8b 85 88 5f ff ff 	mov    -0xa078(%rbp),%rax
  402bb9:	48 b9 45 72 72 6f 72 	movabs $0x43203a726f727245,%rcx
  402bc0:	3a 20 43 
  402bc3:	89 df                	mov    %ebx,%edi
  402bc5:	48 89 08             	mov    %rcx,(%rax)
  402bc8:	48 b9 6c 69 65 6e 74 	movabs $0x6e7520746e65696c,%rcx
  402bcf:	20 75 6e 
  402bd2:	48 89 48 08          	mov    %rcx,0x8(%rax)
  402bd6:	48 b9 61 62 6c 65 20 	movabs $0x206f7420656c6261,%rcx
  402bdd:	74 6f 20 
  402be0:	48 89 48 10          	mov    %rcx,0x10(%rax)
  402be4:	48 b9 72 65 61 64 20 	movabs $0x6174732064616572,%rcx
  402beb:	73 74 61 
  402bee:	48 89 48 18          	mov    %rcx,0x18(%rax)
  402bf2:	48 b9 74 75 73 20 6d 	movabs $0x7373656d20737574,%rcx
  402bf9:	65 73 73 
  402bfc:	48 89 48 20          	mov    %rcx,0x20(%rax)
  402c00:	48 b9 61 67 65 20 66 	movabs $0x6d6f726620656761,%rcx
  402c07:	72 6f 6d 
  402c0a:	48 89 48 28          	mov    %rcx,0x28(%rax)
  402c0e:	48 b9 20 73 65 72 76 	movabs $0x72657672657320,%rcx
  402c15:	65 72 00 
  402c18:	48 89 48 30          	mov    %rcx,0x30(%rax)
  402c1c:	e8 4f e1 ff ff       	callq  400d70 <close@plt>
  402c21:	b8 ff ff ff ff       	mov    $0xffffffff,%eax
  402c26:	e9 49 fb ff ff       	jmpq   402774 <rio_readlineb.constprop.0+0x4b4>
  402c2b:	e8 10 e1 ff ff       	callq  400d40 <__stack_chk_fail@plt>

0000000000402c30 <init_timeout>:
  402c30:	85 ff                	test   %edi,%edi
  402c32:	74 2c                	je     402c60 <init_timeout+0x30>
  402c34:	53                   	push   %rbx
  402c35:	be 90 22 40 00       	mov    $0x402290,%esi
  402c3a:	89 fb                	mov    %edi,%ebx
  402c3c:	bf 0e 00 00 00       	mov    $0xe,%edi
  402c41:	e8 8a e1 ff ff       	callq  400dd0 <signal@plt>
  402c46:	85 db                	test   %ebx,%ebx
  402c48:	bf 00 00 00 00       	mov    $0x0,%edi
  402c4d:	0f 49 fb             	cmovns %ebx,%edi
  402c50:	5b                   	pop    %rbx
  402c51:	e9 0a e1 ff ff       	jmpq   400d60 <alarm@plt>
  402c56:	66 2e 0f 1f 84 00 00 	nopw   %cs:0x0(%rax,%rax,1)
  402c5d:	00 00 00 
  402c60:	f3 c3                	repz retq 
  402c62:	0f 1f 40 00          	nopl   0x0(%rax)
  402c66:	66 2e 0f 1f 84 00 00 	nopw   %cs:0x0(%rax,%rax,1)
  402c6d:	00 00 00 

0000000000402c70 <init_driver>:
  402c70:	55                   	push   %rbp
  402c71:	53                   	push   %rbx
  402c72:	be 01 00 00 00       	mov    $0x1,%esi
  402c77:	48 89 fd             	mov    %rdi,%rbp
  402c7a:	bf 0d 00 00 00       	mov    $0xd,%edi
  402c7f:	48 83 ec 28          	sub    $0x28,%rsp
  402c83:	64 48 8b 04 25 28 00 	mov    %fs:0x28,%rax
  402c8a:	00 00 
  402c8c:	48 89 44 24 18       	mov    %rax,0x18(%rsp)
  402c91:	31 c0                	xor    %eax,%eax
  402c93:	e8 38 e1 ff ff       	callq  400dd0 <signal@plt>
  402c98:	be 01 00 00 00       	mov    $0x1,%esi
  402c9d:	bf 1d 00 00 00       	mov    $0x1d,%edi
  402ca2:	e8 29 e1 ff ff       	callq  400dd0 <signal@plt>
  402ca7:	be 01 00 00 00       	mov    $0x1,%esi
  402cac:	bf 1d 00 00 00       	mov    $0x1d,%edi
  402cb1:	e8 1a e1 ff ff       	callq  400dd0 <signal@plt>
  402cb6:	31 d2                	xor    %edx,%edx
  402cb8:	be 01 00 00 00       	mov    $0x1,%esi
  402cbd:	bf 02 00 00 00       	mov    $0x2,%edi
  402cc2:	e8 29 e2 ff ff       	callq  400ef0 <socket@plt>
  402cc7:	85 c0                	test   %eax,%eax
  402cc9:	0f 88 a1 00 00 00    	js     402d70 <init_driver+0x100>
  402ccf:	bf 38 3f 40 00       	mov    $0x403f38,%edi
  402cd4:	89 c3                	mov    %eax,%ebx
  402cd6:	e8 05 e1 ff ff       	callq  400de0 <gethostbyname@plt>
  402cdb:	48 85 c0             	test   %rax,%rax
  402cde:	0f 84 0e 01 00 00    	je     402df2 <init_driver+0x182>
  402ce4:	ba 02 00 00 00       	mov    $0x2,%edx
  402ce9:	48 c7 04 24 00 00 00 	movq   $0x0,(%rsp)
  402cf0:	00 
  402cf1:	48 c7 44 24 08 00 00 	movq   $0x0,0x8(%rsp)
  402cf8:	00 00 
  402cfa:	66 89 14 24          	mov    %dx,(%rsp)
  402cfe:	48 63 50 14          	movslq 0x14(%rax),%rdx
  402d02:	48 8d 7c 24 04       	lea    0x4(%rsp),%rdi
  402d07:	48 8b 40 18          	mov    0x18(%rax),%rax
  402d0b:	b9 0c 00 00 00       	mov    $0xc,%ecx
  402d10:	48 8b 30             	mov    (%rax),%rsi
  402d13:	e8 d8 e0 ff ff       	callq  400df0 <__memmove_chk@plt>
  402d18:	b9 3b 6d 00 00       	mov    $0x6d3b,%ecx
  402d1d:	ba 10 00 00 00       	mov    $0x10,%edx
  402d22:	48 89 e6             	mov    %rsp,%rsi
  402d25:	89 df                	mov    %ebx,%edi
  402d27:	66 89 4c 24 02       	mov    %cx,0x2(%rsp)
  402d2c:	e8 5f e1 ff ff       	callq  400e90 <connect@plt>
  402d31:	85 c0                	test   %eax,%eax
  402d33:	0f 88 87 00 00 00    	js     402dc0 <init_driver+0x150>
  402d39:	89 df                	mov    %ebx,%edi
  402d3b:	e8 30 e0 ff ff       	callq  400d70 <close@plt>
  402d40:	b8 4f 4b 00 00       	mov    $0x4b4f,%eax
  402d45:	c6 45 02 00          	movb   $0x0,0x2(%rbp)
  402d49:	66 89 45 00          	mov    %ax,0x0(%rbp)
  402d4d:	31 c0                	xor    %eax,%eax
  402d4f:	48 8b 4c 24 18       	mov    0x18(%rsp),%rcx
  402d54:	64 48 33 0c 25 28 00 	xor    %fs:0x28,%rcx
  402d5b:	00 00 
  402d5d:	0f 85 fa 00 00 00    	jne    402e5d <init_driver+0x1ed>
  402d63:	48 83 c4 28          	add    $0x28,%rsp
  402d67:	5b                   	pop    %rbx
  402d68:	5d                   	pop    %rbp
  402d69:	c3                   	retq   
  402d6a:	66 0f 1f 44 00 00    	nopw   0x0(%rax,%rax,1)
  402d70:	48 b8 45 72 72 6f 72 	movabs $0x43203a726f727245,%rax
  402d77:	3a 20 43 
  402d7a:	bf 74 00 00 00       	mov    $0x74,%edi
  402d7f:	c7 45 20 6f 63 6b 65 	movl   $0x656b636f,0x20(%rbp)
  402d86:	48 89 45 00          	mov    %rax,0x0(%rbp)
  402d8a:	48 b8 6c 69 65 6e 74 	movabs $0x6e7520746e65696c,%rax
  402d91:	20 75 6e 
  402d94:	66 89 7d 24          	mov    %di,0x24(%rbp)
  402d98:	48 89 45 08          	mov    %rax,0x8(%rbp)
  402d9c:	48 b8 61 62 6c 65 20 	movabs $0x206f7420656c6261,%rax
  402da3:	74 6f 20 
  402da6:	48 89 45 10          	mov    %rax,0x10(%rbp)
  402daa:	48 b8 63 72 65 61 74 	movabs $0x7320657461657263,%rax
  402db1:	65 20 73 
  402db4:	48 89 45 18          	mov    %rax,0x18(%rbp)
  402db8:	b8 ff ff ff ff       	mov    $0xffffffff,%eax
  402dbd:	eb 90                	jmp    402d4f <init_driver+0xdf>
  402dbf:	90                   	nop
  402dc0:	41 b8 38 3f 40 00    	mov    $0x403f38,%r8d
  402dc6:	b9 f8 3e 40 00       	mov    $0x403ef8,%ecx
  402dcb:	48 c7 c2 ff ff ff ff 	mov    $0xffffffffffffffff,%rdx
  402dd2:	be 01 00 00 00       	mov    $0x1,%esi
  402dd7:	48 89 ef             	mov    %rbp,%rdi
  402dda:	31 c0                	xor    %eax,%eax
  402ddc:	e8 ff e0 ff ff       	callq  400ee0 <__sprintf_chk@plt>
  402de1:	89 df                	mov    %ebx,%edi
  402de3:	e8 88 df ff ff       	callq  400d70 <close@plt>
  402de8:	b8 ff ff ff ff       	mov    $0xffffffff,%eax
  402ded:	e9 5d ff ff ff       	jmpq   402d4f <init_driver+0xdf>
  402df2:	48 b8 45 72 72 6f 72 	movabs $0x44203a726f727245,%rax
  402df9:	3a 20 44 
  402dfc:	be 73 73 00 00       	mov    $0x7373,%esi
  402e01:	c7 45 28 64 64 72 65 	movl   $0x65726464,0x28(%rbp)
  402e08:	48 89 45 00          	mov    %rax,0x0(%rbp)
  402e0c:	48 b8 4e 53 20 69 73 	movabs $0x6e7520736920534e,%rax
  402e13:	20 75 6e 
  402e16:	66 89 75 2c          	mov    %si,0x2c(%rbp)
  402e1a:	48 89 45 08          	mov    %rax,0x8(%rbp)
  402e1e:	48 b8 61 62 6c 65 20 	movabs $0x206f7420656c6261,%rax
  402e25:	74 6f 20 
  402e28:	c6 45 2e 00          	movb   $0x0,0x2e(%rbp)
  402e2c:	48 89 45 10          	mov    %rax,0x10(%rbp)
  402e30:	48 b8 72 65 73 6f 6c 	movabs $0x2065766c6f736572,%rax
  402e37:	76 65 20 
  402e3a:	89 df                	mov    %ebx,%edi
  402e3c:	48 89 45 18          	mov    %rax,0x18(%rbp)
  402e40:	48 b8 73 65 72 76 65 	movabs $0x6120726576726573,%rax
  402e47:	72 20 61 
  402e4a:	48 89 45 20          	mov    %rax,0x20(%rbp)
  402e4e:	e8 1d df ff ff       	callq  400d70 <close@plt>
  402e53:	b8 ff ff ff ff       	mov    $0xffffffff,%eax
  402e58:	e9 f2 fe ff ff       	jmpq   402d4f <init_driver+0xdf>
  402e5d:	e8 de de ff ff       	callq  400d40 <__stack_chk_fail@plt>
  402e62:	0f 1f 40 00          	nopl   0x0(%rax)
  402e66:	66 2e 0f 1f 84 00 00 	nopw   %cs:0x0(%rax,%rax,1)
  402e6d:	00 00 00 
  402e70:	48 83 ec 18          	sub    $0x18,%rsp
  402e74:	85 c9                	test   %ecx,%ecx
  402e76:	75 28                	jne    402ea0 <init_driver+0x230>
  402e78:	48 85 ff             	test   %rdi,%rdi
  402e7b:	74 05                	je     402e82 <init_driver+0x212>
  402e7d:	80 3f 00             	cmpb   $0x0,(%rdi)
  402e80:	75 4e                	jne    402ed0 <init_driver+0x260>
  402e82:	b8 4f 4b 00 00       	mov    $0x4b4f,%eax
  402e87:	41 c6 40 02 00       	movb   $0x0,0x2(%r8)
  402e8c:	66 41 89 00          	mov    %ax,(%r8)
  402e90:	31 c0                	xor    %eax,%eax
  402e92:	48 83 c4 18          	add    $0x18,%rsp
  402e96:	c3                   	retq   
  402e97:	66 0f 1f 84 00 00 00 	nopw   0x0(%rax,%rax,1)
  402e9e:	00 00 
  402ea0:	be 4a 3f 40 00       	mov    $0x403f4a,%esi
  402ea5:	bf 01 00 00 00       	mov    $0x1,%edi
  402eaa:	31 c0                	xor    %eax,%eax
  402eac:	4c 89 44 24 08       	mov    %r8,0x8(%rsp)
  402eb1:	e8 9a df ff ff       	callq  400e50 <__printf_chk@plt>
  402eb6:	4c 8b 44 24 08       	mov    0x8(%rsp),%r8
  402ebb:	be 4f 4b 00 00       	mov    $0x4b4f,%esi
  402ec0:	31 c0                	xor    %eax,%eax
  402ec2:	66 41 89 30          	mov    %si,(%r8)
  402ec6:	41 c6 40 02 00       	movb   $0x0,0x2(%r8)
  402ecb:	48 83 c4 18          	add    $0x18,%rsp
  402ecf:	c3                   	retq   
  402ed0:	41 50                	push   %r8
  402ed2:	52                   	push   %rdx
  402ed3:	48 89 f9             	mov    %rdi,%rcx
  402ed6:	49 89 f0             	mov    %rsi,%r8
  402ed9:	ba 65 3f 40 00       	mov    $0x403f65,%edx
  402ede:	41 b9 61 3f 40 00    	mov    $0x403f61,%r9d
  402ee4:	be 6d 3b 00 00       	mov    $0x3b6d,%esi
  402ee9:	bf 38 3f 40 00       	mov    $0x403f38,%edi
  402eee:	e8 8d f4 ff ff       	callq  402380 <rio_readlineb.constprop.0+0xc0>
  402ef3:	5a                   	pop    %rdx
  402ef4:	59                   	pop    %rcx
  402ef5:	48 83 c4 18          	add    $0x18,%rsp
  402ef9:	c3                   	retq   
  402efa:	66 0f 1f 44 00 00    	nopw   0x0(%rax,%rax,1)

0000000000402f00 <__libc_csu_init>:
  402f00:	41 57                	push   %r15
  402f02:	41 56                	push   %r14
  402f04:	41 89 ff             	mov    %edi,%r15d
  402f07:	41 55                	push   %r13
  402f09:	41 54                	push   %r12
  402f0b:	4c 8d 25 fe 1e 20 00 	lea    0x201efe(%rip),%r12        # 604e10 <__frame_dummy_init_array_entry>
  402f12:	55                   	push   %rbp
  402f13:	48 8d 2d fe 1e 20 00 	lea    0x201efe(%rip),%rbp        # 604e18 <__init_array_end>
  402f1a:	53                   	push   %rbx
  402f1b:	49 89 f6             	mov    %rsi,%r14
  402f1e:	49 89 d5             	mov    %rdx,%r13
  402f21:	4c 29 e5             	sub    %r12,%rbp
  402f24:	48 83 ec 08          	sub    $0x8,%rsp
  402f28:	48 c1 fd 03          	sar    $0x3,%rbp
  402f2c:	e8 67 dd ff ff       	callq  400c98 <_init>
  402f31:	48 85 ed             	test   %rbp,%rbp
  402f34:	74 20                	je     402f56 <__libc_csu_init+0x56>
  402f36:	31 db                	xor    %ebx,%ebx
  402f38:	0f 1f 84 00 00 00 00 	nopl   0x0(%rax,%rax,1)
  402f3f:	00 
  402f40:	4c 89 ea             	mov    %r13,%rdx
  402f43:	4c 89 f6             	mov    %r14,%rsi
  402f46:	44 89 ff             	mov    %r15d,%edi
  402f49:	41 ff 14 dc          	callq  *(%r12,%rbx,8)
  402f4d:	48 83 c3 01          	add    $0x1,%rbx
  402f51:	48 39 eb             	cmp    %rbp,%rbx
  402f54:	75 ea                	jne    402f40 <__libc_csu_init+0x40>
  402f56:	48 83 c4 08          	add    $0x8,%rsp
  402f5a:	5b                   	pop    %rbx
  402f5b:	5d                   	pop    %rbp
  402f5c:	41 5c                	pop    %r12
  402f5e:	41 5d                	pop    %r13
  402f60:	41 5e                	pop    %r14
  402f62:	41 5f                	pop    %r15
  402f64:	c3                   	retq   
  402f65:	90                   	nop
  402f66:	66 2e 0f 1f 84 00 00 	nopw   %cs:0x0(%rax,%rax,1)
  402f6d:	00 00 00 

0000000000402f70 <__libc_csu_fini>:
  402f70:	f3 c3                	repz retq 

Disassembly of section .fini:

0000000000402f74 <_fini>:
  402f74:	48 83 ec 08          	sub    $0x8,%rsp
  402f78:	48 83 c4 08          	add    $0x8,%rsp
  402f7c:	c3                   	retq   
